ARM GAS  C:\Users\Admin\AppData\Local\Temp\ccuupvKm.s 			page 1


   1              		.cpu cortex-m3
   2              		.arch armv7-m
   3              		.fpu softvfp
   4              		.eabi_attribute 20, 1
   5              		.eabi_attribute 21, 1
   6              		.eabi_attribute 23, 3
   7              		.eabi_attribute 24, 1
   8              		.eabi_attribute 25, 1
   9              		.eabi_attribute 26, 1
  10              		.eabi_attribute 30, 1
  11              		.eabi_attribute 34, 1
  12              		.eabi_attribute 18, 4
  13              		.file	"ccsbcs.c"
  14              		.text
  15              	.Ltext0:
  16              		.cfi_sections	.debug_frame
  17              		.section	.text.ff_convert,"ax",%progbits
  18              		.align	1
  19              		.global	ff_convert
  20              		.syntax unified
  21              		.thumb
  22              		.thumb_func
  24              	ff_convert:
  25              	.LVL0:
  26              	.LFB65:
  27              		.file 1 "Middlewares/Third_Party/FatFs/src/option/ccsbcs.c"
   1:Middlewares/Third_Party/FatFs/src/option/ccsbcs.c **** /*------------------------------------------------------------------------*/
   2:Middlewares/Third_Party/FatFs/src/option/ccsbcs.c **** /* Unicode - Local code bidirectional converter  (C)ChaN, 2012            */
   3:Middlewares/Third_Party/FatFs/src/option/ccsbcs.c **** /* (SBCS code pages)                                                      */
   4:Middlewares/Third_Party/FatFs/src/option/ccsbcs.c **** /*------------------------------------------------------------------------*/
   5:Middlewares/Third_Party/FatFs/src/option/ccsbcs.c **** /*  437   U.S. (OEM)
   6:Middlewares/Third_Party/FatFs/src/option/ccsbcs.c **** /   720   Arabic (OEM)
   7:Middlewares/Third_Party/FatFs/src/option/ccsbcs.c **** /   1256  Arabic (Windows)
   8:Middlewares/Third_Party/FatFs/src/option/ccsbcs.c **** /   737   Greek (OEM)
   9:Middlewares/Third_Party/FatFs/src/option/ccsbcs.c **** /   1253  Greek (Windows)
  10:Middlewares/Third_Party/FatFs/src/option/ccsbcs.c **** /   1250  Central Europe (Windows)
  11:Middlewares/Third_Party/FatFs/src/option/ccsbcs.c **** /   775   Baltic (OEM)
  12:Middlewares/Third_Party/FatFs/src/option/ccsbcs.c **** /   1257  Baltic (Windows)
  13:Middlewares/Third_Party/FatFs/src/option/ccsbcs.c **** /   850   Multilingual Latin 1 (OEM)
  14:Middlewares/Third_Party/FatFs/src/option/ccsbcs.c **** /   852   Latin 2 (OEM)
  15:Middlewares/Third_Party/FatFs/src/option/ccsbcs.c **** /   1252  Latin 1 (Windows)
  16:Middlewares/Third_Party/FatFs/src/option/ccsbcs.c **** /   855   Cyrillic (OEM)
  17:Middlewares/Third_Party/FatFs/src/option/ccsbcs.c **** /   1251  Cyrillic (Windows)
  18:Middlewares/Third_Party/FatFs/src/option/ccsbcs.c **** /   866   Russian (OEM)
  19:Middlewares/Third_Party/FatFs/src/option/ccsbcs.c **** /   857   Turkish (OEM)
  20:Middlewares/Third_Party/FatFs/src/option/ccsbcs.c **** /   1254  Turkish (Windows)
  21:Middlewares/Third_Party/FatFs/src/option/ccsbcs.c **** /   858   Multilingual Latin 1 + Euro (OEM)
  22:Middlewares/Third_Party/FatFs/src/option/ccsbcs.c **** /   862   Hebrew (OEM)
  23:Middlewares/Third_Party/FatFs/src/option/ccsbcs.c **** /   1255  Hebrew (Windows)
  24:Middlewares/Third_Party/FatFs/src/option/ccsbcs.c **** /   874   Thai (OEM, Windows)
  25:Middlewares/Third_Party/FatFs/src/option/ccsbcs.c **** /   1258  Vietnam (OEM, Windows)
  26:Middlewares/Third_Party/FatFs/src/option/ccsbcs.c **** */
  27:Middlewares/Third_Party/FatFs/src/option/ccsbcs.c **** 
  28:Middlewares/Third_Party/FatFs/src/option/ccsbcs.c **** #include "../ff.h"
  29:Middlewares/Third_Party/FatFs/src/option/ccsbcs.c **** 
  30:Middlewares/Third_Party/FatFs/src/option/ccsbcs.c **** 
  31:Middlewares/Third_Party/FatFs/src/option/ccsbcs.c **** #if _CODE_PAGE == 437
ARM GAS  C:\Users\Admin\AppData\Local\Temp\ccuupvKm.s 			page 2


  32:Middlewares/Third_Party/FatFs/src/option/ccsbcs.c **** #define _TBLDEF 1
  33:Middlewares/Third_Party/FatFs/src/option/ccsbcs.c **** static
  34:Middlewares/Third_Party/FatFs/src/option/ccsbcs.c **** const WCHAR Tbl[] = {	/*  CP437(0x80-0xFF) to Unicode conversion table */
  35:Middlewares/Third_Party/FatFs/src/option/ccsbcs.c **** 	0x00C7, 0x00FC, 0x00E9, 0x00E2, 0x00E4, 0x00E0, 0x00E5, 0x00E7,
  36:Middlewares/Third_Party/FatFs/src/option/ccsbcs.c **** 	0x00EA, 0x00EB, 0x00E8, 0x00EF, 0x00EE, 0x00EC, 0x00C4, 0x00C5,
  37:Middlewares/Third_Party/FatFs/src/option/ccsbcs.c **** 	0x00C9, 0x00E6, 0x00C6, 0x00F4, 0x00F6, 0x00F2, 0x00FB, 0x00F9,
  38:Middlewares/Third_Party/FatFs/src/option/ccsbcs.c **** 	0x00FF, 0x00D6, 0x00DC, 0x00A2, 0x00A3, 0x00A5, 0x20A7, 0x0192,
  39:Middlewares/Third_Party/FatFs/src/option/ccsbcs.c **** 	0x00E1, 0x00ED, 0x00F3, 0x00FA, 0x00F1, 0x00D1, 0x00AA, 0x00BA,
  40:Middlewares/Third_Party/FatFs/src/option/ccsbcs.c **** 	0x00BF, 0x2310, 0x00AC, 0x00BD, 0x00BC, 0x00A1, 0x00AB, 0x00BB,
  41:Middlewares/Third_Party/FatFs/src/option/ccsbcs.c **** 	0x2591, 0x2592, 0x2593, 0x2502, 0x2524, 0x2561, 0x2562, 0x2556,
  42:Middlewares/Third_Party/FatFs/src/option/ccsbcs.c **** 	0x2555, 0x2563, 0x2551, 0x2557, 0x255D, 0x255C, 0x255B, 0x2510,
  43:Middlewares/Third_Party/FatFs/src/option/ccsbcs.c **** 	0x2514, 0x2534, 0x252C, 0x251C, 0x2500, 0x253C, 0x255E, 0x255F,
  44:Middlewares/Third_Party/FatFs/src/option/ccsbcs.c **** 	0x255A, 0x2554, 0x2569, 0x2566, 0x2560, 0x2550, 0x256C, 0x2567,
  45:Middlewares/Third_Party/FatFs/src/option/ccsbcs.c **** 	0x2568, 0x2564, 0x2565, 0x2559, 0x2558, 0x2552, 0x2553, 0x256B,
  46:Middlewares/Third_Party/FatFs/src/option/ccsbcs.c **** 	0x256A, 0x2518, 0x250C, 0x2588, 0x2584, 0x258C, 0x2590, 0x2580,
  47:Middlewares/Third_Party/FatFs/src/option/ccsbcs.c **** 	0x03B1, 0x00DF, 0x0393, 0x03C0, 0x03A3, 0x03C3, 0x00B5, 0x03C4,
  48:Middlewares/Third_Party/FatFs/src/option/ccsbcs.c **** 	0x03A6, 0x0398, 0x03A9, 0x03B4, 0x221E, 0x03C6, 0x03B5, 0x2229,
  49:Middlewares/Third_Party/FatFs/src/option/ccsbcs.c **** 	0x2261, 0x00B1, 0x2265, 0x2264, 0x2320, 0x2321, 0x00F7, 0x2248,
  50:Middlewares/Third_Party/FatFs/src/option/ccsbcs.c **** 	0x00B0, 0x2219, 0x00B7, 0x221A, 0x207F, 0x00B2, 0x25A0, 0x00A0
  51:Middlewares/Third_Party/FatFs/src/option/ccsbcs.c **** };
  52:Middlewares/Third_Party/FatFs/src/option/ccsbcs.c **** 
  53:Middlewares/Third_Party/FatFs/src/option/ccsbcs.c **** #elif _CODE_PAGE == 720
  54:Middlewares/Third_Party/FatFs/src/option/ccsbcs.c **** #define _TBLDEF 1
  55:Middlewares/Third_Party/FatFs/src/option/ccsbcs.c **** static
  56:Middlewares/Third_Party/FatFs/src/option/ccsbcs.c **** const WCHAR Tbl[] = {	/*  CP720(0x80-0xFF) to Unicode conversion table */
  57:Middlewares/Third_Party/FatFs/src/option/ccsbcs.c **** 	0x0000, 0x0000, 0x00E9, 0x00E2, 0x0000, 0x00E0, 0x0000, 0x00E7,
  58:Middlewares/Third_Party/FatFs/src/option/ccsbcs.c **** 	0x00EA, 0x00EB, 0x00E8, 0x00EF, 0x00EE, 0x0000, 0x0000, 0x0000,
  59:Middlewares/Third_Party/FatFs/src/option/ccsbcs.c **** 	0x0000, 0x0651, 0x0652, 0x00F4, 0x00A4, 0x0640, 0x00FB, 0x00F9,
  60:Middlewares/Third_Party/FatFs/src/option/ccsbcs.c **** 	0x0621, 0x0622, 0x0623, 0x0624, 0x00A3, 0x0625, 0x0626, 0x0627,
  61:Middlewares/Third_Party/FatFs/src/option/ccsbcs.c **** 	0x0628, 0x0629, 0x062A, 0x062B, 0x062C, 0x062D, 0x062E, 0x062F,
  62:Middlewares/Third_Party/FatFs/src/option/ccsbcs.c **** 	0x0630, 0x0631, 0x0632, 0x0633, 0x0634, 0x0635, 0x00AB, 0x00BB,
  63:Middlewares/Third_Party/FatFs/src/option/ccsbcs.c **** 	0x2591, 0x2592, 0x2593, 0x2502, 0x2524, 0x2561, 0x2562, 0x2556,
  64:Middlewares/Third_Party/FatFs/src/option/ccsbcs.c **** 	0x2555, 0x2563, 0x2551, 0x2557, 0x255D, 0x255C, 0x255B, 0x2510,
  65:Middlewares/Third_Party/FatFs/src/option/ccsbcs.c **** 	0x2514, 0x2534, 0x252C, 0x251C, 0x2500, 0x253C, 0x255E, 0x255F,
  66:Middlewares/Third_Party/FatFs/src/option/ccsbcs.c **** 	0x255A, 0x2554, 0x2569, 0x2566, 0x2560, 0x2550, 0x256C, 0x2567,
  67:Middlewares/Third_Party/FatFs/src/option/ccsbcs.c **** 	0x2568, 0x2564, 0x2565, 0x2559, 0x2558, 0x2552, 0x2553, 0x256B,
  68:Middlewares/Third_Party/FatFs/src/option/ccsbcs.c **** 	0x256A, 0x2518, 0x250C, 0x2588, 0x2584, 0x258C, 0x2590, 0x2580,
  69:Middlewares/Third_Party/FatFs/src/option/ccsbcs.c **** 	0x0636, 0x0637, 0x0638, 0x0639, 0x063A, 0x0641, 0x00B5, 0x0642,
  70:Middlewares/Third_Party/FatFs/src/option/ccsbcs.c **** 	0x0643, 0x0644, 0x0645, 0x0646, 0x0647, 0x0648, 0x0649, 0x064A,
  71:Middlewares/Third_Party/FatFs/src/option/ccsbcs.c **** 	0x2261, 0x064B, 0x064C, 0x064D, 0x064E, 0x064F, 0x0650, 0x2248,
  72:Middlewares/Third_Party/FatFs/src/option/ccsbcs.c **** 	0x00B0, 0x2219, 0x00B7, 0x221A, 0x207F, 0x00B2, 0x25A0, 0x00A0
  73:Middlewares/Third_Party/FatFs/src/option/ccsbcs.c **** };
  74:Middlewares/Third_Party/FatFs/src/option/ccsbcs.c **** 
  75:Middlewares/Third_Party/FatFs/src/option/ccsbcs.c **** #elif _CODE_PAGE == 737
  76:Middlewares/Third_Party/FatFs/src/option/ccsbcs.c **** #define _TBLDEF 1
  77:Middlewares/Third_Party/FatFs/src/option/ccsbcs.c **** static
  78:Middlewares/Third_Party/FatFs/src/option/ccsbcs.c **** const WCHAR Tbl[] = {	/*  CP737(0x80-0xFF) to Unicode conversion table */
  79:Middlewares/Third_Party/FatFs/src/option/ccsbcs.c **** 	0x0391, 0x0392, 0x0393, 0x0394, 0x0395, 0x0396, 0x0397, 0x0398,
  80:Middlewares/Third_Party/FatFs/src/option/ccsbcs.c **** 	0x0399, 0x039A, 0x039B, 0x039C, 0x039D, 0x039E, 0x039F, 0x03A0,
  81:Middlewares/Third_Party/FatFs/src/option/ccsbcs.c **** 	0x03A1, 0x03A3, 0x03A4, 0x03A5, 0x03A6, 0x03A7, 0x03A8, 0x03A9,
  82:Middlewares/Third_Party/FatFs/src/option/ccsbcs.c **** 	0x03B1, 0x03B2, 0x03B3, 0x03B4, 0x03B5, 0x03B6, 0x03B7, 0x03B8,
  83:Middlewares/Third_Party/FatFs/src/option/ccsbcs.c **** 	0x03B9, 0x03BA, 0x03BB, 0x03BC, 0x03BD, 0x03BE, 0x03BF, 0x03C0,
  84:Middlewares/Third_Party/FatFs/src/option/ccsbcs.c **** 	0x03C1, 0x03C3, 0x03C2, 0x03C4, 0x03C5, 0x03C6, 0x03C7, 0x03C8,
  85:Middlewares/Third_Party/FatFs/src/option/ccsbcs.c **** 	0x2591, 0x2592, 0x2593, 0x2502, 0x2524, 0x2561, 0x2562, 0x2556,
  86:Middlewares/Third_Party/FatFs/src/option/ccsbcs.c **** 	0x2555, 0x2563, 0x2551, 0x2557, 0x255D, 0x255C, 0x255B, 0x2510,
  87:Middlewares/Third_Party/FatFs/src/option/ccsbcs.c **** 	0x2514, 0x2534, 0x252C, 0x251C, 0x2500, 0x253C, 0x255E, 0x255F,
  88:Middlewares/Third_Party/FatFs/src/option/ccsbcs.c **** 	0x255A, 0x2554, 0x2569, 0x2566, 0x2560, 0x2550, 0x256C, 0x2567,
ARM GAS  C:\Users\Admin\AppData\Local\Temp\ccuupvKm.s 			page 3


  89:Middlewares/Third_Party/FatFs/src/option/ccsbcs.c **** 	0x2568, 0x2564, 0x2565, 0x2559, 0x2558, 0x2552, 0x2553, 0x256B,
  90:Middlewares/Third_Party/FatFs/src/option/ccsbcs.c **** 	0x256A, 0x2518, 0x250C, 0x2588, 0x2584, 0x258C, 0x2590, 0x2580,
  91:Middlewares/Third_Party/FatFs/src/option/ccsbcs.c **** 	0x03C9, 0x03AC, 0x03AD, 0x03AE, 0x03CA, 0x03AF, 0x03CC, 0x03CD,
  92:Middlewares/Third_Party/FatFs/src/option/ccsbcs.c **** 	0x03CB, 0x03CE, 0x0386, 0x0388, 0x0389, 0x038A, 0x038C, 0x038E,
  93:Middlewares/Third_Party/FatFs/src/option/ccsbcs.c **** 	0x038F, 0x00B1, 0x2265, 0x2264, 0x03AA, 0x03AB, 0x00F7, 0x2248,
  94:Middlewares/Third_Party/FatFs/src/option/ccsbcs.c **** 	0x00B0, 0x2219, 0x00B7, 0x221A, 0x207F, 0x00B2, 0x25A0, 0x00A0
  95:Middlewares/Third_Party/FatFs/src/option/ccsbcs.c **** };
  96:Middlewares/Third_Party/FatFs/src/option/ccsbcs.c **** 
  97:Middlewares/Third_Party/FatFs/src/option/ccsbcs.c **** #elif _CODE_PAGE == 775
  98:Middlewares/Third_Party/FatFs/src/option/ccsbcs.c **** #define _TBLDEF 1
  99:Middlewares/Third_Party/FatFs/src/option/ccsbcs.c **** static
 100:Middlewares/Third_Party/FatFs/src/option/ccsbcs.c **** const WCHAR Tbl[] = {	/*  CP775(0x80-0xFF) to Unicode conversion table */
 101:Middlewares/Third_Party/FatFs/src/option/ccsbcs.c **** 	0x0106, 0x00FC, 0x00E9, 0x0101, 0x00E4, 0x0123, 0x00E5, 0x0107,
 102:Middlewares/Third_Party/FatFs/src/option/ccsbcs.c **** 	0x0142, 0x0113, 0x0156, 0x0157, 0x012B, 0x0179, 0x00C4, 0x00C5,
 103:Middlewares/Third_Party/FatFs/src/option/ccsbcs.c **** 	0x00C9, 0x00E6, 0x00C6, 0x014D, 0x00F6, 0x0122, 0x00A2, 0x015A,
 104:Middlewares/Third_Party/FatFs/src/option/ccsbcs.c **** 	0x015B, 0x00D6, 0x00DC, 0x00F8, 0x00A3, 0x00D8, 0x00D7, 0x00A4,
 105:Middlewares/Third_Party/FatFs/src/option/ccsbcs.c **** 	0x0100, 0x012A, 0x00F3, 0x017B, 0x017C, 0x017A, 0x201D, 0x00A6,
 106:Middlewares/Third_Party/FatFs/src/option/ccsbcs.c **** 	0x00A9, 0x00AE, 0x00AC, 0x00BD, 0x00BC, 0x0141, 0x00AB, 0x00BB,
 107:Middlewares/Third_Party/FatFs/src/option/ccsbcs.c **** 	0x2591, 0x2592, 0x2593, 0x2502, 0x2524, 0x0104, 0x010C, 0x0118,
 108:Middlewares/Third_Party/FatFs/src/option/ccsbcs.c **** 	0x0116, 0x2563, 0x2551, 0x2557, 0x255D, 0x012E, 0x0160, 0x2510,
 109:Middlewares/Third_Party/FatFs/src/option/ccsbcs.c **** 	0x2514, 0x2534, 0x252C, 0x251C, 0x2500, 0x253C, 0x0172, 0x016A,
 110:Middlewares/Third_Party/FatFs/src/option/ccsbcs.c **** 	0x255A, 0x2554, 0x2569, 0x2566, 0x2560, 0x2550, 0x256C, 0x017D,
 111:Middlewares/Third_Party/FatFs/src/option/ccsbcs.c **** 	0x0105, 0x010D, 0x0119, 0x0117, 0x012F, 0x0161, 0x0173, 0x016B,
 112:Middlewares/Third_Party/FatFs/src/option/ccsbcs.c **** 	0x017E, 0x2518, 0x250C, 0x2588, 0x2584, 0x258C, 0x2590, 0x2580,
 113:Middlewares/Third_Party/FatFs/src/option/ccsbcs.c **** 	0x00D3, 0x00DF, 0x014C, 0x0143, 0x00F5, 0x00D5, 0x00B5, 0x0144,
 114:Middlewares/Third_Party/FatFs/src/option/ccsbcs.c **** 	0x0136, 0x0137, 0x013B, 0x013C, 0x0146, 0x0112, 0x0145, 0x2019,
 115:Middlewares/Third_Party/FatFs/src/option/ccsbcs.c **** 	0x00AD, 0x00B1, 0x201C, 0x00BE, 0x00B6, 0x00A7, 0x00F7, 0x201E,
 116:Middlewares/Third_Party/FatFs/src/option/ccsbcs.c **** 	0x00B0, 0x2219, 0x00B7, 0x00B9, 0x00B3, 0x00B2, 0x25A0, 0x00A0
 117:Middlewares/Third_Party/FatFs/src/option/ccsbcs.c **** };
 118:Middlewares/Third_Party/FatFs/src/option/ccsbcs.c **** 
 119:Middlewares/Third_Party/FatFs/src/option/ccsbcs.c **** #elif _CODE_PAGE == 850
 120:Middlewares/Third_Party/FatFs/src/option/ccsbcs.c **** #define _TBLDEF 1
 121:Middlewares/Third_Party/FatFs/src/option/ccsbcs.c **** static
 122:Middlewares/Third_Party/FatFs/src/option/ccsbcs.c **** const WCHAR Tbl[] = {	/*  CP850(0x80-0xFF) to Unicode conversion table */
 123:Middlewares/Third_Party/FatFs/src/option/ccsbcs.c **** 	0x00C7, 0x00FC, 0x00E9, 0x00E2, 0x00E4, 0x00E0, 0x00E5, 0x00E7,
 124:Middlewares/Third_Party/FatFs/src/option/ccsbcs.c **** 	0x00EA, 0x00EB, 0x00E8, 0x00EF, 0x00EE, 0x00EC, 0x00C4, 0x00C5,
 125:Middlewares/Third_Party/FatFs/src/option/ccsbcs.c **** 	0x00C9, 0x00E6, 0x00C6, 0x00F4, 0x00F6, 0x00F2, 0x00FB, 0x00F9,
 126:Middlewares/Third_Party/FatFs/src/option/ccsbcs.c **** 	0x00FF, 0x00D6, 0x00DC, 0x00F8, 0x00A3, 0x00D8, 0x00D7, 0x0192,
 127:Middlewares/Third_Party/FatFs/src/option/ccsbcs.c **** 	0x00E1, 0x00ED, 0x00F3, 0x00FA, 0x00F1, 0x00D1, 0x00AA, 0x00BA,
 128:Middlewares/Third_Party/FatFs/src/option/ccsbcs.c **** 	0x00BF, 0x00AE, 0x00AC, 0x00BD, 0x00BC, 0x00A1, 0x00AB, 0x00BB,
 129:Middlewares/Third_Party/FatFs/src/option/ccsbcs.c **** 	0x2591, 0x2592, 0x2593, 0x2502, 0x2524, 0x00C1, 0x00C2, 0x00C0,
 130:Middlewares/Third_Party/FatFs/src/option/ccsbcs.c **** 	0x00A9, 0x2563, 0x2551, 0x2557, 0x255D, 0x00A2, 0x00A5, 0x2510,
 131:Middlewares/Third_Party/FatFs/src/option/ccsbcs.c **** 	0x2514, 0x2534, 0x252C, 0x251C, 0x2500, 0x253C, 0x00E3, 0x00C3,
 132:Middlewares/Third_Party/FatFs/src/option/ccsbcs.c **** 	0x255A, 0x2554, 0x2569, 0x2566, 0x2560, 0x2550, 0x256C, 0x00A4,
 133:Middlewares/Third_Party/FatFs/src/option/ccsbcs.c **** 	0x00F0, 0x00D0, 0x00CA, 0x00CB, 0x00C8, 0x0131, 0x00CD, 0x00CE,
 134:Middlewares/Third_Party/FatFs/src/option/ccsbcs.c **** 	0x00CF, 0x2518, 0x250C, 0x2588, 0x2584, 0x00A6, 0x00CC, 0x2580,
 135:Middlewares/Third_Party/FatFs/src/option/ccsbcs.c **** 	0x00D3, 0x00DF, 0x00D4, 0x00D2, 0x00F5, 0x00D5, 0x00B5, 0x00FE,
 136:Middlewares/Third_Party/FatFs/src/option/ccsbcs.c **** 	0x00DE, 0x00DA, 0x00DB, 0x00D9, 0x00FD, 0x00DD, 0x00AF, 0x00B4,
 137:Middlewares/Third_Party/FatFs/src/option/ccsbcs.c **** 	0x00AD, 0x00B1, 0x2017, 0x00BE, 0x00B6, 0x00A7, 0x00F7, 0x00B8,
 138:Middlewares/Third_Party/FatFs/src/option/ccsbcs.c **** 	0x00B0, 0x00A8, 0x00B7, 0x00B9, 0x00B3, 0x00B2, 0x25A0, 0x00A0
 139:Middlewares/Third_Party/FatFs/src/option/ccsbcs.c **** };
 140:Middlewares/Third_Party/FatFs/src/option/ccsbcs.c **** 
 141:Middlewares/Third_Party/FatFs/src/option/ccsbcs.c **** #elif _CODE_PAGE == 852
 142:Middlewares/Third_Party/FatFs/src/option/ccsbcs.c **** #define _TBLDEF 1
 143:Middlewares/Third_Party/FatFs/src/option/ccsbcs.c **** static
 144:Middlewares/Third_Party/FatFs/src/option/ccsbcs.c **** const WCHAR Tbl[] = {	/*  CP852(0x80-0xFF) to Unicode conversion table */
 145:Middlewares/Third_Party/FatFs/src/option/ccsbcs.c **** 	0x00C7, 0x00FC, 0x00E9, 0x00E2, 0x00E4, 0x016F, 0x0107, 0x00E7,
ARM GAS  C:\Users\Admin\AppData\Local\Temp\ccuupvKm.s 			page 4


 146:Middlewares/Third_Party/FatFs/src/option/ccsbcs.c **** 	0x0142, 0x00EB, 0x0150, 0x0151, 0x00EE, 0x0179, 0x00C4, 0x0106,
 147:Middlewares/Third_Party/FatFs/src/option/ccsbcs.c **** 	0x00C9, 0x0139, 0x013A, 0x00F4, 0x00F6, 0x013D, 0x013E, 0x015A,
 148:Middlewares/Third_Party/FatFs/src/option/ccsbcs.c **** 	0x015B, 0x00D6, 0x00DC, 0x0164, 0x0165, 0x0141, 0x00D7, 0x010D,
 149:Middlewares/Third_Party/FatFs/src/option/ccsbcs.c **** 	0x00E1, 0x00ED, 0x00F3, 0x00FA, 0x0104, 0x0105, 0x017D, 0x017E,
 150:Middlewares/Third_Party/FatFs/src/option/ccsbcs.c **** 	0x0118, 0x0119, 0x00AC, 0x017A, 0x010C, 0x015F, 0x00AB, 0x00BB,
 151:Middlewares/Third_Party/FatFs/src/option/ccsbcs.c **** 	0x2591, 0x2592, 0x2593, 0x2502, 0x2524, 0x00C1, 0x00C2, 0x011A,
 152:Middlewares/Third_Party/FatFs/src/option/ccsbcs.c **** 	0x015E, 0x2563, 0x2551, 0x2557, 0x255D, 0x017B, 0x017C, 0x2510,
 153:Middlewares/Third_Party/FatFs/src/option/ccsbcs.c **** 	0x2514, 0x2534, 0x252C, 0x251C, 0x2500, 0x253C, 0x0102, 0x0103,
 154:Middlewares/Third_Party/FatFs/src/option/ccsbcs.c **** 	0x255A, 0x2554, 0x2569, 0x2566, 0x2560, 0x2550, 0x256C, 0x00A4,
 155:Middlewares/Third_Party/FatFs/src/option/ccsbcs.c **** 	0x0111, 0x0110, 0x010E, 0x00CB, 0x010F, 0x0147, 0x00CD, 0x00CE,
 156:Middlewares/Third_Party/FatFs/src/option/ccsbcs.c **** 	0x011B, 0x2518, 0x250C, 0x2588, 0x2584, 0x0162, 0x016E, 0x2580,
 157:Middlewares/Third_Party/FatFs/src/option/ccsbcs.c **** 	0x00D3, 0x00DF, 0x00D4, 0x0143, 0x0144, 0x0148, 0x0160, 0x0161,
 158:Middlewares/Third_Party/FatFs/src/option/ccsbcs.c **** 	0x0154, 0x00DA, 0x0155, 0x0170, 0x00FD, 0x00DD, 0x0163, 0x00B4,
 159:Middlewares/Third_Party/FatFs/src/option/ccsbcs.c **** 	0x00AD, 0x02DD, 0x02DB, 0x02C7, 0x02D8, 0x00A7, 0x00F7, 0x00B8,
 160:Middlewares/Third_Party/FatFs/src/option/ccsbcs.c **** 	0x00B0, 0x00A8, 0x02D9, 0x0171, 0x0158, 0x0159, 0x25A0, 0x00A0
 161:Middlewares/Third_Party/FatFs/src/option/ccsbcs.c **** };
 162:Middlewares/Third_Party/FatFs/src/option/ccsbcs.c **** 
 163:Middlewares/Third_Party/FatFs/src/option/ccsbcs.c **** #elif _CODE_PAGE == 855
 164:Middlewares/Third_Party/FatFs/src/option/ccsbcs.c **** #define _TBLDEF 1
 165:Middlewares/Third_Party/FatFs/src/option/ccsbcs.c **** static
 166:Middlewares/Third_Party/FatFs/src/option/ccsbcs.c **** const WCHAR Tbl[] = {	/*  CP855(0x80-0xFF) to Unicode conversion table */
 167:Middlewares/Third_Party/FatFs/src/option/ccsbcs.c **** 	0x0452, 0x0402, 0x0453, 0x0403, 0x0451, 0x0401, 0x0454, 0x0404,
 168:Middlewares/Third_Party/FatFs/src/option/ccsbcs.c **** 	0x0455, 0x0405, 0x0456, 0x0406, 0x0457, 0x0407, 0x0458, 0x0408,
 169:Middlewares/Third_Party/FatFs/src/option/ccsbcs.c **** 	0x0459, 0x0409, 0x045A, 0x040A, 0x045B, 0x040B, 0x045C, 0x040C,
 170:Middlewares/Third_Party/FatFs/src/option/ccsbcs.c **** 	0x045E, 0x040E, 0x045F, 0x040F, 0x044E, 0x042E, 0x044A, 0x042A,
 171:Middlewares/Third_Party/FatFs/src/option/ccsbcs.c **** 	0x0430, 0x0410, 0x0431, 0x0411, 0x0446, 0x0426, 0x0434, 0x0414,
 172:Middlewares/Third_Party/FatFs/src/option/ccsbcs.c **** 	0x0435, 0x0415, 0x0444, 0x0424, 0x0433, 0x0413, 0x00AB, 0x00BB,
 173:Middlewares/Third_Party/FatFs/src/option/ccsbcs.c **** 	0x2591, 0x2592, 0x2593, 0x2502, 0x2524, 0x0445, 0x0425, 0x0438,
 174:Middlewares/Third_Party/FatFs/src/option/ccsbcs.c **** 	0x0418, 0x2563, 0x2551, 0x2557, 0x255D, 0x0439, 0x0419, 0x2510,
 175:Middlewares/Third_Party/FatFs/src/option/ccsbcs.c **** 	0x2514, 0x2534, 0x252C, 0x251C, 0x2500, 0x253C, 0x043A, 0x041A,
 176:Middlewares/Third_Party/FatFs/src/option/ccsbcs.c **** 	0x255A, 0x2554, 0x2569, 0x2566, 0x2560, 0x2550, 0x256C, 0x00A4,
 177:Middlewares/Third_Party/FatFs/src/option/ccsbcs.c **** 	0x043B, 0x041B, 0x043C, 0x041C, 0x043D, 0x041D, 0x043E, 0x041E,
 178:Middlewares/Third_Party/FatFs/src/option/ccsbcs.c **** 	0x043F, 0x2518, 0x250C, 0x2588, 0x2584, 0x041F, 0x044F, 0x2580,
 179:Middlewares/Third_Party/FatFs/src/option/ccsbcs.c **** 	0x042F, 0x0440, 0x0420, 0x0441, 0x0421, 0x0442, 0x0422, 0x0443,
 180:Middlewares/Third_Party/FatFs/src/option/ccsbcs.c **** 	0x0423, 0x0436, 0x0416, 0x0432, 0x0412, 0x044C, 0x042C, 0x2116,
 181:Middlewares/Third_Party/FatFs/src/option/ccsbcs.c **** 	0x00AD, 0x044B, 0x042B, 0x0437, 0x0417, 0x0448, 0x0428, 0x044D,
 182:Middlewares/Third_Party/FatFs/src/option/ccsbcs.c **** 	0x042D, 0x0449, 0x0429, 0x0447, 0x0427, 0x00A7, 0x25A0, 0x00A0
 183:Middlewares/Third_Party/FatFs/src/option/ccsbcs.c **** };
 184:Middlewares/Third_Party/FatFs/src/option/ccsbcs.c **** 
 185:Middlewares/Third_Party/FatFs/src/option/ccsbcs.c **** #elif _CODE_PAGE == 857
 186:Middlewares/Third_Party/FatFs/src/option/ccsbcs.c **** #define _TBLDEF 1
 187:Middlewares/Third_Party/FatFs/src/option/ccsbcs.c **** static
 188:Middlewares/Third_Party/FatFs/src/option/ccsbcs.c **** const WCHAR Tbl[] = {	/*  CP857(0x80-0xFF) to Unicode conversion table */
 189:Middlewares/Third_Party/FatFs/src/option/ccsbcs.c **** 	0x00C7, 0x00FC, 0x00E9, 0x00E2, 0x00E4, 0x00E0, 0x00E5, 0x00E7,
 190:Middlewares/Third_Party/FatFs/src/option/ccsbcs.c **** 	0x00EA, 0x00EB, 0x00E8, 0x00EF, 0x00EE, 0x0131, 0x00C4, 0x00C5,
 191:Middlewares/Third_Party/FatFs/src/option/ccsbcs.c **** 	0x00C9, 0x00E6, 0x00C6, 0x00F4, 0x00F6, 0x00F2, 0x00FB, 0x00F9,
 192:Middlewares/Third_Party/FatFs/src/option/ccsbcs.c **** 	0x0130, 0x00D6, 0x00DC, 0x00F8, 0x00A3, 0x00D8, 0x015E, 0x015F,
 193:Middlewares/Third_Party/FatFs/src/option/ccsbcs.c **** 	0x00E1, 0x00ED, 0x00F3, 0x00FA, 0x00F1, 0x00D1, 0x011E, 0x011F,
 194:Middlewares/Third_Party/FatFs/src/option/ccsbcs.c **** 	0x00BF, 0x00AE, 0x00AC, 0x00BD, 0x00BC, 0x00A1, 0x00AB, 0x00BB,
 195:Middlewares/Third_Party/FatFs/src/option/ccsbcs.c **** 	0x2591, 0x2592, 0x2593, 0x2502, 0x2524, 0x00C1, 0x00C2, 0x00C0,
 196:Middlewares/Third_Party/FatFs/src/option/ccsbcs.c **** 	0x00A9, 0x2563, 0x2551, 0x2557, 0x255D, 0x00A2, 0x00A5, 0x2510,
 197:Middlewares/Third_Party/FatFs/src/option/ccsbcs.c **** 	0x2514, 0x2534, 0x252C, 0x251C, 0x2500, 0x253C, 0x00E3, 0x00C3,
 198:Middlewares/Third_Party/FatFs/src/option/ccsbcs.c **** 	0x255A, 0x2554, 0x2569, 0x2566, 0x2560, 0x2550, 0x256C, 0x00A4,
 199:Middlewares/Third_Party/FatFs/src/option/ccsbcs.c **** 	0x00BA, 0x00AA, 0x00CA, 0x00CB, 0x00C8, 0x0000, 0x00CD, 0x00CE,
 200:Middlewares/Third_Party/FatFs/src/option/ccsbcs.c **** 	0x00CF, 0x2518, 0x250C, 0x2588, 0x2584, 0x00A6, 0x00CC, 0x2580,
 201:Middlewares/Third_Party/FatFs/src/option/ccsbcs.c **** 	0x00D3, 0x00DF, 0x00D4, 0x00D2, 0x00F5, 0x00D5, 0x00B5, 0x0000,
 202:Middlewares/Third_Party/FatFs/src/option/ccsbcs.c **** 	0x00D7, 0x00DA, 0x00DB, 0x00D9, 0x00EC, 0x00FF, 0x00AF, 0x00B4,
ARM GAS  C:\Users\Admin\AppData\Local\Temp\ccuupvKm.s 			page 5


 203:Middlewares/Third_Party/FatFs/src/option/ccsbcs.c **** 	0x00AD, 0x00B1, 0x0000, 0x00BE, 0x00B6, 0x00A7, 0x00F7, 0x00B8,
 204:Middlewares/Third_Party/FatFs/src/option/ccsbcs.c **** 	0x00B0, 0x00A8, 0x00B7, 0x00B9, 0x00B3, 0x00B2, 0x25A0, 0x00A0
 205:Middlewares/Third_Party/FatFs/src/option/ccsbcs.c **** };
 206:Middlewares/Third_Party/FatFs/src/option/ccsbcs.c **** 
 207:Middlewares/Third_Party/FatFs/src/option/ccsbcs.c **** #elif _CODE_PAGE == 858
 208:Middlewares/Third_Party/FatFs/src/option/ccsbcs.c **** #define _TBLDEF 1
 209:Middlewares/Third_Party/FatFs/src/option/ccsbcs.c **** static
 210:Middlewares/Third_Party/FatFs/src/option/ccsbcs.c **** const WCHAR Tbl[] = {	/*  CP858(0x80-0xFF) to Unicode conversion table */
 211:Middlewares/Third_Party/FatFs/src/option/ccsbcs.c **** 	0x00C7, 0x00FC, 0x00E9, 0x00E2, 0x00E4, 0x00E0, 0x00E5, 0x00E7,
 212:Middlewares/Third_Party/FatFs/src/option/ccsbcs.c **** 	0x00EA, 0x00EB, 0x00E8, 0x00EF, 0x00EE, 0x00EC, 0x00C4, 0x00C5,
 213:Middlewares/Third_Party/FatFs/src/option/ccsbcs.c **** 	0x00C9, 0x00E6, 0x00C6, 0x00F4, 0x00F6, 0x00F2, 0x00FB, 0x00F9,
 214:Middlewares/Third_Party/FatFs/src/option/ccsbcs.c **** 	0x00FF, 0x00D6, 0x00DC, 0x00F8, 0x00A3, 0x00D8, 0x00D7, 0x0192,
 215:Middlewares/Third_Party/FatFs/src/option/ccsbcs.c **** 	0x00E1, 0x00ED, 0x00F3, 0x00FA, 0x00F1, 0x00D1, 0x00AA, 0x00BA,
 216:Middlewares/Third_Party/FatFs/src/option/ccsbcs.c **** 	0x00BF, 0x00AE, 0x00AC, 0x00BD, 0x00BC, 0x00A1, 0x00AB, 0x00BB,
 217:Middlewares/Third_Party/FatFs/src/option/ccsbcs.c **** 	0x2591, 0x2592, 0x2593, 0x2502, 0x2524, 0x00C1, 0x00C2, 0x00C0,
 218:Middlewares/Third_Party/FatFs/src/option/ccsbcs.c **** 	0x00A9, 0x2563, 0x2551, 0x2557, 0x2550, 0x00A2, 0x00A5, 0x2510,
 219:Middlewares/Third_Party/FatFs/src/option/ccsbcs.c **** 	0x2514, 0x2534, 0x252C, 0x251C, 0x2500, 0x253C, 0x00E3, 0x00C3,
 220:Middlewares/Third_Party/FatFs/src/option/ccsbcs.c **** 	0x255A, 0x2554, 0x2569, 0x2566, 0x2560, 0x2550, 0x256C, 0x00A4,
 221:Middlewares/Third_Party/FatFs/src/option/ccsbcs.c **** 	0x00F0, 0x00D0, 0x00CA, 0x00CB, 0x00C8, 0x20AC, 0x00CD, 0x00CE,
 222:Middlewares/Third_Party/FatFs/src/option/ccsbcs.c **** 	0x00CF, 0x2518, 0x250C, 0x2588, 0x2584, 0x00C6, 0x00CC, 0x2580,
 223:Middlewares/Third_Party/FatFs/src/option/ccsbcs.c **** 	0x00D3, 0x00DF, 0x00D4, 0x00D2, 0x00F5, 0x00D5, 0x00B5, 0x00FE,
 224:Middlewares/Third_Party/FatFs/src/option/ccsbcs.c **** 	0x00DE, 0x00DA, 0x00DB, 0x00D9, 0x00FD, 0x00DD, 0x00AF, 0x00B4,
 225:Middlewares/Third_Party/FatFs/src/option/ccsbcs.c **** 	0x00AD, 0x00B1, 0x2017, 0x00BE, 0x00B6, 0x00A7, 0x00F7, 0x00B8,
 226:Middlewares/Third_Party/FatFs/src/option/ccsbcs.c **** 	0x00B0, 0x00A8, 0x00B7, 0x00B9, 0x00B3, 0x00B2, 0x25A0, 0x00A0
 227:Middlewares/Third_Party/FatFs/src/option/ccsbcs.c **** };
 228:Middlewares/Third_Party/FatFs/src/option/ccsbcs.c **** 
 229:Middlewares/Third_Party/FatFs/src/option/ccsbcs.c **** #elif _CODE_PAGE == 862
 230:Middlewares/Third_Party/FatFs/src/option/ccsbcs.c **** #define _TBLDEF 1
 231:Middlewares/Third_Party/FatFs/src/option/ccsbcs.c **** static
 232:Middlewares/Third_Party/FatFs/src/option/ccsbcs.c **** const WCHAR Tbl[] = {	/*  CP862(0x80-0xFF) to Unicode conversion table */
 233:Middlewares/Third_Party/FatFs/src/option/ccsbcs.c **** 	0x05D0, 0x05D1, 0x05D2, 0x05D3, 0x05D4, 0x05D5, 0x05D6, 0x05D7,
 234:Middlewares/Third_Party/FatFs/src/option/ccsbcs.c **** 	0x05D8, 0x05D9, 0x05DA, 0x05DB, 0x05DC, 0x05DD, 0x05DE, 0x05DF,
 235:Middlewares/Third_Party/FatFs/src/option/ccsbcs.c **** 	0x05E0, 0x05E1, 0x05E2, 0x05E3, 0x05E4, 0x05E5, 0x05E6, 0x05E7,
 236:Middlewares/Third_Party/FatFs/src/option/ccsbcs.c **** 	0x05E8, 0x05E9, 0x05EA, 0x00A2, 0x00A3, 0x00A5, 0x20A7, 0x0192,
 237:Middlewares/Third_Party/FatFs/src/option/ccsbcs.c **** 	0x00E1, 0x00ED, 0x00F3, 0x00FA, 0x00F1, 0x00D1, 0x00AA, 0x00BA,
 238:Middlewares/Third_Party/FatFs/src/option/ccsbcs.c **** 	0x00BF, 0x2310, 0x00AC, 0x00BD, 0x00BC, 0x00A1, 0x00AB, 0x00BB,
 239:Middlewares/Third_Party/FatFs/src/option/ccsbcs.c **** 	0x2591, 0x2592, 0x2593, 0x2502, 0x2524, 0x2561, 0x2562, 0x2556,
 240:Middlewares/Third_Party/FatFs/src/option/ccsbcs.c **** 	0x2555, 0x2563, 0x2551, 0x2557, 0x255D, 0x255C, 0x255B, 0x2510,
 241:Middlewares/Third_Party/FatFs/src/option/ccsbcs.c **** 	0x2514, 0x2534, 0x252C, 0x251C, 0x2500, 0x253C, 0x255E, 0x255F,
 242:Middlewares/Third_Party/FatFs/src/option/ccsbcs.c **** 	0x255A, 0x2554, 0x2569, 0x2566, 0x2560, 0x2550, 0x256C, 0x2567,
 243:Middlewares/Third_Party/FatFs/src/option/ccsbcs.c **** 	0x2568, 0x2564, 0x2565, 0x2559, 0x2558, 0x2552, 0x2553, 0x256B,
 244:Middlewares/Third_Party/FatFs/src/option/ccsbcs.c **** 	0x256A, 0x2518, 0x250C, 0x2588, 0x2584, 0x258C, 0x2590, 0x2580,
 245:Middlewares/Third_Party/FatFs/src/option/ccsbcs.c **** 	0x03B1, 0x00DF, 0x0393, 0x03C0, 0x03A3, 0x03C3, 0x00B5, 0x03C4,
 246:Middlewares/Third_Party/FatFs/src/option/ccsbcs.c **** 	0x03A6, 0x0398, 0x03A9, 0x03B4, 0x221E, 0x03C6, 0x03B5, 0x2229,
 247:Middlewares/Third_Party/FatFs/src/option/ccsbcs.c **** 	0x2261, 0x00B1, 0x2265, 0x2264, 0x2320, 0x2321, 0x00F7, 0x2248,
 248:Middlewares/Third_Party/FatFs/src/option/ccsbcs.c **** 	0x00B0, 0x2219, 0x00B7, 0x221A, 0x207F, 0x00B2, 0x25A0, 0x00A0
 249:Middlewares/Third_Party/FatFs/src/option/ccsbcs.c **** };
 250:Middlewares/Third_Party/FatFs/src/option/ccsbcs.c **** 
 251:Middlewares/Third_Party/FatFs/src/option/ccsbcs.c **** #elif _CODE_PAGE == 866
 252:Middlewares/Third_Party/FatFs/src/option/ccsbcs.c **** #define _TBLDEF 1
 253:Middlewares/Third_Party/FatFs/src/option/ccsbcs.c **** static
 254:Middlewares/Third_Party/FatFs/src/option/ccsbcs.c **** const WCHAR Tbl[] = {	/*  CP866(0x80-0xFF) to Unicode conversion table */
 255:Middlewares/Third_Party/FatFs/src/option/ccsbcs.c **** 	0x0410, 0x0411, 0x0412, 0x0413, 0x0414, 0x0415, 0x0416, 0x0417,
 256:Middlewares/Third_Party/FatFs/src/option/ccsbcs.c **** 	0x0418, 0x0419, 0x041A, 0x041B, 0x041C, 0x041D, 0x041E, 0x041F,
 257:Middlewares/Third_Party/FatFs/src/option/ccsbcs.c **** 	0x0420, 0x0421, 0x0422, 0x0423, 0x0424, 0x0425, 0x0426, 0x0427,
 258:Middlewares/Third_Party/FatFs/src/option/ccsbcs.c **** 	0x0428, 0x0429, 0x042A, 0x042B, 0x042C, 0x042D, 0x042E, 0x042F,
 259:Middlewares/Third_Party/FatFs/src/option/ccsbcs.c **** 	0x0430, 0x0431, 0x0432, 0x0433, 0x0434, 0x0435, 0x0436, 0x0437,
ARM GAS  C:\Users\Admin\AppData\Local\Temp\ccuupvKm.s 			page 6


 260:Middlewares/Third_Party/FatFs/src/option/ccsbcs.c **** 	0x0438, 0x0439, 0x043A, 0x043B, 0x043C, 0x043D, 0x043E, 0x043F,
 261:Middlewares/Third_Party/FatFs/src/option/ccsbcs.c **** 	0x2591, 0x2592, 0x2593, 0x2502, 0x2524, 0x2561, 0x2562, 0x2556,
 262:Middlewares/Third_Party/FatFs/src/option/ccsbcs.c **** 	0x2555, 0x2563, 0x2551, 0x2557, 0x255D, 0x255C, 0x255B, 0x2510,
 263:Middlewares/Third_Party/FatFs/src/option/ccsbcs.c **** 	0x2514, 0x2534, 0x252C, 0x251C, 0x2500, 0x253C, 0x255E, 0x255F,
 264:Middlewares/Third_Party/FatFs/src/option/ccsbcs.c **** 	0x255A, 0x2554, 0x2569, 0x2566, 0x2560, 0x2550, 0x256C, 0x2567,
 265:Middlewares/Third_Party/FatFs/src/option/ccsbcs.c **** 	0x2568, 0x2564, 0x2565, 0x2559, 0x2558, 0x2552, 0x2553, 0x256B,
 266:Middlewares/Third_Party/FatFs/src/option/ccsbcs.c **** 	0x256A, 0x2518, 0x250C, 0x2588, 0x2584, 0x258C, 0x2590, 0x2580,
 267:Middlewares/Third_Party/FatFs/src/option/ccsbcs.c **** 	0x0440, 0x0441, 0x0442, 0x0443, 0x0444, 0x0445, 0x0446, 0x0447,
 268:Middlewares/Third_Party/FatFs/src/option/ccsbcs.c **** 	0x0448, 0x0449, 0x044A, 0x044B, 0x044C, 0x044D, 0x044E, 0x044F,
 269:Middlewares/Third_Party/FatFs/src/option/ccsbcs.c **** 	0x0401, 0x0451, 0x0404, 0x0454, 0x0407, 0x0457, 0x040E, 0x045E,
 270:Middlewares/Third_Party/FatFs/src/option/ccsbcs.c **** 	0x00B0, 0x2219, 0x00B7, 0x221A, 0x2116, 0x00A4, 0x25A0, 0x00A0
 271:Middlewares/Third_Party/FatFs/src/option/ccsbcs.c **** };
 272:Middlewares/Third_Party/FatFs/src/option/ccsbcs.c **** 
 273:Middlewares/Third_Party/FatFs/src/option/ccsbcs.c **** #elif _CODE_PAGE == 874
 274:Middlewares/Third_Party/FatFs/src/option/ccsbcs.c **** #define _TBLDEF 1
 275:Middlewares/Third_Party/FatFs/src/option/ccsbcs.c **** static
 276:Middlewares/Third_Party/FatFs/src/option/ccsbcs.c **** const WCHAR Tbl[] = {	/*  CP874(0x80-0xFF) to Unicode conversion table */
 277:Middlewares/Third_Party/FatFs/src/option/ccsbcs.c **** 	0x20AC, 0x0000, 0x0000, 0x0000, 0x0000, 0x2026, 0x0000, 0x0000,
 278:Middlewares/Third_Party/FatFs/src/option/ccsbcs.c **** 	0x0000, 0x0000, 0x0000, 0x0000, 0x0000, 0x0000, 0x0000, 0x0000,
 279:Middlewares/Third_Party/FatFs/src/option/ccsbcs.c **** 	0x0000, 0x2018, 0x2019, 0x201C, 0x201D, 0x2022, 0x2013, 0x2014,
 280:Middlewares/Third_Party/FatFs/src/option/ccsbcs.c **** 	0x0000, 0x0000, 0x0000, 0x0000, 0x0000, 0x0000, 0x0000, 0x0000,
 281:Middlewares/Third_Party/FatFs/src/option/ccsbcs.c **** 	0x00A0, 0x0E01, 0x0E02, 0x0E03, 0x0E04, 0x0E05, 0x0E06, 0x0E07,
 282:Middlewares/Third_Party/FatFs/src/option/ccsbcs.c **** 	0x0E08, 0x0E09, 0x0E0A, 0x0E0B, 0x0E0C, 0x0E0D, 0x0E0E, 0x0E0F,
 283:Middlewares/Third_Party/FatFs/src/option/ccsbcs.c **** 	0x0E10, 0x0E11, 0x0E12, 0x0E13, 0x0E14, 0x0E15, 0x0E16, 0x0E17,
 284:Middlewares/Third_Party/FatFs/src/option/ccsbcs.c **** 	0x0E18, 0x0E19, 0x0E1A, 0x0E1B, 0x0E1C, 0x0E1D, 0x0E1E, 0x0E1F,
 285:Middlewares/Third_Party/FatFs/src/option/ccsbcs.c **** 	0x0E20, 0x0E21, 0x0E22, 0x0E23, 0x0E24, 0x0E25, 0x0E26, 0x0E27,
 286:Middlewares/Third_Party/FatFs/src/option/ccsbcs.c **** 	0x0E28, 0x0E29, 0x0E2A, 0x0E2B, 0x0E2C, 0x0E2D, 0x0E2E, 0x0E2F,
 287:Middlewares/Third_Party/FatFs/src/option/ccsbcs.c **** 	0x0E30, 0x0E31, 0x0E32, 0x0E33, 0x0E34, 0x0E35, 0x0E36, 0x0E37,
 288:Middlewares/Third_Party/FatFs/src/option/ccsbcs.c **** 	0x0E38, 0x0E39, 0x0E3A, 0x0000, 0x0000, 0x0000, 0x0000, 0x0E3F,
 289:Middlewares/Third_Party/FatFs/src/option/ccsbcs.c **** 	0x0E40, 0x0E41, 0x0E42, 0x0E43, 0x0E44, 0x0E45, 0x0E46, 0x0E47,
 290:Middlewares/Third_Party/FatFs/src/option/ccsbcs.c **** 	0x0E48, 0x0E49, 0x0E4A, 0x0E4B, 0x0E4C, 0x0E4D, 0x0E4E, 0x0E4F,
 291:Middlewares/Third_Party/FatFs/src/option/ccsbcs.c **** 	0x0E50, 0x0E51, 0x0E52, 0x0E53, 0x0E54, 0x0E55, 0x0E56, 0x0E57,
 292:Middlewares/Third_Party/FatFs/src/option/ccsbcs.c **** 	0x0E58, 0x0E59, 0x0E5A, 0x0E5B, 0x0000, 0x0000, 0x0000, 0x0000
 293:Middlewares/Third_Party/FatFs/src/option/ccsbcs.c **** };
 294:Middlewares/Third_Party/FatFs/src/option/ccsbcs.c **** 
 295:Middlewares/Third_Party/FatFs/src/option/ccsbcs.c **** #elif _CODE_PAGE == 1250
 296:Middlewares/Third_Party/FatFs/src/option/ccsbcs.c **** #define _TBLDEF 1
 297:Middlewares/Third_Party/FatFs/src/option/ccsbcs.c **** static
 298:Middlewares/Third_Party/FatFs/src/option/ccsbcs.c **** const WCHAR Tbl[] = {	/*  CP1250(0x80-0xFF) to Unicode conversion table */
 299:Middlewares/Third_Party/FatFs/src/option/ccsbcs.c **** 	0x20AC, 0x0000, 0x201A, 0x0000, 0x201E, 0x2026, 0x2020, 0x2021,
 300:Middlewares/Third_Party/FatFs/src/option/ccsbcs.c **** 	0x0000, 0x2030, 0x0160, 0x2039, 0x015A, 0x0164, 0x017D, 0x0179,
 301:Middlewares/Third_Party/FatFs/src/option/ccsbcs.c **** 	0x0000, 0x2018, 0x2019, 0x201C, 0x201D, 0x2022, 0x2013, 0x2014,
 302:Middlewares/Third_Party/FatFs/src/option/ccsbcs.c **** 	0x0000, 0x2122, 0x0161, 0x203A, 0x015B, 0x0165, 0x017E, 0x017A,
 303:Middlewares/Third_Party/FatFs/src/option/ccsbcs.c **** 	0x00A0, 0x02C7, 0x02D8, 0x0141, 0x00A4, 0x0104, 0x00A6, 0x00A7,
 304:Middlewares/Third_Party/FatFs/src/option/ccsbcs.c **** 	0x00A8, 0x00A9, 0x015E, 0x00AB, 0x00AC, 0x00AD, 0x00AE, 0x017B,
 305:Middlewares/Third_Party/FatFs/src/option/ccsbcs.c **** 	0x00B0, 0x00B1, 0x02DB, 0x0142, 0x00B4, 0x00B5, 0x00B6, 0x00B7,
 306:Middlewares/Third_Party/FatFs/src/option/ccsbcs.c **** 	0x00B8, 0x0105, 0x015F, 0x00BB, 0x013D, 0x02DD, 0x013E, 0x017C,
 307:Middlewares/Third_Party/FatFs/src/option/ccsbcs.c **** 	0x0154, 0x00C1, 0x00C2, 0x0102, 0x00C4, 0x0139, 0x0106, 0x00C7,
 308:Middlewares/Third_Party/FatFs/src/option/ccsbcs.c **** 	0x010C, 0x00C9, 0x0118, 0x00CB, 0x011A, 0x00CD, 0x00CE, 0x010E,
 309:Middlewares/Third_Party/FatFs/src/option/ccsbcs.c **** 	0x0110, 0x0143, 0x0147, 0x00D3, 0x00D4, 0x0150, 0x00D6, 0x00D7,
 310:Middlewares/Third_Party/FatFs/src/option/ccsbcs.c **** 	0x0158, 0x016E, 0x00DA, 0x0170, 0x00DC, 0x00DD, 0x0162, 0x00DF,
 311:Middlewares/Third_Party/FatFs/src/option/ccsbcs.c **** 	0x0155, 0x00E1, 0x00E2, 0x0103, 0x00E4, 0x013A, 0x0107, 0x00E7,
 312:Middlewares/Third_Party/FatFs/src/option/ccsbcs.c **** 	0x010D, 0x00E9, 0x0119, 0x00EB, 0x011B, 0x00ED, 0x00EE, 0x010F,
 313:Middlewares/Third_Party/FatFs/src/option/ccsbcs.c **** 	0x0111, 0x0144, 0x0148, 0x00F3, 0x00F4, 0x0151, 0x00F6, 0x00F7,
 314:Middlewares/Third_Party/FatFs/src/option/ccsbcs.c **** 	0x0159, 0x016F, 0x00FA, 0x0171, 0x00FC, 0x00FD, 0x0163, 0x02D9
 315:Middlewares/Third_Party/FatFs/src/option/ccsbcs.c **** };
 316:Middlewares/Third_Party/FatFs/src/option/ccsbcs.c **** 
ARM GAS  C:\Users\Admin\AppData\Local\Temp\ccuupvKm.s 			page 7


 317:Middlewares/Third_Party/FatFs/src/option/ccsbcs.c **** #elif _CODE_PAGE == 1251
 318:Middlewares/Third_Party/FatFs/src/option/ccsbcs.c **** #define _TBLDEF 1
 319:Middlewares/Third_Party/FatFs/src/option/ccsbcs.c **** static
 320:Middlewares/Third_Party/FatFs/src/option/ccsbcs.c **** const WCHAR Tbl[] = {	/*  CP1251(0x80-0xFF) to Unicode conversion table */
 321:Middlewares/Third_Party/FatFs/src/option/ccsbcs.c **** 	0x0402, 0x0403, 0x201A, 0x0453, 0x201E, 0x2026, 0x2020, 0x2021,
 322:Middlewares/Third_Party/FatFs/src/option/ccsbcs.c **** 	0x20AC, 0x2030, 0x0409, 0x2039, 0x040A, 0x040C, 0x040B, 0x040F,
 323:Middlewares/Third_Party/FatFs/src/option/ccsbcs.c **** 	0x0452, 0x2018, 0x2019, 0x201C, 0x201D, 0x2022, 0x2013, 0x2014,
 324:Middlewares/Third_Party/FatFs/src/option/ccsbcs.c **** 	0x0000, 0x2111, 0x0459, 0x203A, 0x045A, 0x045C, 0x045B, 0x045F,
 325:Middlewares/Third_Party/FatFs/src/option/ccsbcs.c **** 	0x00A0, 0x040E, 0x045E, 0x0408, 0x00A4, 0x0490, 0x00A6, 0x00A7,
 326:Middlewares/Third_Party/FatFs/src/option/ccsbcs.c **** 	0x0401, 0x00A9, 0x0404, 0x00AB, 0x00AC, 0x00AD, 0x00AE, 0x0407,
 327:Middlewares/Third_Party/FatFs/src/option/ccsbcs.c **** 	0x00B0, 0x00B1, 0x0406, 0x0456, 0x0491, 0x00B5, 0x00B6, 0x00B7,
 328:Middlewares/Third_Party/FatFs/src/option/ccsbcs.c **** 	0x0451, 0x2116, 0x0454, 0x00BB, 0x0458, 0x0405, 0x0455, 0x0457,
 329:Middlewares/Third_Party/FatFs/src/option/ccsbcs.c **** 	0x0410, 0x0411, 0x0412, 0x0413, 0x0414, 0x0415, 0x0416, 0x0417,
 330:Middlewares/Third_Party/FatFs/src/option/ccsbcs.c **** 	0x0418, 0x0419, 0x041A, 0x041B, 0x041C, 0x041D, 0x041E, 0x041F,
 331:Middlewares/Third_Party/FatFs/src/option/ccsbcs.c **** 	0x0420, 0x0421, 0x0422, 0x0423, 0x0424, 0x0425, 0x0426, 0x0427,
 332:Middlewares/Third_Party/FatFs/src/option/ccsbcs.c **** 	0x0428, 0x0429, 0x042A, 0x042B, 0x042C, 0x042D, 0x042E, 0x042F,
 333:Middlewares/Third_Party/FatFs/src/option/ccsbcs.c **** 	0x0430, 0x0431, 0x0432, 0x0433, 0x0434, 0x0435, 0x0436, 0x0437,
 334:Middlewares/Third_Party/FatFs/src/option/ccsbcs.c **** 	0x0438, 0x0439, 0x043A, 0x043B, 0x043C, 0x043D, 0x043E, 0x043F,
 335:Middlewares/Third_Party/FatFs/src/option/ccsbcs.c **** 	0x0440, 0x0441, 0x0442, 0x0443, 0x0444, 0x0445, 0x0446, 0x0447,
 336:Middlewares/Third_Party/FatFs/src/option/ccsbcs.c **** 	0x0448, 0x0449, 0x044A, 0x044B, 0x044C, 0x044D, 0x044E, 0x044F
 337:Middlewares/Third_Party/FatFs/src/option/ccsbcs.c **** };
 338:Middlewares/Third_Party/FatFs/src/option/ccsbcs.c **** 
 339:Middlewares/Third_Party/FatFs/src/option/ccsbcs.c **** #elif _CODE_PAGE == 1252
 340:Middlewares/Third_Party/FatFs/src/option/ccsbcs.c **** #define _TBLDEF 1
 341:Middlewares/Third_Party/FatFs/src/option/ccsbcs.c **** static
 342:Middlewares/Third_Party/FatFs/src/option/ccsbcs.c **** const WCHAR Tbl[] = {	/*  CP1252(0x80-0xFF) to Unicode conversion table */
 343:Middlewares/Third_Party/FatFs/src/option/ccsbcs.c **** 	0x20AC, 0x0000, 0x201A, 0x0192, 0x201E, 0x2026, 0x2020, 0x2021,
 344:Middlewares/Third_Party/FatFs/src/option/ccsbcs.c **** 	0x02C6, 0x2030, 0x0160, 0x2039, 0x0152, 0x0000, 0x017D, 0x0000,
 345:Middlewares/Third_Party/FatFs/src/option/ccsbcs.c **** 	0x0000, 0x2018, 0x2019, 0x201C, 0x201D, 0x2022, 0x2013, 0x2014,
 346:Middlewares/Third_Party/FatFs/src/option/ccsbcs.c **** 	0x02DC, 0x2122, 0x0161, 0x203A, 0x0153, 0x0000, 0x017E, 0x0178,
 347:Middlewares/Third_Party/FatFs/src/option/ccsbcs.c **** 	0x00A0, 0x00A1, 0x00A2, 0x00A3, 0x00A4, 0x00A5, 0x00A6, 0x00A7,
 348:Middlewares/Third_Party/FatFs/src/option/ccsbcs.c **** 	0x00A8, 0x00A9, 0x00AA, 0x00AB, 0x00AC, 0x00AD, 0x00AE, 0x00AF,
 349:Middlewares/Third_Party/FatFs/src/option/ccsbcs.c **** 	0x00B0, 0x00B1, 0x00B2, 0x00B3, 0x00B4, 0x00B5, 0x00B6, 0x00B7,
 350:Middlewares/Third_Party/FatFs/src/option/ccsbcs.c **** 	0x00B8, 0x00B9, 0x00BA, 0x00BB, 0x00BC, 0x00BD, 0x00BE, 0x00BF,
 351:Middlewares/Third_Party/FatFs/src/option/ccsbcs.c **** 	0x00C0, 0x00C1, 0x00C2, 0x00C3, 0x00C4, 0x00C5, 0x00C6, 0x00C7,
 352:Middlewares/Third_Party/FatFs/src/option/ccsbcs.c **** 	0x00C8, 0x00C9, 0x00CA, 0x00CB, 0x00CC, 0x00CD, 0x00CE, 0x00CF,
 353:Middlewares/Third_Party/FatFs/src/option/ccsbcs.c **** 	0x00D0, 0x00D1, 0x00D2, 0x00D3, 0x00D4, 0x00D5, 0x00D6, 0x00D7,
 354:Middlewares/Third_Party/FatFs/src/option/ccsbcs.c **** 	0x00D8, 0x00D9, 0x00DA, 0x00DB, 0x00DC, 0x00DD, 0x00DE, 0x00DF,
 355:Middlewares/Third_Party/FatFs/src/option/ccsbcs.c **** 	0x00E0, 0x00E1, 0x00E2, 0x00E3, 0x00E4, 0x00E5, 0x00E6, 0x00E7,
 356:Middlewares/Third_Party/FatFs/src/option/ccsbcs.c **** 	0x00E8, 0x00E9, 0x00EA, 0x00EB, 0x00EC, 0x00ED, 0x00EE, 0x00EF,
 357:Middlewares/Third_Party/FatFs/src/option/ccsbcs.c **** 	0x00F0, 0x00F1, 0x00F2, 0x00F3, 0x00F4, 0x00F5, 0x00F6, 0x00F7,
 358:Middlewares/Third_Party/FatFs/src/option/ccsbcs.c **** 	0x00F8, 0x00F9, 0x00FA, 0x00FB, 0x00FC, 0x00FD, 0x00FE, 0x00FF
 359:Middlewares/Third_Party/FatFs/src/option/ccsbcs.c **** };
 360:Middlewares/Third_Party/FatFs/src/option/ccsbcs.c **** 
 361:Middlewares/Third_Party/FatFs/src/option/ccsbcs.c **** #elif _CODE_PAGE == 1253
 362:Middlewares/Third_Party/FatFs/src/option/ccsbcs.c **** #define _TBLDEF 1
 363:Middlewares/Third_Party/FatFs/src/option/ccsbcs.c **** static
 364:Middlewares/Third_Party/FatFs/src/option/ccsbcs.c **** const WCHAR Tbl[] = {	/*  CP1253(0x80-0xFF) to Unicode conversion table */
 365:Middlewares/Third_Party/FatFs/src/option/ccsbcs.c **** 	0x20AC, 0x0000, 0x201A, 0x0192, 0x201E, 0x2026, 0x2020, 0x2021,
 366:Middlewares/Third_Party/FatFs/src/option/ccsbcs.c **** 	0x0000, 0x2030, 0x0000, 0x2039, 0x000C, 0x0000, 0x0000, 0x0000,
 367:Middlewares/Third_Party/FatFs/src/option/ccsbcs.c **** 	0x0000, 0x2018, 0x2019, 0x201C, 0x201D, 0x2022, 0x2013, 0x2014,
 368:Middlewares/Third_Party/FatFs/src/option/ccsbcs.c **** 	0x0000, 0x2122, 0x0000, 0x203A, 0x0000, 0x0000, 0x0000, 0x0000,
 369:Middlewares/Third_Party/FatFs/src/option/ccsbcs.c **** 	0x00A0, 0x0385, 0x0386, 0x00A3, 0x00A4, 0x00A5, 0x00A6, 0x00A7,
 370:Middlewares/Third_Party/FatFs/src/option/ccsbcs.c **** 	0x00A8, 0x00A9, 0x0000, 0x00AB, 0x00AC, 0x00AD, 0x00AE, 0x2015,
 371:Middlewares/Third_Party/FatFs/src/option/ccsbcs.c **** 	0x00B0, 0x00B1, 0x00B2, 0x00B3, 0x0384, 0x00B5, 0x00B6, 0x00B7,
 372:Middlewares/Third_Party/FatFs/src/option/ccsbcs.c **** 	0x0388, 0x0389, 0x038A, 0x00BB, 0x038C, 0x00BD, 0x038E, 0x038F,
 373:Middlewares/Third_Party/FatFs/src/option/ccsbcs.c **** 	0x0390, 0x0391, 0x0392, 0x0393, 0x0394, 0x0395, 0x0396, 0x0397,
ARM GAS  C:\Users\Admin\AppData\Local\Temp\ccuupvKm.s 			page 8


 374:Middlewares/Third_Party/FatFs/src/option/ccsbcs.c **** 	0x0398, 0x0399, 0x039A, 0x039B, 0x039C, 0x039D, 0x039E, 0x039F,
 375:Middlewares/Third_Party/FatFs/src/option/ccsbcs.c **** 	0x03A0, 0x03A1, 0x0000, 0x03A3, 0x03A4, 0x03A5, 0x03A6, 0x03A7,
 376:Middlewares/Third_Party/FatFs/src/option/ccsbcs.c **** 	0x03A8, 0x03A9, 0x03AA, 0x03AD, 0x03AC, 0x03AD, 0x03AE, 0x03AF,
 377:Middlewares/Third_Party/FatFs/src/option/ccsbcs.c **** 	0x03B0, 0x03B1, 0x03B2, 0x03B3, 0x03B4, 0x03B5, 0x03B6, 0x03B7,
 378:Middlewares/Third_Party/FatFs/src/option/ccsbcs.c **** 	0x03B8, 0x03B9, 0x03BA, 0x03BB, 0x03BC, 0x03BD, 0x03BE, 0x03BF,
 379:Middlewares/Third_Party/FatFs/src/option/ccsbcs.c **** 	0x03C0, 0x03C1, 0x03C2, 0x03C3, 0x03C4, 0x03C5, 0x03C6, 0x03C7,
 380:Middlewares/Third_Party/FatFs/src/option/ccsbcs.c **** 	0x03C8, 0x03C9, 0x03CA, 0x03CB, 0x03CC, 0x03CD, 0x03CE, 0x0000
 381:Middlewares/Third_Party/FatFs/src/option/ccsbcs.c **** };
 382:Middlewares/Third_Party/FatFs/src/option/ccsbcs.c **** 
 383:Middlewares/Third_Party/FatFs/src/option/ccsbcs.c **** #elif _CODE_PAGE == 1254
 384:Middlewares/Third_Party/FatFs/src/option/ccsbcs.c **** #define _TBLDEF 1
 385:Middlewares/Third_Party/FatFs/src/option/ccsbcs.c **** static
 386:Middlewares/Third_Party/FatFs/src/option/ccsbcs.c **** const WCHAR Tbl[] = {	/*  CP1254(0x80-0xFF) to Unicode conversion table */
 387:Middlewares/Third_Party/FatFs/src/option/ccsbcs.c **** 	0x20AC, 0x0000, 0x210A, 0x0192, 0x201E, 0x2026, 0x2020, 0x2021,
 388:Middlewares/Third_Party/FatFs/src/option/ccsbcs.c **** 	0x02C6, 0x2030, 0x0160, 0x2039, 0x0152, 0x0000, 0x0000, 0x0000,
 389:Middlewares/Third_Party/FatFs/src/option/ccsbcs.c **** 	0x0000, 0x2018, 0x2019, 0x201C, 0x201D, 0x2022, 0x2013, 0x2014,
 390:Middlewares/Third_Party/FatFs/src/option/ccsbcs.c **** 	0x02DC, 0x2122, 0x0161, 0x203A, 0x0153, 0x0000, 0x0000, 0x0178,
 391:Middlewares/Third_Party/FatFs/src/option/ccsbcs.c **** 	0x00A0, 0x00A1, 0x00A2, 0x00A3, 0x00A4, 0x00A5, 0x00A6, 0x00A7,
 392:Middlewares/Third_Party/FatFs/src/option/ccsbcs.c **** 	0x00A8, 0x00A9, 0x00AA, 0x00AB, 0x00AC, 0x00AD, 0x00AE, 0x00AF,
 393:Middlewares/Third_Party/FatFs/src/option/ccsbcs.c **** 	0x00B0, 0x00B1, 0x00B2, 0x00B3, 0x00B4, 0x00B5, 0x00B6, 0x00B7,
 394:Middlewares/Third_Party/FatFs/src/option/ccsbcs.c **** 	0x00B8, 0x00B9, 0x00BA, 0x00BB, 0x00BC, 0x00BD, 0x00BE, 0x00BF,
 395:Middlewares/Third_Party/FatFs/src/option/ccsbcs.c **** 	0x00C0, 0x00C1, 0x00C2, 0x00C3, 0x00C4, 0x00C5, 0x00C6, 0x00C7,
 396:Middlewares/Third_Party/FatFs/src/option/ccsbcs.c **** 	0x00C8, 0x00C9, 0x00CA, 0x00CB, 0x00CC, 0x00CD, 0x00CE, 0x00CF,
 397:Middlewares/Third_Party/FatFs/src/option/ccsbcs.c **** 	0x011E, 0x00D1, 0x00D2, 0x00D3, 0x00D4, 0x00D5, 0x00D6, 0x00D7,
 398:Middlewares/Third_Party/FatFs/src/option/ccsbcs.c **** 	0x00D8, 0x00D9, 0x00DA, 0x00BD, 0x00DC, 0x0130, 0x015E, 0x00DF,
 399:Middlewares/Third_Party/FatFs/src/option/ccsbcs.c **** 	0x00E0, 0x00E1, 0x00E2, 0x00E3, 0x00E4, 0x00E5, 0x00E6, 0x00E7,
 400:Middlewares/Third_Party/FatFs/src/option/ccsbcs.c **** 	0x00E8, 0x00E9, 0x00EA, 0x00EB, 0x00EC, 0x00ED, 0x00EE, 0x00EF,
 401:Middlewares/Third_Party/FatFs/src/option/ccsbcs.c **** 	0x011F, 0x00F1, 0x00F2, 0x00F3, 0x00F4, 0x00F5, 0x00F6, 0x00F7,
 402:Middlewares/Third_Party/FatFs/src/option/ccsbcs.c **** 	0x00F8, 0x00F9, 0x00FA, 0x00FB, 0x00FC, 0x0131, 0x015F, 0x00FF
 403:Middlewares/Third_Party/FatFs/src/option/ccsbcs.c **** };
 404:Middlewares/Third_Party/FatFs/src/option/ccsbcs.c **** 
 405:Middlewares/Third_Party/FatFs/src/option/ccsbcs.c **** #elif _CODE_PAGE == 1255
 406:Middlewares/Third_Party/FatFs/src/option/ccsbcs.c **** #define _TBLDEF 1
 407:Middlewares/Third_Party/FatFs/src/option/ccsbcs.c **** static
 408:Middlewares/Third_Party/FatFs/src/option/ccsbcs.c **** const WCHAR Tbl[] = {	/*  CP1255(0x80-0xFF) to Unicode conversion table */
 409:Middlewares/Third_Party/FatFs/src/option/ccsbcs.c **** 	0x20AC, 0x0000, 0x201A, 0x0192, 0x201E, 0x2026, 0x2020, 0x2021,
 410:Middlewares/Third_Party/FatFs/src/option/ccsbcs.c **** 	0x02C6, 0x2030, 0x0000, 0x2039, 0x0000, 0x0000, 0x0000, 0x0000,
 411:Middlewares/Third_Party/FatFs/src/option/ccsbcs.c **** 	0x0000, 0x2018, 0x2019, 0x201C, 0x201D, 0x2022, 0x2013, 0x2014,
 412:Middlewares/Third_Party/FatFs/src/option/ccsbcs.c **** 	0x02DC, 0x2122, 0x0000, 0x203A, 0x0000, 0x0000, 0x0000, 0x0000,
 413:Middlewares/Third_Party/FatFs/src/option/ccsbcs.c **** 	0x00A0, 0x00A1, 0x00A2, 0x00A3, 0x00A4, 0x00A5, 0x00A6, 0x00A7,
 414:Middlewares/Third_Party/FatFs/src/option/ccsbcs.c **** 	0x00A8, 0x00A9, 0x00D7, 0x00AB, 0x00AC, 0x00AD, 0x00AE, 0x00AF,
 415:Middlewares/Third_Party/FatFs/src/option/ccsbcs.c **** 	0x00B0, 0x00B1, 0x00B2, 0x00B3, 0x00B4, 0x00B5, 0x00B6, 0x00B7,
 416:Middlewares/Third_Party/FatFs/src/option/ccsbcs.c **** 	0x00B8, 0x00B9, 0x00F7, 0x00BB, 0x00BC, 0x00BD, 0x00BE, 0x00BF,
 417:Middlewares/Third_Party/FatFs/src/option/ccsbcs.c **** 	0x05B0, 0x05B1, 0x05B2, 0x05B3, 0x05B4, 0x05B5, 0x05B6, 0x05B7,
 418:Middlewares/Third_Party/FatFs/src/option/ccsbcs.c **** 	0x05B8, 0x05B9, 0x0000, 0x05BB, 0x05BC, 0x05BD, 0x05BE, 0x05BF,
 419:Middlewares/Third_Party/FatFs/src/option/ccsbcs.c **** 	0x05C0, 0x05C1, 0x05C2, 0x05C3, 0x05F0, 0x05F1, 0x05F2, 0x05F3,
 420:Middlewares/Third_Party/FatFs/src/option/ccsbcs.c **** 	0x05F4, 0x0000, 0x0000, 0x0000, 0x0000, 0x0000, 0x0000, 0x0000,
 421:Middlewares/Third_Party/FatFs/src/option/ccsbcs.c **** 	0x05D0, 0x05D1, 0x05D2, 0x05D3, 0x05D4, 0x05D5, 0x05D6, 0x05D7,
 422:Middlewares/Third_Party/FatFs/src/option/ccsbcs.c **** 	0x05D8, 0x05D9, 0x05DA, 0x05DB, 0x05DC, 0x05DD, 0x05DE, 0x05DF,
 423:Middlewares/Third_Party/FatFs/src/option/ccsbcs.c **** 	0x05E0, 0x05E1, 0x05E2, 0x05E3, 0x05E4, 0x05E5, 0x05E6, 0x05E7,
 424:Middlewares/Third_Party/FatFs/src/option/ccsbcs.c **** 	0x05E8, 0x05E9, 0x05EA, 0x0000, 0x0000, 0x200E, 0x200F, 0x0000
 425:Middlewares/Third_Party/FatFs/src/option/ccsbcs.c **** };
 426:Middlewares/Third_Party/FatFs/src/option/ccsbcs.c **** 
 427:Middlewares/Third_Party/FatFs/src/option/ccsbcs.c **** #elif _CODE_PAGE == 1256
 428:Middlewares/Third_Party/FatFs/src/option/ccsbcs.c **** #define _TBLDEF 1
 429:Middlewares/Third_Party/FatFs/src/option/ccsbcs.c **** static
 430:Middlewares/Third_Party/FatFs/src/option/ccsbcs.c **** const WCHAR Tbl[] = {	/*  CP1256(0x80-0xFF) to Unicode conversion table */
ARM GAS  C:\Users\Admin\AppData\Local\Temp\ccuupvKm.s 			page 9


 431:Middlewares/Third_Party/FatFs/src/option/ccsbcs.c **** 	0x20AC, 0x067E, 0x201A, 0x0192, 0x201E, 0x2026, 0x2020, 0x2021,
 432:Middlewares/Third_Party/FatFs/src/option/ccsbcs.c **** 	0x02C6, 0x2030, 0x0679, 0x2039, 0x0152, 0x0686, 0x0698, 0x0688,
 433:Middlewares/Third_Party/FatFs/src/option/ccsbcs.c **** 	0x06AF, 0x2018, 0x2019, 0x201C, 0x201D, 0x2022, 0x2013, 0x2014,
 434:Middlewares/Third_Party/FatFs/src/option/ccsbcs.c **** 	0x06A9, 0x2122, 0x0691, 0x203A, 0x0153, 0x200C, 0x200D, 0x06BA,
 435:Middlewares/Third_Party/FatFs/src/option/ccsbcs.c **** 	0x00A0, 0x060C, 0x00A2, 0x00A3, 0x00A4, 0x00A5, 0x00A6, 0x00A7,
 436:Middlewares/Third_Party/FatFs/src/option/ccsbcs.c **** 	0x00A8, 0x00A9, 0x06BE, 0x00AB, 0x00AC, 0x00AD, 0x00AE, 0x00AF,
 437:Middlewares/Third_Party/FatFs/src/option/ccsbcs.c **** 	0x00B0, 0x00B1, 0x00B2, 0x00B3, 0x00B4, 0x00B5, 0x00B6, 0x00B7,
 438:Middlewares/Third_Party/FatFs/src/option/ccsbcs.c **** 	0x00B8, 0x00B9, 0x061B, 0x00BB, 0x00BC, 0x00BD, 0x00BE, 0x061F,
 439:Middlewares/Third_Party/FatFs/src/option/ccsbcs.c **** 	0x06C1, 0x0621, 0x0622, 0x0623, 0x0624, 0x0625, 0x0626, 0x0627,
 440:Middlewares/Third_Party/FatFs/src/option/ccsbcs.c **** 	0x0628, 0x0629, 0x062A, 0x062B, 0x062C, 0x062D, 0x062E, 0x062F,
 441:Middlewares/Third_Party/FatFs/src/option/ccsbcs.c **** 	0x0630, 0x0631, 0x0632, 0x0633, 0x0634, 0x0635, 0x0636, 0x00D7,
 442:Middlewares/Third_Party/FatFs/src/option/ccsbcs.c **** 	0x0637, 0x0638, 0x0639, 0x063A, 0x0640, 0x0640, 0x0642, 0x0643,
 443:Middlewares/Third_Party/FatFs/src/option/ccsbcs.c **** 	0x00E0, 0x0644, 0x00E2, 0x0645, 0x0646, 0x0647, 0x0648, 0x00E7,
 444:Middlewares/Third_Party/FatFs/src/option/ccsbcs.c **** 	0x00E8, 0x00E9, 0x00EA, 0x00EB, 0x0649, 0x064A, 0x00EE, 0x00EF,
 445:Middlewares/Third_Party/FatFs/src/option/ccsbcs.c **** 	0x064B, 0x064C, 0x064D, 0x064E, 0x00F4, 0x064F, 0x0650, 0x00F7,
 446:Middlewares/Third_Party/FatFs/src/option/ccsbcs.c **** 	0x0651, 0x00F9, 0x0652, 0x00FB, 0x00FC, 0x200E, 0x200F, 0x06D2
 447:Middlewares/Third_Party/FatFs/src/option/ccsbcs.c **** };
 448:Middlewares/Third_Party/FatFs/src/option/ccsbcs.c **** 
 449:Middlewares/Third_Party/FatFs/src/option/ccsbcs.c **** #elif _CODE_PAGE == 1257
 450:Middlewares/Third_Party/FatFs/src/option/ccsbcs.c **** #define _TBLDEF 1
 451:Middlewares/Third_Party/FatFs/src/option/ccsbcs.c **** static
 452:Middlewares/Third_Party/FatFs/src/option/ccsbcs.c **** const WCHAR Tbl[] = {	/*  CP1257(0x80-0xFF) to Unicode conversion table */
 453:Middlewares/Third_Party/FatFs/src/option/ccsbcs.c **** 	0x20AC, 0x0000, 0x201A, 0x0000, 0x201E, 0x2026, 0x2020, 0x2021,
 454:Middlewares/Third_Party/FatFs/src/option/ccsbcs.c **** 	0x0000, 0x2030, 0x0000, 0x2039, 0x0000, 0x00A8, 0x02C7, 0x00B8,
 455:Middlewares/Third_Party/FatFs/src/option/ccsbcs.c **** 	0x0000, 0x2018, 0x2019, 0x201C, 0x201D, 0x2022, 0x2013, 0x2014,
 456:Middlewares/Third_Party/FatFs/src/option/ccsbcs.c **** 	0x0000, 0x2122, 0x0000, 0x203A, 0x0000, 0x00AF, 0x02DB, 0x0000,
 457:Middlewares/Third_Party/FatFs/src/option/ccsbcs.c **** 	0x00A0, 0x0000, 0x00A2, 0x00A3, 0x00A4, 0x0000, 0x00A6, 0x00A7,
 458:Middlewares/Third_Party/FatFs/src/option/ccsbcs.c **** 	0x00D8, 0x00A9, 0x0156, 0x00AB, 0x00AC, 0x00AD, 0x00AE, 0x00AF,
 459:Middlewares/Third_Party/FatFs/src/option/ccsbcs.c **** 	0x00B0, 0x00B1, 0x00B2, 0x00B3, 0x00B4, 0x00B5, 0x00B6, 0x00B7,
 460:Middlewares/Third_Party/FatFs/src/option/ccsbcs.c **** 	0x00B8, 0x00B9, 0x0157, 0x00BB, 0x00BC, 0x00BD, 0x00BE, 0x00E6,
 461:Middlewares/Third_Party/FatFs/src/option/ccsbcs.c **** 	0x0104, 0x012E, 0x0100, 0x0106, 0x00C4, 0x00C5, 0x0118, 0x0112,
 462:Middlewares/Third_Party/FatFs/src/option/ccsbcs.c **** 	0x010C, 0x00C9, 0x0179, 0x0116, 0x0122, 0x0136, 0x012A, 0x013B,
 463:Middlewares/Third_Party/FatFs/src/option/ccsbcs.c **** 	0x0160, 0x0143, 0x0145, 0x00D3, 0x014C, 0x00D5, 0x00D6, 0x00D7,
 464:Middlewares/Third_Party/FatFs/src/option/ccsbcs.c **** 	0x0172, 0x0141, 0x015A, 0x016A, 0x00DC, 0x017B, 0x017D, 0x00DF,
 465:Middlewares/Third_Party/FatFs/src/option/ccsbcs.c **** 	0x0105, 0x012F, 0x0101, 0x0107, 0x00E4, 0x00E5, 0x0119, 0x0113,
 466:Middlewares/Third_Party/FatFs/src/option/ccsbcs.c **** 	0x010D, 0x00E9, 0x017A, 0x0117, 0x0123, 0x0137, 0x012B, 0x013C,
 467:Middlewares/Third_Party/FatFs/src/option/ccsbcs.c **** 	0x0161, 0x0144, 0x0146, 0x00F3, 0x014D, 0x00F5, 0x00F6, 0x00F7,
 468:Middlewares/Third_Party/FatFs/src/option/ccsbcs.c **** 	0x0173, 0x014E, 0x015B, 0x016B, 0x00FC, 0x017C, 0x017E, 0x02D9
 469:Middlewares/Third_Party/FatFs/src/option/ccsbcs.c **** };
 470:Middlewares/Third_Party/FatFs/src/option/ccsbcs.c **** 
 471:Middlewares/Third_Party/FatFs/src/option/ccsbcs.c **** #elif _CODE_PAGE == 1258
 472:Middlewares/Third_Party/FatFs/src/option/ccsbcs.c **** #define _TBLDEF 1
 473:Middlewares/Third_Party/FatFs/src/option/ccsbcs.c **** static
 474:Middlewares/Third_Party/FatFs/src/option/ccsbcs.c **** const WCHAR Tbl[] = {	/*  CP1258(0x80-0xFF) to Unicode conversion table */
 475:Middlewares/Third_Party/FatFs/src/option/ccsbcs.c **** 	0x20AC, 0x0000, 0x201A, 0x0192, 0x201E, 0x2026, 0x2020, 0x2021,
 476:Middlewares/Third_Party/FatFs/src/option/ccsbcs.c **** 	0x02C6, 0x2030, 0x0000, 0x2039, 0x0152, 0x0000, 0x0000, 0x0000,
 477:Middlewares/Third_Party/FatFs/src/option/ccsbcs.c **** 	0x0000, 0x2018, 0x2019, 0x201C, 0x201D, 0x2022, 0x2013, 0x2014,
 478:Middlewares/Third_Party/FatFs/src/option/ccsbcs.c **** 	0x02DC, 0x2122, 0x0000, 0x203A, 0x0153, 0x0000, 0x0000, 0x0178,
 479:Middlewares/Third_Party/FatFs/src/option/ccsbcs.c **** 	0x00A0, 0x00A1, 0x00A2, 0x00A3, 0x00A4, 0x00A5, 0x00A6, 0x00A7,
 480:Middlewares/Third_Party/FatFs/src/option/ccsbcs.c **** 	0x00A8, 0x00A9, 0x00AA, 0x00AB, 0x00AC, 0x00AD, 0x00AE, 0x00AF,
 481:Middlewares/Third_Party/FatFs/src/option/ccsbcs.c **** 	0x00B0, 0x00B1, 0x00B2, 0x00B3, 0x00B4, 0x00B5, 0x00B6, 0x00B7,
 482:Middlewares/Third_Party/FatFs/src/option/ccsbcs.c **** 	0x00B8, 0x00B9, 0x00BA, 0x00BB, 0x00BC, 0x00BD, 0x00BE, 0x00BF,
 483:Middlewares/Third_Party/FatFs/src/option/ccsbcs.c **** 	0x00C0, 0x00C1, 0x00C2, 0x0102, 0x00C4, 0x00C5, 0x00C6, 0x00C7,
 484:Middlewares/Third_Party/FatFs/src/option/ccsbcs.c **** 	0x00C8, 0x00C9, 0x00CA, 0x00CB, 0x0300, 0x00CD, 0x00CE, 0x00CF,
 485:Middlewares/Third_Party/FatFs/src/option/ccsbcs.c **** 	0x0110, 0x00D1, 0x0309, 0x00D3, 0x00D4, 0x01A0, 0x00D6, 0x00D7,
 486:Middlewares/Third_Party/FatFs/src/option/ccsbcs.c **** 	0x00D8, 0x00D9, 0x00DA, 0x00DB, 0x00DC, 0x01AF, 0x0303, 0x00DF,
 487:Middlewares/Third_Party/FatFs/src/option/ccsbcs.c **** 	0x00E0, 0x00E1, 0x00E2, 0x0103, 0x00E4, 0x00E5, 0x00E6, 0x00E7,
ARM GAS  C:\Users\Admin\AppData\Local\Temp\ccuupvKm.s 			page 10


 488:Middlewares/Third_Party/FatFs/src/option/ccsbcs.c **** 	0x00E8, 0x00E9, 0x00EA, 0x00EB, 0x0301, 0x00ED, 0x00EE, 0x00EF,
 489:Middlewares/Third_Party/FatFs/src/option/ccsbcs.c **** 	0x0111, 0x00F1, 0x0323, 0x00F3, 0x00F4, 0x01A1, 0x00F6, 0x00F7,
 490:Middlewares/Third_Party/FatFs/src/option/ccsbcs.c **** 	0x00F8, 0x00F9, 0x00FA, 0x00FB, 0x00FC, 0x01B0, 0x20AB, 0x00FF
 491:Middlewares/Third_Party/FatFs/src/option/ccsbcs.c **** };
 492:Middlewares/Third_Party/FatFs/src/option/ccsbcs.c **** 
 493:Middlewares/Third_Party/FatFs/src/option/ccsbcs.c **** #endif
 494:Middlewares/Third_Party/FatFs/src/option/ccsbcs.c **** 
 495:Middlewares/Third_Party/FatFs/src/option/ccsbcs.c **** 
 496:Middlewares/Third_Party/FatFs/src/option/ccsbcs.c **** #if !_TBLDEF || !_USE_LFN
 497:Middlewares/Third_Party/FatFs/src/option/ccsbcs.c **** #error This file is not needed in current configuration. Remove from the project.
 498:Middlewares/Third_Party/FatFs/src/option/ccsbcs.c **** #endif
 499:Middlewares/Third_Party/FatFs/src/option/ccsbcs.c **** 
 500:Middlewares/Third_Party/FatFs/src/option/ccsbcs.c **** 
 501:Middlewares/Third_Party/FatFs/src/option/ccsbcs.c **** WCHAR ff_convert (	/* Converted character, Returns zero on error */
 502:Middlewares/Third_Party/FatFs/src/option/ccsbcs.c **** 	WCHAR	chr,	/* Character code to be converted */
 503:Middlewares/Third_Party/FatFs/src/option/ccsbcs.c **** 	UINT	dir		/* 0: Unicode to OEMCP, 1: OEMCP to Unicode */
 504:Middlewares/Third_Party/FatFs/src/option/ccsbcs.c **** )
 505:Middlewares/Third_Party/FatFs/src/option/ccsbcs.c **** {
  28              		.loc 1 505 1 view -0
  29              		.cfi_startproc
  30              		@ args = 0, pretend = 0, frame = 0
  31              		@ frame_needed = 0, uses_anonymous_args = 0
  32              		@ link register save eliminated.
 506:Middlewares/Third_Party/FatFs/src/option/ccsbcs.c **** 	WCHAR c;
  33              		.loc 1 506 2 view .LVU1
 507:Middlewares/Third_Party/FatFs/src/option/ccsbcs.c **** 
 508:Middlewares/Third_Party/FatFs/src/option/ccsbcs.c **** 
 509:Middlewares/Third_Party/FatFs/src/option/ccsbcs.c **** 	if (chr < 0x80) {	/* ASCII */
  34              		.loc 1 509 2 view .LVU2
  35              		.loc 1 509 5 is_stmt 0 view .LVU3
  36 0000 7F28     		cmp	r0, #127
  37 0002 17D9     		bls	.L2
 510:Middlewares/Third_Party/FatFs/src/option/ccsbcs.c **** 		c = chr;
 511:Middlewares/Third_Party/FatFs/src/option/ccsbcs.c **** 
 512:Middlewares/Third_Party/FatFs/src/option/ccsbcs.c **** 	} else {
 513:Middlewares/Third_Party/FatFs/src/option/ccsbcs.c **** 		if (dir) {		/* OEMCP to Unicode */
  38              		.loc 1 513 3 is_stmt 1 view .LVU4
  39              		.loc 1 513 6 is_stmt 0 view .LVU5
  40 0004 31B1     		cbz	r1, .L6
 514:Middlewares/Third_Party/FatFs/src/option/ccsbcs.c **** 			c = (chr >= 0x100) ? 0 : Tbl[chr - 0x80];
  41              		.loc 1 514 4 is_stmt 1 view .LVU6
  42              		.loc 1 514 6 is_stmt 0 view .LVU7
  43 0006 FF28     		cmp	r0, #255
  44 0008 13D8     		bhi	.L7
  45              		.loc 1 514 37 discriminator 1 view .LVU8
  46 000a 8038     		subs	r0, r0, #128
  47              	.LVL1:
  48              		.loc 1 514 6 discriminator 1 view .LVU9
  49 000c 0A4B     		ldr	r3, .L8
  50 000e 33F81000 		ldrh	r0, [r3, r0, lsl #1]
  51 0012 7047     		bx	lr
  52              	.LVL2:
  53              	.L6:
 515:Middlewares/Third_Party/FatFs/src/option/ccsbcs.c **** 
 516:Middlewares/Third_Party/FatFs/src/option/ccsbcs.c **** 		} else {		/* Unicode to OEMCP */
 517:Middlewares/Third_Party/FatFs/src/option/ccsbcs.c **** 			for (c = 0; c < 0x80; c++) {
  54              		.loc 1 517 11 view .LVU10
ARM GAS  C:\Users\Admin\AppData\Local\Temp\ccuupvKm.s 			page 11


  55 0014 0023     		movs	r3, #0
  56              	.L3:
  57              	.LVL3:
  58              		.loc 1 517 16 is_stmt 1 discriminator 1 view .LVU11
  59              		.loc 1 517 4 is_stmt 0 discriminator 1 view .LVU12
  60 0016 7F2B     		cmp	r3, #127
  61 0018 07D8     		bhi	.L4
 518:Middlewares/Third_Party/FatFs/src/option/ccsbcs.c **** 				if (chr == Tbl[c]) break;
  62              		.loc 1 518 5 is_stmt 1 view .LVU13
  63              		.loc 1 518 19 is_stmt 0 view .LVU14
  64 001a 074A     		ldr	r2, .L8
  65 001c 32F81320 		ldrh	r2, [r2, r3, lsl #1]
  66              		.loc 1 518 8 view .LVU15
  67 0020 8242     		cmp	r2, r0
  68 0022 02D0     		beq	.L4
 517:Middlewares/Third_Party/FatFs/src/option/ccsbcs.c **** 				if (chr == Tbl[c]) break;
  69              		.loc 1 517 26 is_stmt 1 discriminator 2 view .LVU16
 517:Middlewares/Third_Party/FatFs/src/option/ccsbcs.c **** 				if (chr == Tbl[c]) break;
  70              		.loc 1 517 27 is_stmt 0 discriminator 2 view .LVU17
  71 0024 0133     		adds	r3, r3, #1
  72              	.LVL4:
 517:Middlewares/Third_Party/FatFs/src/option/ccsbcs.c **** 				if (chr == Tbl[c]) break;
  73              		.loc 1 517 27 discriminator 2 view .LVU18
  74 0026 9BB2     		uxth	r3, r3
  75              	.LVL5:
 517:Middlewares/Third_Party/FatFs/src/option/ccsbcs.c **** 				if (chr == Tbl[c]) break;
  76              		.loc 1 517 27 discriminator 2 view .LVU19
  77 0028 F5E7     		b	.L3
  78              	.L4:
 519:Middlewares/Third_Party/FatFs/src/option/ccsbcs.c **** 			}
 520:Middlewares/Third_Party/FatFs/src/option/ccsbcs.c **** 			c = (c + 0x80) & 0xFF;
  79              		.loc 1 520 4 is_stmt 1 view .LVU20
  80              		.loc 1 520 11 is_stmt 0 view .LVU21
  81 002a 03F18000 		add	r0, r3, #128
  82              	.LVL6:
  83              		.loc 1 520 6 view .LVU22
  84 002e C0B2     		uxtb	r0, r0
  85              	.LVL7:
  86              		.loc 1 520 6 view .LVU23
  87 0030 7047     		bx	lr
  88              	.LVL8:
  89              	.L7:
 514:Middlewares/Third_Party/FatFs/src/option/ccsbcs.c **** 
  90              		.loc 1 514 6 view .LVU24
  91 0032 0020     		movs	r0, #0
  92              	.LVL9:
  93              	.L2:
 521:Middlewares/Third_Party/FatFs/src/option/ccsbcs.c **** 		}
 522:Middlewares/Third_Party/FatFs/src/option/ccsbcs.c **** 	}
 523:Middlewares/Third_Party/FatFs/src/option/ccsbcs.c **** 
 524:Middlewares/Third_Party/FatFs/src/option/ccsbcs.c **** 	return c;
  94              		.loc 1 524 2 is_stmt 1 view .LVU25
 525:Middlewares/Third_Party/FatFs/src/option/ccsbcs.c **** }
  95              		.loc 1 525 1 is_stmt 0 view .LVU26
  96 0034 7047     		bx	lr
  97              	.L9:
  98 0036 00BF     		.align	2
ARM GAS  C:\Users\Admin\AppData\Local\Temp\ccuupvKm.s 			page 12


  99              	.L8:
 100 0038 00000000 		.word	.LANCHOR0
 101              		.cfi_endproc
 102              	.LFE65:
 104              		.section	.text.ff_wtoupper,"ax",%progbits
 105              		.align	1
 106              		.global	ff_wtoupper
 107              		.syntax unified
 108              		.thumb
 109              		.thumb_func
 111              	ff_wtoupper:
 112              	.LVL10:
 113              	.LFB66:
 526:Middlewares/Third_Party/FatFs/src/option/ccsbcs.c **** 
 527:Middlewares/Third_Party/FatFs/src/option/ccsbcs.c **** 
 528:Middlewares/Third_Party/FatFs/src/option/ccsbcs.c **** WCHAR ff_wtoupper (	/* Upper converted character */
 529:Middlewares/Third_Party/FatFs/src/option/ccsbcs.c **** 	WCHAR chr		/* Input character */
 530:Middlewares/Third_Party/FatFs/src/option/ccsbcs.c **** )
 531:Middlewares/Third_Party/FatFs/src/option/ccsbcs.c **** {
 114              		.loc 1 531 1 is_stmt 1 view -0
 115              		.cfi_startproc
 116              		@ args = 0, pretend = 0, frame = 0
 117              		@ frame_needed = 0, uses_anonymous_args = 0
 118              		@ link register save eliminated.
 532:Middlewares/Third_Party/FatFs/src/option/ccsbcs.c **** 	static const WCHAR tbl_lower[] = { 0x61, 0x62, 0x63, 0x64, 0x65, 0x66, 0x67, 0x68, 0x69, 0x6A, 0x6
 119              		.loc 1 532 2 view .LVU28
 533:Middlewares/Third_Party/FatFs/src/option/ccsbcs.c **** 	static const WCHAR tbl_upper[] = { 0x41, 0x42, 0x43, 0x44, 0x45, 0x46, 0x47, 0x48, 0x49, 0x4A, 0x4
 120              		.loc 1 533 2 view .LVU29
 534:Middlewares/Third_Party/FatFs/src/option/ccsbcs.c **** 	int i;
 121              		.loc 1 534 2 view .LVU30
 535:Middlewares/Third_Party/FatFs/src/option/ccsbcs.c **** 
 536:Middlewares/Third_Party/FatFs/src/option/ccsbcs.c **** 
 537:Middlewares/Third_Party/FatFs/src/option/ccsbcs.c **** 	for (i = 0; tbl_lower[i] && chr != tbl_lower[i]; i++) ;
 122              		.loc 1 537 2 view .LVU31
 123              		.loc 1 537 9 is_stmt 0 view .LVU32
 124 0000 0022     		movs	r2, #0
 125              		.loc 1 537 2 view .LVU33
 126 0002 00E0     		b	.L11
 127              	.LVL11:
 128              	.L13:
 129              		.loc 1 537 56 is_stmt 1 discriminator 4 view .LVU34
 130              		.loc 1 537 51 discriminator 4 view .LVU35
 131              		.loc 1 537 52 is_stmt 0 discriminator 4 view .LVU36
 132 0004 0132     		adds	r2, r2, #1
 133              	.LVL12:
 134              	.L11:
 135              		.loc 1 537 14 is_stmt 1 discriminator 1 view .LVU37
 136              		.loc 1 537 23 is_stmt 0 discriminator 1 view .LVU38
 137 0006 054B     		ldr	r3, .L15
 138 0008 33F81230 		ldrh	r3, [r3, r2, lsl #1]
 139              		.loc 1 537 2 discriminator 1 view .LVU39
 140 000c 0BB1     		cbz	r3, .L12
 141              		.loc 1 537 27 discriminator 3 view .LVU40
 142 000e 8342     		cmp	r3, r0
 143 0010 F8D1     		bne	.L13
 144              	.L12:
 538:Middlewares/Third_Party/FatFs/src/option/ccsbcs.c **** 
ARM GAS  C:\Users\Admin\AppData\Local\Temp\ccuupvKm.s 			page 13


 539:Middlewares/Third_Party/FatFs/src/option/ccsbcs.c **** 	return tbl_lower[i] ? tbl_upper[i] : chr;
 145              		.loc 1 539 2 is_stmt 1 view .LVU41
 146              		.loc 1 539 37 is_stmt 0 view .LVU42
 147 0012 13B1     		cbz	r3, .L14
 148              		.loc 1 539 37 discriminator 1 view .LVU43
 149 0014 024B     		ldr	r3, .L15+4
 150 0016 33F81200 		ldrh	r0, [r3, r2, lsl #1]
 151              	.LVL13:
 152              	.L14:
 540:Middlewares/Third_Party/FatFs/src/option/ccsbcs.c **** }
 153              		.loc 1 540 1 discriminator 4 view .LVU44
 154 001a 7047     		bx	lr
 155              	.L16:
 156              		.align	2
 157              	.L15:
 158 001c 00000000 		.word	.LANCHOR1
 159 0020 00000000 		.word	.LANCHOR2
 160              		.cfi_endproc
 161              	.LFE66:
 163              		.section	.rodata.Tbl,"a"
 164              		.align	2
 165              		.set	.LANCHOR0,. + 0
 168              	Tbl:
 169 0000 C700     		.short	199
 170 0002 FC00     		.short	252
 171 0004 E900     		.short	233
 172 0006 E200     		.short	226
 173 0008 E400     		.short	228
 174 000a E000     		.short	224
 175 000c E500     		.short	229
 176 000e E700     		.short	231
 177 0010 EA00     		.short	234
 178 0012 EB00     		.short	235
 179 0014 E800     		.short	232
 180 0016 EF00     		.short	239
 181 0018 EE00     		.short	238
 182 001a EC00     		.short	236
 183 001c C400     		.short	196
 184 001e C500     		.short	197
 185 0020 C900     		.short	201
 186 0022 E600     		.short	230
 187 0024 C600     		.short	198
 188 0026 F400     		.short	244
 189 0028 F600     		.short	246
 190 002a F200     		.short	242
 191 002c FB00     		.short	251
 192 002e F900     		.short	249
 193 0030 FF00     		.short	255
 194 0032 D600     		.short	214
 195 0034 DC00     		.short	220
 196 0036 F800     		.short	248
 197 0038 A300     		.short	163
 198 003a D800     		.short	216
 199 003c D700     		.short	215
 200 003e 9201     		.short	402
 201 0040 E100     		.short	225
 202 0042 ED00     		.short	237
ARM GAS  C:\Users\Admin\AppData\Local\Temp\ccuupvKm.s 			page 14


 203 0044 F300     		.short	243
 204 0046 FA00     		.short	250
 205 0048 F100     		.short	241
 206 004a D100     		.short	209
 207 004c AA00     		.short	170
 208 004e BA00     		.short	186
 209 0050 BF00     		.short	191
 210 0052 AE00     		.short	174
 211 0054 AC00     		.short	172
 212 0056 BD00     		.short	189
 213 0058 BC00     		.short	188
 214 005a A100     		.short	161
 215 005c AB00     		.short	171
 216 005e BB00     		.short	187
 217 0060 9125     		.short	9617
 218 0062 9225     		.short	9618
 219 0064 9325     		.short	9619
 220 0066 0225     		.short	9474
 221 0068 2425     		.short	9508
 222 006a C100     		.short	193
 223 006c C200     		.short	194
 224 006e C000     		.short	192
 225 0070 A900     		.short	169
 226 0072 6325     		.short	9571
 227 0074 5125     		.short	9553
 228 0076 5725     		.short	9559
 229 0078 5D25     		.short	9565
 230 007a A200     		.short	162
 231 007c A500     		.short	165
 232 007e 1025     		.short	9488
 233 0080 1425     		.short	9492
 234 0082 3425     		.short	9524
 235 0084 2C25     		.short	9516
 236 0086 1C25     		.short	9500
 237 0088 0025     		.short	9472
 238 008a 3C25     		.short	9532
 239 008c E300     		.short	227
 240 008e C300     		.short	195
 241 0090 5A25     		.short	9562
 242 0092 5425     		.short	9556
 243 0094 6925     		.short	9577
 244 0096 6625     		.short	9574
 245 0098 6025     		.short	9568
 246 009a 5025     		.short	9552
 247 009c 6C25     		.short	9580
 248 009e A400     		.short	164
 249 00a0 F000     		.short	240
 250 00a2 D000     		.short	208
 251 00a4 CA00     		.short	202
 252 00a6 CB00     		.short	203
 253 00a8 C800     		.short	200
 254 00aa 3101     		.short	305
 255 00ac CD00     		.short	205
 256 00ae CE00     		.short	206
 257 00b0 CF00     		.short	207
 258 00b2 1825     		.short	9496
 259 00b4 0C25     		.short	9484
ARM GAS  C:\Users\Admin\AppData\Local\Temp\ccuupvKm.s 			page 15


 260 00b6 8825     		.short	9608
 261 00b8 8425     		.short	9604
 262 00ba A600     		.short	166
 263 00bc CC00     		.short	204
 264 00be 8025     		.short	9600
 265 00c0 D300     		.short	211
 266 00c2 DF00     		.short	223
 267 00c4 D400     		.short	212
 268 00c6 D200     		.short	210
 269 00c8 F500     		.short	245
 270 00ca D500     		.short	213
 271 00cc B500     		.short	181
 272 00ce FE00     		.short	254
 273 00d0 DE00     		.short	222
 274 00d2 DA00     		.short	218
 275 00d4 DB00     		.short	219
 276 00d6 D900     		.short	217
 277 00d8 FD00     		.short	253
 278 00da DD00     		.short	221
 279 00dc AF00     		.short	175
 280 00de B400     		.short	180
 281 00e0 AD00     		.short	173
 282 00e2 B100     		.short	177
 283 00e4 1720     		.short	8215
 284 00e6 BE00     		.short	190
 285 00e8 B600     		.short	182
 286 00ea A700     		.short	167
 287 00ec F700     		.short	247
 288 00ee B800     		.short	184
 289 00f0 B000     		.short	176
 290 00f2 A800     		.short	168
 291 00f4 B700     		.short	183
 292 00f6 B900     		.short	185
 293 00f8 B300     		.short	179
 294 00fa B200     		.short	178
 295 00fc A025     		.short	9632
 296 00fe A000     		.short	160
 297              		.section	.rodata.tbl_lower.1,"a"
 298              		.align	2
 299              		.set	.LANCHOR1,. + 0
 302              	tbl_lower.1:
 303 0000 6100     		.short	97
 304 0002 6200     		.short	98
 305 0004 6300     		.short	99
 306 0006 6400     		.short	100
 307 0008 6500     		.short	101
 308 000a 6600     		.short	102
 309 000c 6700     		.short	103
 310 000e 6800     		.short	104
 311 0010 6900     		.short	105
 312 0012 6A00     		.short	106
 313 0014 6B00     		.short	107
 314 0016 6C00     		.short	108
 315 0018 6D00     		.short	109
 316 001a 6E00     		.short	110
 317 001c 6F00     		.short	111
 318 001e 7000     		.short	112
ARM GAS  C:\Users\Admin\AppData\Local\Temp\ccuupvKm.s 			page 16


 319 0020 7100     		.short	113
 320 0022 7200     		.short	114
 321 0024 7300     		.short	115
 322 0026 7400     		.short	116
 323 0028 7500     		.short	117
 324 002a 7600     		.short	118
 325 002c 7700     		.short	119
 326 002e 7800     		.short	120
 327 0030 7900     		.short	121
 328 0032 7A00     		.short	122
 329 0034 A100     		.short	161
 330 0036 A200     		.short	162
 331 0038 A300     		.short	163
 332 003a A500     		.short	165
 333 003c AC00     		.short	172
 334 003e AF00     		.short	175
 335 0040 E000     		.short	224
 336 0042 E100     		.short	225
 337 0044 E200     		.short	226
 338 0046 E300     		.short	227
 339 0048 E400     		.short	228
 340 004a E500     		.short	229
 341 004c E600     		.short	230
 342 004e E700     		.short	231
 343 0050 E800     		.short	232
 344 0052 E900     		.short	233
 345 0054 EA00     		.short	234
 346 0056 EB00     		.short	235
 347 0058 EC00     		.short	236
 348 005a ED00     		.short	237
 349 005c EE00     		.short	238
 350 005e EF00     		.short	239
 351 0060 F000     		.short	240
 352 0062 F100     		.short	241
 353 0064 F200     		.short	242
 354 0066 F300     		.short	243
 355 0068 F400     		.short	244
 356 006a F500     		.short	245
 357 006c F600     		.short	246
 358 006e F800     		.short	248
 359 0070 F900     		.short	249
 360 0072 FA00     		.short	250
 361 0074 FB00     		.short	251
 362 0076 FC00     		.short	252
 363 0078 FD00     		.short	253
 364 007a FE00     		.short	254
 365 007c FF00     		.short	255
 366 007e 0101     		.short	257
 367 0080 0301     		.short	259
 368 0082 0501     		.short	261
 369 0084 0701     		.short	263
 370 0086 0901     		.short	265
 371 0088 0B01     		.short	267
 372 008a 0D01     		.short	269
 373 008c 0F01     		.short	271
 374 008e 1101     		.short	273
 375 0090 1301     		.short	275
ARM GAS  C:\Users\Admin\AppData\Local\Temp\ccuupvKm.s 			page 17


 376 0092 1501     		.short	277
 377 0094 1701     		.short	279
 378 0096 1901     		.short	281
 379 0098 1B01     		.short	283
 380 009a 1D01     		.short	285
 381 009c 1F01     		.short	287
 382 009e 2101     		.short	289
 383 00a0 2301     		.short	291
 384 00a2 2501     		.short	293
 385 00a4 2701     		.short	295
 386 00a6 2901     		.short	297
 387 00a8 2B01     		.short	299
 388 00aa 2D01     		.short	301
 389 00ac 2F01     		.short	303
 390 00ae 3101     		.short	305
 391 00b0 3301     		.short	307
 392 00b2 3501     		.short	309
 393 00b4 3701     		.short	311
 394 00b6 3A01     		.short	314
 395 00b8 3C01     		.short	316
 396 00ba 3E01     		.short	318
 397 00bc 4001     		.short	320
 398 00be 4201     		.short	322
 399 00c0 4401     		.short	324
 400 00c2 4601     		.short	326
 401 00c4 4801     		.short	328
 402 00c6 4B01     		.short	331
 403 00c8 4D01     		.short	333
 404 00ca 4F01     		.short	335
 405 00cc 5101     		.short	337
 406 00ce 5301     		.short	339
 407 00d0 5501     		.short	341
 408 00d2 5701     		.short	343
 409 00d4 5901     		.short	345
 410 00d6 5B01     		.short	347
 411 00d8 5D01     		.short	349
 412 00da 5F01     		.short	351
 413 00dc 6101     		.short	353
 414 00de 6301     		.short	355
 415 00e0 6501     		.short	357
 416 00e2 6701     		.short	359
 417 00e4 6901     		.short	361
 418 00e6 6B01     		.short	363
 419 00e8 6D01     		.short	365
 420 00ea 6F01     		.short	367
 421 00ec 7101     		.short	369
 422 00ee 7301     		.short	371
 423 00f0 7501     		.short	373
 424 00f2 7701     		.short	375
 425 00f4 7A01     		.short	378
 426 00f6 7C01     		.short	380
 427 00f8 7E01     		.short	382
 428 00fa 9201     		.short	402
 429 00fc B103     		.short	945
 430 00fe B203     		.short	946
 431 0100 B303     		.short	947
 432 0102 B403     		.short	948
ARM GAS  C:\Users\Admin\AppData\Local\Temp\ccuupvKm.s 			page 18


 433 0104 B503     		.short	949
 434 0106 B603     		.short	950
 435 0108 B703     		.short	951
 436 010a B803     		.short	952
 437 010c B903     		.short	953
 438 010e BA03     		.short	954
 439 0110 BB03     		.short	955
 440 0112 BC03     		.short	956
 441 0114 BD03     		.short	957
 442 0116 BE03     		.short	958
 443 0118 BF03     		.short	959
 444 011a C003     		.short	960
 445 011c C103     		.short	961
 446 011e C303     		.short	963
 447 0120 C403     		.short	964
 448 0122 C503     		.short	965
 449 0124 C603     		.short	966
 450 0126 C703     		.short	967
 451 0128 C803     		.short	968
 452 012a C903     		.short	969
 453 012c CA03     		.short	970
 454 012e 3004     		.short	1072
 455 0130 3104     		.short	1073
 456 0132 3204     		.short	1074
 457 0134 3304     		.short	1075
 458 0136 3404     		.short	1076
 459 0138 3504     		.short	1077
 460 013a 3604     		.short	1078
 461 013c 3704     		.short	1079
 462 013e 3804     		.short	1080
 463 0140 3904     		.short	1081
 464 0142 3A04     		.short	1082
 465 0144 3B04     		.short	1083
 466 0146 3C04     		.short	1084
 467 0148 3D04     		.short	1085
 468 014a 3E04     		.short	1086
 469 014c 3F04     		.short	1087
 470 014e 4004     		.short	1088
 471 0150 4104     		.short	1089
 472 0152 4204     		.short	1090
 473 0154 4304     		.short	1091
 474 0156 4404     		.short	1092
 475 0158 4504     		.short	1093
 476 015a 4604     		.short	1094
 477 015c 4704     		.short	1095
 478 015e 4804     		.short	1096
 479 0160 4904     		.short	1097
 480 0162 4A04     		.short	1098
 481 0164 4B04     		.short	1099
 482 0166 4C04     		.short	1100
 483 0168 4D04     		.short	1101
 484 016a 4E04     		.short	1102
 485 016c 4F04     		.short	1103
 486 016e 5104     		.short	1105
 487 0170 5204     		.short	1106
 488 0172 5304     		.short	1107
 489 0174 5404     		.short	1108
ARM GAS  C:\Users\Admin\AppData\Local\Temp\ccuupvKm.s 			page 19


 490 0176 5504     		.short	1109
 491 0178 5604     		.short	1110
 492 017a 5704     		.short	1111
 493 017c 5804     		.short	1112
 494 017e 5904     		.short	1113
 495 0180 5A04     		.short	1114
 496 0182 5B04     		.short	1115
 497 0184 5C04     		.short	1116
 498 0186 5E04     		.short	1118
 499 0188 5F04     		.short	1119
 500 018a 7021     		.short	8560
 501 018c 7121     		.short	8561
 502 018e 7221     		.short	8562
 503 0190 7321     		.short	8563
 504 0192 7421     		.short	8564
 505 0194 7521     		.short	8565
 506 0196 7621     		.short	8566
 507 0198 7721     		.short	8567
 508 019a 7821     		.short	8568
 509 019c 7921     		.short	8569
 510 019e 7A21     		.short	8570
 511 01a0 7B21     		.short	8571
 512 01a2 7C21     		.short	8572
 513 01a4 7D21     		.short	8573
 514 01a6 7E21     		.short	8574
 515 01a8 7F21     		.short	8575
 516 01aa 41FF     		.short	-191
 517 01ac 42FF     		.short	-190
 518 01ae 43FF     		.short	-189
 519 01b0 44FF     		.short	-188
 520 01b2 45FF     		.short	-187
 521 01b4 46FF     		.short	-186
 522 01b6 47FF     		.short	-185
 523 01b8 48FF     		.short	-184
 524 01ba 49FF     		.short	-183
 525 01bc 4AFF     		.short	-182
 526 01be 4BFF     		.short	-181
 527 01c0 4CFF     		.short	-180
 528 01c2 4DFF     		.short	-179
 529 01c4 4EFF     		.short	-178
 530 01c6 4FFF     		.short	-177
 531 01c8 50FF     		.short	-176
 532 01ca 51FF     		.short	-175
 533 01cc 52FF     		.short	-174
 534 01ce 53FF     		.short	-173
 535 01d0 54FF     		.short	-172
 536 01d2 55FF     		.short	-171
 537 01d4 56FF     		.short	-170
 538 01d6 57FF     		.short	-169
 539 01d8 58FF     		.short	-168
 540 01da 59FF     		.short	-167
 541 01dc 5AFF     		.short	-166
 542 01de 0000     		.short	0
 543              		.section	.rodata.tbl_upper.0,"a"
 544              		.align	2
 545              		.set	.LANCHOR2,. + 0
 548              	tbl_upper.0:
ARM GAS  C:\Users\Admin\AppData\Local\Temp\ccuupvKm.s 			page 20


 549 0000 4100     		.short	65
 550 0002 4200     		.short	66
 551 0004 4300     		.short	67
 552 0006 4400     		.short	68
 553 0008 4500     		.short	69
 554 000a 4600     		.short	70
 555 000c 4700     		.short	71
 556 000e 4800     		.short	72
 557 0010 4900     		.short	73
 558 0012 4A00     		.short	74
 559 0014 4B00     		.short	75
 560 0016 4C00     		.short	76
 561 0018 4D00     		.short	77
 562 001a 4E00     		.short	78
 563 001c 4F00     		.short	79
 564 001e 5000     		.short	80
 565 0020 5100     		.short	81
 566 0022 5200     		.short	82
 567 0024 5300     		.short	83
 568 0026 5400     		.short	84
 569 0028 5500     		.short	85
 570 002a 5600     		.short	86
 571 002c 5700     		.short	87
 572 002e 5800     		.short	88
 573 0030 5900     		.short	89
 574 0032 5A00     		.short	90
 575 0034 2100     		.short	33
 576 0036 E0FF     		.short	-32
 577 0038 E1FF     		.short	-31
 578 003a E5FF     		.short	-27
 579 003c E2FF     		.short	-30
 580 003e E3FF     		.short	-29
 581 0040 C000     		.short	192
 582 0042 C100     		.short	193
 583 0044 C200     		.short	194
 584 0046 C300     		.short	195
 585 0048 C400     		.short	196
 586 004a C500     		.short	197
 587 004c C600     		.short	198
 588 004e C700     		.short	199
 589 0050 C800     		.short	200
 590 0052 C900     		.short	201
 591 0054 CA00     		.short	202
 592 0056 CB00     		.short	203
 593 0058 CC00     		.short	204
 594 005a CD00     		.short	205
 595 005c CE00     		.short	206
 596 005e CF00     		.short	207
 597 0060 D000     		.short	208
 598 0062 D100     		.short	209
 599 0064 D200     		.short	210
 600 0066 D300     		.short	211
 601 0068 D400     		.short	212
 602 006a D500     		.short	213
 603 006c D600     		.short	214
 604 006e D800     		.short	216
 605 0070 D900     		.short	217
ARM GAS  C:\Users\Admin\AppData\Local\Temp\ccuupvKm.s 			page 21


 606 0072 DA00     		.short	218
 607 0074 DB00     		.short	219
 608 0076 DC00     		.short	220
 609 0078 DD00     		.short	221
 610 007a DE00     		.short	222
 611 007c 7801     		.short	376
 612 007e 0001     		.short	256
 613 0080 0201     		.short	258
 614 0082 0401     		.short	260
 615 0084 0601     		.short	262
 616 0086 0801     		.short	264
 617 0088 0A01     		.short	266
 618 008a 0C01     		.short	268
 619 008c 0E01     		.short	270
 620 008e 1001     		.short	272
 621 0090 1201     		.short	274
 622 0092 1401     		.short	276
 623 0094 1601     		.short	278
 624 0096 1801     		.short	280
 625 0098 1A01     		.short	282
 626 009a 1C01     		.short	284
 627 009c 1E01     		.short	286
 628 009e 2001     		.short	288
 629 00a0 2201     		.short	290
 630 00a2 2401     		.short	292
 631 00a4 2601     		.short	294
 632 00a6 2801     		.short	296
 633 00a8 2A01     		.short	298
 634 00aa 2C01     		.short	300
 635 00ac 2E01     		.short	302
 636 00ae 3001     		.short	304
 637 00b0 3201     		.short	306
 638 00b2 3401     		.short	308
 639 00b4 3601     		.short	310
 640 00b6 3901     		.short	313
 641 00b8 3B01     		.short	315
 642 00ba 3D01     		.short	317
 643 00bc 3F01     		.short	319
 644 00be 4101     		.short	321
 645 00c0 4301     		.short	323
 646 00c2 4501     		.short	325
 647 00c4 4701     		.short	327
 648 00c6 4A01     		.short	330
 649 00c8 4C01     		.short	332
 650 00ca 4E01     		.short	334
 651 00cc 5001     		.short	336
 652 00ce 5201     		.short	338
 653 00d0 5401     		.short	340
 654 00d2 5601     		.short	342
 655 00d4 5801     		.short	344
 656 00d6 5A01     		.short	346
 657 00d8 5C01     		.short	348
 658 00da 5E01     		.short	350
 659 00dc 6001     		.short	352
 660 00de 6201     		.short	354
 661 00e0 6401     		.short	356
 662 00e2 6601     		.short	358
ARM GAS  C:\Users\Admin\AppData\Local\Temp\ccuupvKm.s 			page 22


 663 00e4 6801     		.short	360
 664 00e6 6A01     		.short	362
 665 00e8 6C01     		.short	364
 666 00ea 6E01     		.short	366
 667 00ec 7001     		.short	368
 668 00ee 7201     		.short	370
 669 00f0 7401     		.short	372
 670 00f2 7601     		.short	374
 671 00f4 7901     		.short	377
 672 00f6 7B01     		.short	379
 673 00f8 7D01     		.short	381
 674 00fa 9101     		.short	401
 675 00fc 9103     		.short	913
 676 00fe 9203     		.short	914
 677 0100 9303     		.short	915
 678 0102 9403     		.short	916
 679 0104 9503     		.short	917
 680 0106 9603     		.short	918
 681 0108 9703     		.short	919
 682 010a 9803     		.short	920
 683 010c 9903     		.short	921
 684 010e 9A03     		.short	922
 685 0110 9B03     		.short	923
 686 0112 9C03     		.short	924
 687 0114 9D03     		.short	925
 688 0116 9E03     		.short	926
 689 0118 9F03     		.short	927
 690 011a A003     		.short	928
 691 011c A103     		.short	929
 692 011e A303     		.short	931
 693 0120 A403     		.short	932
 694 0122 A503     		.short	933
 695 0124 A603     		.short	934
 696 0126 A703     		.short	935
 697 0128 A803     		.short	936
 698 012a A903     		.short	937
 699 012c AA03     		.short	938
 700 012e 1004     		.short	1040
 701 0130 1104     		.short	1041
 702 0132 1204     		.short	1042
 703 0134 1304     		.short	1043
 704 0136 1404     		.short	1044
 705 0138 1504     		.short	1045
 706 013a 1604     		.short	1046
 707 013c 1704     		.short	1047
 708 013e 1804     		.short	1048
 709 0140 1904     		.short	1049
 710 0142 1A04     		.short	1050
 711 0144 1B04     		.short	1051
 712 0146 1C04     		.short	1052
 713 0148 1D04     		.short	1053
 714 014a 1E04     		.short	1054
 715 014c 1F04     		.short	1055
 716 014e 2004     		.short	1056
 717 0150 2104     		.short	1057
 718 0152 2204     		.short	1058
 719 0154 2304     		.short	1059
ARM GAS  C:\Users\Admin\AppData\Local\Temp\ccuupvKm.s 			page 23


 720 0156 2404     		.short	1060
 721 0158 2504     		.short	1061
 722 015a 2604     		.short	1062
 723 015c 2704     		.short	1063
 724 015e 2804     		.short	1064
 725 0160 2904     		.short	1065
 726 0162 2A04     		.short	1066
 727 0164 2B04     		.short	1067
 728 0166 2C04     		.short	1068
 729 0168 2D04     		.short	1069
 730 016a 2E04     		.short	1070
 731 016c 2F04     		.short	1071
 732 016e 0104     		.short	1025
 733 0170 0204     		.short	1026
 734 0172 0304     		.short	1027
 735 0174 0404     		.short	1028
 736 0176 0504     		.short	1029
 737 0178 0604     		.short	1030
 738 017a 0704     		.short	1031
 739 017c 0804     		.short	1032
 740 017e 0904     		.short	1033
 741 0180 0A04     		.short	1034
 742 0182 0B04     		.short	1035
 743 0184 0C04     		.short	1036
 744 0186 0E04     		.short	1038
 745 0188 0F04     		.short	1039
 746 018a 6021     		.short	8544
 747 018c 6121     		.short	8545
 748 018e 6221     		.short	8546
 749 0190 6321     		.short	8547
 750 0192 6421     		.short	8548
 751 0194 6521     		.short	8549
 752 0196 6621     		.short	8550
 753 0198 6721     		.short	8551
 754 019a 6821     		.short	8552
 755 019c 6921     		.short	8553
 756 019e 6A21     		.short	8554
 757 01a0 6B21     		.short	8555
 758 01a2 6C21     		.short	8556
 759 01a4 6D21     		.short	8557
 760 01a6 6E21     		.short	8558
 761 01a8 6F21     		.short	8559
 762 01aa 21FF     		.short	-223
 763 01ac 22FF     		.short	-222
 764 01ae 23FF     		.short	-221
 765 01b0 24FF     		.short	-220
 766 01b2 25FF     		.short	-219
 767 01b4 26FF     		.short	-218
 768 01b6 27FF     		.short	-217
 769 01b8 28FF     		.short	-216
 770 01ba 29FF     		.short	-215
 771 01bc 2AFF     		.short	-214
 772 01be 2BFF     		.short	-213
 773 01c0 2CFF     		.short	-212
 774 01c2 2DFF     		.short	-211
 775 01c4 2EFF     		.short	-210
 776 01c6 2FFF     		.short	-209
ARM GAS  C:\Users\Admin\AppData\Local\Temp\ccuupvKm.s 			page 24


 777 01c8 30FF     		.short	-208
 778 01ca 31FF     		.short	-207
 779 01cc 32FF     		.short	-206
 780 01ce 33FF     		.short	-205
 781 01d0 34FF     		.short	-204
 782 01d2 35FF     		.short	-203
 783 01d4 36FF     		.short	-202
 784 01d6 37FF     		.short	-201
 785 01d8 38FF     		.short	-200
 786 01da 39FF     		.short	-199
 787 01dc 3AFF     		.short	-198
 788 01de 0000     		.short	0
 789              		.text
 790              	.Letext0:
 791              		.file 2 "Middlewares/Third_Party/FatFs/src/option/../integer.h"
ARM GAS  C:\Users\Admin\AppData\Local\Temp\ccuupvKm.s 			page 25


DEFINED SYMBOLS
                            *ABS*:00000000 ccsbcs.c
C:\Users\Admin\AppData\Local\Temp\ccuupvKm.s:18     .text.ff_convert:00000000 $t
C:\Users\Admin\AppData\Local\Temp\ccuupvKm.s:24     .text.ff_convert:00000000 ff_convert
C:\Users\Admin\AppData\Local\Temp\ccuupvKm.s:100    .text.ff_convert:00000038 $d
C:\Users\Admin\AppData\Local\Temp\ccuupvKm.s:105    .text.ff_wtoupper:00000000 $t
C:\Users\Admin\AppData\Local\Temp\ccuupvKm.s:111    .text.ff_wtoupper:00000000 ff_wtoupper
C:\Users\Admin\AppData\Local\Temp\ccuupvKm.s:158    .text.ff_wtoupper:0000001c $d
C:\Users\Admin\AppData\Local\Temp\ccuupvKm.s:164    .rodata.Tbl:00000000 $d
C:\Users\Admin\AppData\Local\Temp\ccuupvKm.s:168    .rodata.Tbl:00000000 Tbl
C:\Users\Admin\AppData\Local\Temp\ccuupvKm.s:298    .rodata.tbl_lower.1:00000000 $d
C:\Users\Admin\AppData\Local\Temp\ccuupvKm.s:302    .rodata.tbl_lower.1:00000000 tbl_lower.1
C:\Users\Admin\AppData\Local\Temp\ccuupvKm.s:544    .rodata.tbl_upper.0:00000000 $d
C:\Users\Admin\AppData\Local\Temp\ccuupvKm.s:548    .rodata.tbl_upper.0:00000000 tbl_upper.0

NO UNDEFINED SYMBOLS
