ARM GAS  C:\Users\Admin\AppData\Local\Temp\cc3ZGI84.s 			page 1


   1              		.cpu cortex-m3
   2              		.arch armv7-m
   3              		.fpu softvfp
   4              		.eabi_attribute 20, 1
   5              		.eabi_attribute 21, 1
   6              		.eabi_attribute 23, 3
   7              		.eabi_attribute 24, 1
   8              		.eabi_attribute 25, 1
   9              		.eabi_attribute 26, 1
  10              		.eabi_attribute 30, 1
  11              		.eabi_attribute 34, 1
  12              		.eabi_attribute 18, 4
  13              		.file	"ff.c"
  14              		.text
  15              	.Ltext0:
  16              		.cfi_sections	.debug_frame
  17              		.section	.text.mem_cpy,"ax",%progbits
  18              		.align	1
  19              		.syntax unified
  20              		.thumb
  21              		.thumb_func
  23              	mem_cpy:
  24              	.LVL0:
  25              	.LFB65:
  26              		.file 1 "Middlewares/Third_Party/FatFs/src/ff.c"
   1:Middlewares/Third_Party/FatFs/src/ff.c **** /*----------------------------------------------------------------------------/
   2:Middlewares/Third_Party/FatFs/src/ff.c **** /  FatFs - FAT file system module  R0.11                 (C)ChaN, 2015
   3:Middlewares/Third_Party/FatFs/src/ff.c **** /-----------------------------------------------------------------------------/
   4:Middlewares/Third_Party/FatFs/src/ff.c **** / FatFs module is a free software that opened under license policy of
   5:Middlewares/Third_Party/FatFs/src/ff.c **** / following conditions.
   6:Middlewares/Third_Party/FatFs/src/ff.c **** /
   7:Middlewares/Third_Party/FatFs/src/ff.c **** / Copyright (C) 2015, ChaN, all right reserved.
   8:Middlewares/Third_Party/FatFs/src/ff.c **** /
   9:Middlewares/Third_Party/FatFs/src/ff.c **** / 1. Redistributions of source code must retain the above copyright notice,
  10:Middlewares/Third_Party/FatFs/src/ff.c **** /    this condition and the following disclaimer.
  11:Middlewares/Third_Party/FatFs/src/ff.c **** /
  12:Middlewares/Third_Party/FatFs/src/ff.c **** / This software is provided by the copyright holder and contributors "AS IS"
  13:Middlewares/Third_Party/FatFs/src/ff.c **** / and any warranties related to this software are DISCLAIMED.
  14:Middlewares/Third_Party/FatFs/src/ff.c **** / The copyright owner or contributors be NOT LIABLE for any damages caused
  15:Middlewares/Third_Party/FatFs/src/ff.c **** / by use of this software.
  16:Middlewares/Third_Party/FatFs/src/ff.c **** /-----------------------------------------------------------------------------/
  17:Middlewares/Third_Party/FatFs/src/ff.c **** / Feb 26,'06 R0.00  Prototype.
  18:Middlewares/Third_Party/FatFs/src/ff.c **** /
  19:Middlewares/Third_Party/FatFs/src/ff.c **** / Apr 29,'06 R0.01  First stable version.
  20:Middlewares/Third_Party/FatFs/src/ff.c **** /
  21:Middlewares/Third_Party/FatFs/src/ff.c **** / Jun 01,'06 R0.02  Added FAT12 support.
  22:Middlewares/Third_Party/FatFs/src/ff.c **** /                   Removed unbuffered mode.
  23:Middlewares/Third_Party/FatFs/src/ff.c **** /                   Fixed a problem on small (<32M) partition.
  24:Middlewares/Third_Party/FatFs/src/ff.c **** / Jun 10,'06 R0.02a Added a configuration option (_FS_MINIMUM).
  25:Middlewares/Third_Party/FatFs/src/ff.c **** /
  26:Middlewares/Third_Party/FatFs/src/ff.c **** / Sep 22,'06 R0.03  Added f_rename().
  27:Middlewares/Third_Party/FatFs/src/ff.c **** /                   Changed option _FS_MINIMUM to _FS_MINIMIZE.
  28:Middlewares/Third_Party/FatFs/src/ff.c **** / Dec 11,'06 R0.03a Improved cluster scan algorithm to write files fast.
  29:Middlewares/Third_Party/FatFs/src/ff.c **** /                   Fixed f_mkdir() creates incorrect directory on FAT32.
  30:Middlewares/Third_Party/FatFs/src/ff.c **** /
  31:Middlewares/Third_Party/FatFs/src/ff.c **** / Feb 04,'07 R0.04  Supported multiple drive system.
  32:Middlewares/Third_Party/FatFs/src/ff.c **** /                   Changed some interfaces for multiple drive system.
ARM GAS  C:\Users\Admin\AppData\Local\Temp\cc3ZGI84.s 			page 2


  33:Middlewares/Third_Party/FatFs/src/ff.c **** /                   Changed f_mountdrv() to f_mount().
  34:Middlewares/Third_Party/FatFs/src/ff.c **** /                   Added f_mkfs().
  35:Middlewares/Third_Party/FatFs/src/ff.c **** / Apr 01,'07 R0.04a Supported multiple partitions on a physical drive.
  36:Middlewares/Third_Party/FatFs/src/ff.c **** /                   Added a capability of extending file size to f_lseek().
  37:Middlewares/Third_Party/FatFs/src/ff.c **** /                   Added minimization level 3.
  38:Middlewares/Third_Party/FatFs/src/ff.c **** /                   Fixed an endian sensitive code in f_mkfs().
  39:Middlewares/Third_Party/FatFs/src/ff.c **** / May 05,'07 R0.04b Added a configuration option _USE_NTFLAG.
  40:Middlewares/Third_Party/FatFs/src/ff.c **** /                   Added FSINFO support.
  41:Middlewares/Third_Party/FatFs/src/ff.c **** /                   Fixed DBCS name can result FR_INVALID_NAME.
  42:Middlewares/Third_Party/FatFs/src/ff.c **** /                   Fixed short seek (<= csize) collapses the file object.
  43:Middlewares/Third_Party/FatFs/src/ff.c **** /
  44:Middlewares/Third_Party/FatFs/src/ff.c **** / Aug 25,'07 R0.05  Changed arguments of f_read(), f_write() and f_mkfs().
  45:Middlewares/Third_Party/FatFs/src/ff.c **** /                   Fixed f_mkfs() on FAT32 creates incorrect FSINFO.
  46:Middlewares/Third_Party/FatFs/src/ff.c **** /                   Fixed f_mkdir() on FAT32 creates incorrect directory.
  47:Middlewares/Third_Party/FatFs/src/ff.c **** / Feb 03,'08 R0.05a Added f_truncate() and f_utime().
  48:Middlewares/Third_Party/FatFs/src/ff.c **** /                   Fixed off by one error at FAT sub-type determination.
  49:Middlewares/Third_Party/FatFs/src/ff.c **** /                   Fixed btr in f_read() can be mistruncated.
  50:Middlewares/Third_Party/FatFs/src/ff.c **** /                   Fixed cached sector is not flushed when create and close without write.
  51:Middlewares/Third_Party/FatFs/src/ff.c **** /
  52:Middlewares/Third_Party/FatFs/src/ff.c **** / Apr 01,'08 R0.06  Added fputc(), fputs(), fprintf() and fgets().
  53:Middlewares/Third_Party/FatFs/src/ff.c **** /                   Improved performance of f_lseek() on moving to the same or following cluster.
  54:Middlewares/Third_Party/FatFs/src/ff.c **** /
  55:Middlewares/Third_Party/FatFs/src/ff.c **** / Apr 01,'09 R0.07  Merged Tiny-FatFs as a configuration option. (_FS_TINY)
  56:Middlewares/Third_Party/FatFs/src/ff.c **** /                   Added long file name feature.
  57:Middlewares/Third_Party/FatFs/src/ff.c **** /                   Added multiple code page feature.
  58:Middlewares/Third_Party/FatFs/src/ff.c **** /                   Added re-entrancy for multitask operation.
  59:Middlewares/Third_Party/FatFs/src/ff.c **** /                   Added auto cluster size selection to f_mkfs().
  60:Middlewares/Third_Party/FatFs/src/ff.c **** /                   Added rewind option to f_readdir().
  61:Middlewares/Third_Party/FatFs/src/ff.c **** /                   Changed result code of critical errors.
  62:Middlewares/Third_Party/FatFs/src/ff.c **** /                   Renamed string functions to avoid name collision.
  63:Middlewares/Third_Party/FatFs/src/ff.c **** / Apr 14,'09 R0.07a Separated out OS dependent code on reentrant cfg.
  64:Middlewares/Third_Party/FatFs/src/ff.c **** /                   Added multiple sector size feature.
  65:Middlewares/Third_Party/FatFs/src/ff.c **** / Jun 21,'09 R0.07c Fixed f_unlink() can return FR_OK on error.
  66:Middlewares/Third_Party/FatFs/src/ff.c **** /                   Fixed wrong cache control in f_lseek().
  67:Middlewares/Third_Party/FatFs/src/ff.c **** /                   Added relative path feature.
  68:Middlewares/Third_Party/FatFs/src/ff.c **** /                   Added f_chdir() and f_chdrive().
  69:Middlewares/Third_Party/FatFs/src/ff.c **** /                   Added proper case conversion to extended character.
  70:Middlewares/Third_Party/FatFs/src/ff.c **** / Nov 03,'09 R0.07e Separated out configuration options from ff.h to ffconf.h.
  71:Middlewares/Third_Party/FatFs/src/ff.c **** /                   Fixed f_unlink() fails to remove a sub-directory on _FS_RPATH.
  72:Middlewares/Third_Party/FatFs/src/ff.c **** /                   Fixed name matching error on the 13 character boundary.
  73:Middlewares/Third_Party/FatFs/src/ff.c **** /                   Added a configuration option, _LFN_UNICODE.
  74:Middlewares/Third_Party/FatFs/src/ff.c **** /                   Changed f_readdir() to return the SFN with always upper case on non-LFN cfg.
  75:Middlewares/Third_Party/FatFs/src/ff.c **** /
  76:Middlewares/Third_Party/FatFs/src/ff.c **** / May 15,'10 R0.08  Added a memory configuration option. (_USE_LFN = 3)
  77:Middlewares/Third_Party/FatFs/src/ff.c **** /                   Added file lock feature. (_FS_SHARE)
  78:Middlewares/Third_Party/FatFs/src/ff.c **** /                   Added fast seek feature. (_USE_FASTSEEK)
  79:Middlewares/Third_Party/FatFs/src/ff.c **** /                   Changed some types on the API, XCHAR->TCHAR.
  80:Middlewares/Third_Party/FatFs/src/ff.c **** /                   Changed .fname in the FILINFO structure on Unicode cfg.
  81:Middlewares/Third_Party/FatFs/src/ff.c **** /                   String functions support UTF-8 encoding files on Unicode cfg.
  82:Middlewares/Third_Party/FatFs/src/ff.c **** / Aug 16,'10 R0.08a Added f_getcwd().
  83:Middlewares/Third_Party/FatFs/src/ff.c **** /                   Added sector erase feature. (_USE_ERASE)
  84:Middlewares/Third_Party/FatFs/src/ff.c **** /                   Moved file lock semaphore table from fs object to the bss.
  85:Middlewares/Third_Party/FatFs/src/ff.c **** /                   Fixed a wrong directory entry is created on non-LFN cfg when the given name con
  86:Middlewares/Third_Party/FatFs/src/ff.c **** /                   Fixed f_mkfs() creates wrong FAT32 volume.
  87:Middlewares/Third_Party/FatFs/src/ff.c **** / Jan 15,'11 R0.08b Fast seek feature is also applied to f_read() and f_write().
  88:Middlewares/Third_Party/FatFs/src/ff.c **** /                   f_lseek() reports required table size on creating CLMP.
  89:Middlewares/Third_Party/FatFs/src/ff.c **** /                   Extended format syntax of f_printf().
ARM GAS  C:\Users\Admin\AppData\Local\Temp\cc3ZGI84.s 			page 3


  90:Middlewares/Third_Party/FatFs/src/ff.c **** /                   Ignores duplicated directory separators in given path name.
  91:Middlewares/Third_Party/FatFs/src/ff.c **** /
  92:Middlewares/Third_Party/FatFs/src/ff.c **** / Sep 06,'11 R0.09  f_mkfs() supports multiple partition to complete the multiple partition feature
  93:Middlewares/Third_Party/FatFs/src/ff.c **** /                   Added f_fdisk().
  94:Middlewares/Third_Party/FatFs/src/ff.c **** / Aug 27,'12 R0.09a Changed f_open() and f_opendir() reject null object pointer to avoid crash.
  95:Middlewares/Third_Party/FatFs/src/ff.c **** /                   Changed option name _FS_SHARE to _FS_LOCK.
  96:Middlewares/Third_Party/FatFs/src/ff.c **** /                   Fixed assertion failure due to OS/2 EA on FAT12/16 volume.
  97:Middlewares/Third_Party/FatFs/src/ff.c **** / Jan 24,'13 R0.09b Added f_setlabel() and f_getlabel().
  98:Middlewares/Third_Party/FatFs/src/ff.c **** /
  99:Middlewares/Third_Party/FatFs/src/ff.c **** / Oct 02,'13 R0.10  Added selection of character encoding on the file. (_STRF_ENCODE)
 100:Middlewares/Third_Party/FatFs/src/ff.c **** /                   Added f_closedir().
 101:Middlewares/Third_Party/FatFs/src/ff.c **** /                   Added forced full FAT scan for f_getfree(). (_FS_NOFSINFO)
 102:Middlewares/Third_Party/FatFs/src/ff.c **** /                   Added forced mount feature with changes of f_mount().
 103:Middlewares/Third_Party/FatFs/src/ff.c **** /                   Improved behavior of volume auto detection.
 104:Middlewares/Third_Party/FatFs/src/ff.c **** /                   Improved write throughput of f_puts() and f_printf().
 105:Middlewares/Third_Party/FatFs/src/ff.c **** /                   Changed argument of f_chdrive(), f_mkfs(), disk_read() and disk_write().
 106:Middlewares/Third_Party/FatFs/src/ff.c **** /                   Fixed f_write() can be truncated when the file size is close to 4GB.
 107:Middlewares/Third_Party/FatFs/src/ff.c **** /                   Fixed f_open(), f_mkdir() and f_setlabel() can return incorrect error code.
 108:Middlewares/Third_Party/FatFs/src/ff.c **** / Jan 15,'14 R0.10a Added arbitrary strings as drive number in the path name. (_STR_VOLUME_ID)
 109:Middlewares/Third_Party/FatFs/src/ff.c **** /                   Added a configuration option of minimum sector size. (_MIN_SS)
 110:Middlewares/Third_Party/FatFs/src/ff.c **** /                   2nd argument of f_rename() can have a drive number and it will be ignored.
 111:Middlewares/Third_Party/FatFs/src/ff.c **** /                   Fixed f_mount() with forced mount fails when drive number is >= 1.
 112:Middlewares/Third_Party/FatFs/src/ff.c **** /                   Fixed f_close() invalidates the file object without volume lock.
 113:Middlewares/Third_Party/FatFs/src/ff.c **** /                   Fixed f_closedir() returns but the volume lock is left acquired.
 114:Middlewares/Third_Party/FatFs/src/ff.c **** /                   Fixed creation of an entry with LFN fails on too many SFN collisions.
 115:Middlewares/Third_Party/FatFs/src/ff.c **** / May 19,'14 R0.10b Fixed a hard error in the disk I/O layer can collapse the directory entry.
 116:Middlewares/Third_Party/FatFs/src/ff.c **** /                   Fixed LFN entry is not deleted on delete/rename an object with lossy converted 
 117:Middlewares/Third_Party/FatFs/src/ff.c **** / Nov  9,'14 R0.10c Added a configuration option for the platforms without RTC. (_FS_NORTC)
 118:Middlewares/Third_Party/FatFs/src/ff.c **** /                   Fixed volume label created by Mac OS X cannot be retrieved with f_getlabel(). (
 119:Middlewares/Third_Party/FatFs/src/ff.c **** /                   Fixed a potential problem of FAT access that can appear on disk error.
 120:Middlewares/Third_Party/FatFs/src/ff.c **** /                   Fixed null pointer dereference on attempting to delete the root direcotry. (app
 121:Middlewares/Third_Party/FatFs/src/ff.c **** / Feb 02,'15 R0.11  Added f_findfirst() and f_findnext(). (_USE_FIND)
 122:Middlewares/Third_Party/FatFs/src/ff.c **** /                   Fixed f_unlink() does not remove cluster chain of the file. (appeared at R0.10c
 123:Middlewares/Third_Party/FatFs/src/ff.c **** /                   Fixed _FS_NORTC option does not work properly. (appeared at R0.10c)
 124:Middlewares/Third_Party/FatFs/src/ff.c **** /---------------------------------------------------------------------------*/
 125:Middlewares/Third_Party/FatFs/src/ff.c **** 
 126:Middlewares/Third_Party/FatFs/src/ff.c **** #include "ff.h"			/* Declarations of FatFs API */
 127:Middlewares/Third_Party/FatFs/src/ff.c **** #include "diskio.h"		/* Declarations of disk I/O functions */
 128:Middlewares/Third_Party/FatFs/src/ff.c **** 
 129:Middlewares/Third_Party/FatFs/src/ff.c **** 
 130:Middlewares/Third_Party/FatFs/src/ff.c **** /*--------------------------------------------------------------------------
 131:Middlewares/Third_Party/FatFs/src/ff.c **** 
 132:Middlewares/Third_Party/FatFs/src/ff.c ****    Module Private Definitions
 133:Middlewares/Third_Party/FatFs/src/ff.c **** 
 134:Middlewares/Third_Party/FatFs/src/ff.c **** ---------------------------------------------------------------------------*/
 135:Middlewares/Third_Party/FatFs/src/ff.c **** 
 136:Middlewares/Third_Party/FatFs/src/ff.c **** #if _FATFS != 32020	/* Revision ID */
 137:Middlewares/Third_Party/FatFs/src/ff.c **** #error Wrong include file (ff.h).
 138:Middlewares/Third_Party/FatFs/src/ff.c **** #endif
 139:Middlewares/Third_Party/FatFs/src/ff.c **** 
 140:Middlewares/Third_Party/FatFs/src/ff.c **** 
 141:Middlewares/Third_Party/FatFs/src/ff.c **** /* Reentrancy related */
 142:Middlewares/Third_Party/FatFs/src/ff.c **** #if _FS_REENTRANT
 143:Middlewares/Third_Party/FatFs/src/ff.c **** #if _USE_LFN == 1
 144:Middlewares/Third_Party/FatFs/src/ff.c **** #error Static LFN work area cannot be used at thread-safe configuration
 145:Middlewares/Third_Party/FatFs/src/ff.c **** #endif
 146:Middlewares/Third_Party/FatFs/src/ff.c **** #define	ENTER_FF(fs)		{ if (!lock_fs(fs)) return FR_TIMEOUT; }
ARM GAS  C:\Users\Admin\AppData\Local\Temp\cc3ZGI84.s 			page 4


 147:Middlewares/Third_Party/FatFs/src/ff.c **** #define	LEAVE_FF(fs, res)	{ unlock_fs(fs, res); return res; }
 148:Middlewares/Third_Party/FatFs/src/ff.c **** #else
 149:Middlewares/Third_Party/FatFs/src/ff.c **** #define	ENTER_FF(fs)
 150:Middlewares/Third_Party/FatFs/src/ff.c **** #define LEAVE_FF(fs, res)	return res
 151:Middlewares/Third_Party/FatFs/src/ff.c **** #endif
 152:Middlewares/Third_Party/FatFs/src/ff.c **** 
 153:Middlewares/Third_Party/FatFs/src/ff.c **** #define	ABORT(fs, res)		{ fp->err = (BYTE)(res); LEAVE_FF(fs, res); }
 154:Middlewares/Third_Party/FatFs/src/ff.c **** 
 155:Middlewares/Third_Party/FatFs/src/ff.c **** 
 156:Middlewares/Third_Party/FatFs/src/ff.c **** /* Definitions of sector size */
 157:Middlewares/Third_Party/FatFs/src/ff.c **** #if (_MAX_SS < _MIN_SS) || (_MAX_SS != 512 && _MAX_SS != 1024 && _MAX_SS != 2048 && _MAX_SS != 4096
 158:Middlewares/Third_Party/FatFs/src/ff.c **** #error Wrong sector size configuration
 159:Middlewares/Third_Party/FatFs/src/ff.c **** #endif
 160:Middlewares/Third_Party/FatFs/src/ff.c **** #if _MAX_SS == _MIN_SS
 161:Middlewares/Third_Party/FatFs/src/ff.c **** #define	SS(fs)	((UINT)_MAX_SS)	/* Fixed sector size */
 162:Middlewares/Third_Party/FatFs/src/ff.c **** #else
 163:Middlewares/Third_Party/FatFs/src/ff.c **** #define	SS(fs)	((fs)->ssize)	/* Variable sector size */
 164:Middlewares/Third_Party/FatFs/src/ff.c **** #endif
 165:Middlewares/Third_Party/FatFs/src/ff.c **** 
 166:Middlewares/Third_Party/FatFs/src/ff.c **** 
 167:Middlewares/Third_Party/FatFs/src/ff.c **** /* Timestamp feature */
 168:Middlewares/Third_Party/FatFs/src/ff.c **** #if _FS_NORTC == 1
 169:Middlewares/Third_Party/FatFs/src/ff.c **** #if _NORTC_YEAR < 1980 || _NORTC_YEAR > 2107 || _NORTC_MON < 1 || _NORTC_MON > 12 || _NORTC_MDAY < 
 170:Middlewares/Third_Party/FatFs/src/ff.c **** #error Invalid _FS_NORTC settings
 171:Middlewares/Third_Party/FatFs/src/ff.c **** #endif
 172:Middlewares/Third_Party/FatFs/src/ff.c **** #define GET_FATTIME()	((DWORD)(_NORTC_YEAR - 1980) << 25 | (DWORD)_NORTC_MON << 21 | (DWORD)_NORTC_
 173:Middlewares/Third_Party/FatFs/src/ff.c **** #else
 174:Middlewares/Third_Party/FatFs/src/ff.c **** #define GET_FATTIME()	get_fattime()
 175:Middlewares/Third_Party/FatFs/src/ff.c **** #endif
 176:Middlewares/Third_Party/FatFs/src/ff.c **** 
 177:Middlewares/Third_Party/FatFs/src/ff.c **** 
 178:Middlewares/Third_Party/FatFs/src/ff.c **** /* File access control feature */
 179:Middlewares/Third_Party/FatFs/src/ff.c **** #if _FS_LOCK
 180:Middlewares/Third_Party/FatFs/src/ff.c **** #if _FS_READONLY
 181:Middlewares/Third_Party/FatFs/src/ff.c **** #error _FS_LOCK must be 0 at read-only configuration
 182:Middlewares/Third_Party/FatFs/src/ff.c **** #endif
 183:Middlewares/Third_Party/FatFs/src/ff.c **** typedef struct {
 184:Middlewares/Third_Party/FatFs/src/ff.c **** 	FATFS *fs;		/* Object ID 1, volume (NULL:blank entry) */
 185:Middlewares/Third_Party/FatFs/src/ff.c **** 	DWORD clu;		/* Object ID 2, directory (0:root) */
 186:Middlewares/Third_Party/FatFs/src/ff.c **** 	WORD idx;		/* Object ID 3, directory index */
 187:Middlewares/Third_Party/FatFs/src/ff.c **** 	WORD ctr;		/* Object open counter, 0:none, 0x01..0xFF:read mode open count, 0x100:write mode */
 188:Middlewares/Third_Party/FatFs/src/ff.c **** } FILESEM;
 189:Middlewares/Third_Party/FatFs/src/ff.c **** #endif
 190:Middlewares/Third_Party/FatFs/src/ff.c **** 
 191:Middlewares/Third_Party/FatFs/src/ff.c **** 
 192:Middlewares/Third_Party/FatFs/src/ff.c **** 
 193:Middlewares/Third_Party/FatFs/src/ff.c **** /* DBCS code ranges and SBCS extend character conversion table */
 194:Middlewares/Third_Party/FatFs/src/ff.c **** 
 195:Middlewares/Third_Party/FatFs/src/ff.c **** #if _CODE_PAGE == 932	/* Japanese Shift-JIS */
 196:Middlewares/Third_Party/FatFs/src/ff.c **** #define _DF1S	0x81	/* DBC 1st byte range 1 start */
 197:Middlewares/Third_Party/FatFs/src/ff.c **** #define _DF1E	0x9F	/* DBC 1st byte range 1 end */
 198:Middlewares/Third_Party/FatFs/src/ff.c **** #define _DF2S	0xE0	/* DBC 1st byte range 2 start */
 199:Middlewares/Third_Party/FatFs/src/ff.c **** #define _DF2E	0xFC	/* DBC 1st byte range 2 end */
 200:Middlewares/Third_Party/FatFs/src/ff.c **** #define _DS1S	0x40	/* DBC 2nd byte range 1 start */
 201:Middlewares/Third_Party/FatFs/src/ff.c **** #define _DS1E	0x7E	/* DBC 2nd byte range 1 end */
 202:Middlewares/Third_Party/FatFs/src/ff.c **** #define _DS2S	0x80	/* DBC 2nd byte range 2 start */
 203:Middlewares/Third_Party/FatFs/src/ff.c **** #define _DS2E	0xFC	/* DBC 2nd byte range 2 end */
ARM GAS  C:\Users\Admin\AppData\Local\Temp\cc3ZGI84.s 			page 5


 204:Middlewares/Third_Party/FatFs/src/ff.c **** 
 205:Middlewares/Third_Party/FatFs/src/ff.c **** #elif _CODE_PAGE == 936	/* Simplified Chinese GBK */
 206:Middlewares/Third_Party/FatFs/src/ff.c **** #define _DF1S	0x81
 207:Middlewares/Third_Party/FatFs/src/ff.c **** #define _DF1E	0xFE
 208:Middlewares/Third_Party/FatFs/src/ff.c **** #define _DS1S	0x40
 209:Middlewares/Third_Party/FatFs/src/ff.c **** #define _DS1E	0x7E
 210:Middlewares/Third_Party/FatFs/src/ff.c **** #define _DS2S	0x80
 211:Middlewares/Third_Party/FatFs/src/ff.c **** #define _DS2E	0xFE
 212:Middlewares/Third_Party/FatFs/src/ff.c **** 
 213:Middlewares/Third_Party/FatFs/src/ff.c **** #elif _CODE_PAGE == 949	/* Korean */
 214:Middlewares/Third_Party/FatFs/src/ff.c **** #define _DF1S	0x81
 215:Middlewares/Third_Party/FatFs/src/ff.c **** #define _DF1E	0xFE
 216:Middlewares/Third_Party/FatFs/src/ff.c **** #define _DS1S	0x41
 217:Middlewares/Third_Party/FatFs/src/ff.c **** #define _DS1E	0x5A
 218:Middlewares/Third_Party/FatFs/src/ff.c **** #define _DS2S	0x61
 219:Middlewares/Third_Party/FatFs/src/ff.c **** #define _DS2E	0x7A
 220:Middlewares/Third_Party/FatFs/src/ff.c **** #define _DS3S	0x81
 221:Middlewares/Third_Party/FatFs/src/ff.c **** #define _DS3E	0xFE
 222:Middlewares/Third_Party/FatFs/src/ff.c **** 
 223:Middlewares/Third_Party/FatFs/src/ff.c **** #elif _CODE_PAGE == 950	/* Traditional Chinese Big5 */
 224:Middlewares/Third_Party/FatFs/src/ff.c **** #define _DF1S	0x81
 225:Middlewares/Third_Party/FatFs/src/ff.c **** #define _DF1E	0xFE
 226:Middlewares/Third_Party/FatFs/src/ff.c **** #define _DS1S	0x40
 227:Middlewares/Third_Party/FatFs/src/ff.c **** #define _DS1E	0x7E
 228:Middlewares/Third_Party/FatFs/src/ff.c **** #define _DS2S	0xA1
 229:Middlewares/Third_Party/FatFs/src/ff.c **** #define _DS2E	0xFE
 230:Middlewares/Third_Party/FatFs/src/ff.c **** 
 231:Middlewares/Third_Party/FatFs/src/ff.c **** #elif _CODE_PAGE == 437	/* U.S. (OEM) */
 232:Middlewares/Third_Party/FatFs/src/ff.c **** #define _DF1S	0
 233:Middlewares/Third_Party/FatFs/src/ff.c **** #define _EXCVT {0x80,0x9A,0x90,0x41,0x8E,0x41,0x8F,0x80,0x45,0x45,0x45,0x49,0x49,0x49,0x8E,0x8F,0x9
 234:Middlewares/Third_Party/FatFs/src/ff.c **** 				0x41,0x49,0x4F,0x55,0xA5,0xA5,0xA6,0xA7,0xA8,0xA9,0xAA,0xAB,0xAC,0x21,0xAE,0xAF,0xB0,0xB1,0xB2,
 235:Middlewares/Third_Party/FatFs/src/ff.c **** 				0xC0,0xC1,0xC2,0xC3,0xC4,0xC5,0xC6,0xC7,0xC8,0xC9,0xCA,0xCB,0xCC,0xCD,0xCE,0xCF,0xD0,0xD1,0xD2,
 236:Middlewares/Third_Party/FatFs/src/ff.c **** 				0xE0,0xE1,0xE2,0xE3,0xE4,0xE5,0xE6,0xE7,0xE8,0xE9,0xEA,0xEB,0xEC,0xED,0xEE,0xEF,0xF0,0xF1,0xF2,
 237:Middlewares/Third_Party/FatFs/src/ff.c **** 
 238:Middlewares/Third_Party/FatFs/src/ff.c **** #elif _CODE_PAGE == 720	/* Arabic (OEM) */
 239:Middlewares/Third_Party/FatFs/src/ff.c **** #define _DF1S	0
 240:Middlewares/Third_Party/FatFs/src/ff.c **** #define _EXCVT {0x80,0x81,0x45,0x41,0x84,0x41,0x86,0x43,0x45,0x45,0x45,0x49,0x49,0x8D,0x8E,0x8F,0x9
 241:Middlewares/Third_Party/FatFs/src/ff.c **** 				0xA0,0xA1,0xA2,0xA3,0xA4,0xA5,0xA6,0xA7,0xA8,0xA9,0xAA,0xAB,0xAC,0xAD,0xAE,0xAF,0xB0,0xB1,0xB2,
 242:Middlewares/Third_Party/FatFs/src/ff.c **** 				0xC0,0xC1,0xC2,0xC3,0xC4,0xC5,0xC6,0xC7,0xC8,0xC9,0xCA,0xCB,0xCC,0xCD,0xCE,0xCF,0xD0,0xD1,0xD2,
 243:Middlewares/Third_Party/FatFs/src/ff.c **** 				0xE0,0xE1,0xE2,0xE3,0xE4,0xE5,0xE6,0xE7,0xE8,0xE9,0xEA,0xEB,0xEC,0xED,0xEE,0xEF,0xF0,0xF1,0xF2,
 244:Middlewares/Third_Party/FatFs/src/ff.c **** 
 245:Middlewares/Third_Party/FatFs/src/ff.c **** #elif _CODE_PAGE == 737	/* Greek (OEM) */
 246:Middlewares/Third_Party/FatFs/src/ff.c **** #define _DF1S	0
 247:Middlewares/Third_Party/FatFs/src/ff.c **** #define _EXCVT {0x80,0x81,0x82,0x83,0x84,0x85,0x86,0x87,0x88,0x89,0x8A,0x8B,0x8C,0x8D,0x8E,0x8F,0x9
 248:Middlewares/Third_Party/FatFs/src/ff.c **** 				0x88,0x89,0x8A,0x8B,0x8C,0x8D,0x8E,0x8F,0x90,0x91,0xAA,0x92,0x93,0x94,0x95,0x96,0xB0,0xB1,0xB2,
 249:Middlewares/Third_Party/FatFs/src/ff.c **** 				0xC0,0xC1,0xC2,0xC3,0xC4,0xC5,0xC6,0xC7,0xC8,0xC9,0xCA,0xCB,0xCC,0xCD,0xCE,0xCF,0xD0,0xD1,0xD2,
 250:Middlewares/Third_Party/FatFs/src/ff.c **** 				0x97,0xEA,0xEB,0xEC,0xE4,0xED,0xEE,0xE7,0xE8,0xF1,0xEA,0xEB,0xEC,0xED,0xEE,0xEF,0xF0,0xF1,0xF2,
 251:Middlewares/Third_Party/FatFs/src/ff.c **** 
 252:Middlewares/Third_Party/FatFs/src/ff.c **** #elif _CODE_PAGE == 775	/* Baltic (OEM) */
 253:Middlewares/Third_Party/FatFs/src/ff.c **** #define _DF1S	0
 254:Middlewares/Third_Party/FatFs/src/ff.c **** #define _EXCVT {0x80,0x9A,0x91,0xA0,0x8E,0x95,0x8F,0x80,0xAD,0xED,0x8A,0x8A,0xA1,0x8D,0x8E,0x8F,0x9
 255:Middlewares/Third_Party/FatFs/src/ff.c **** 				0xA0,0xA1,0xE0,0xA3,0xA3,0xA5,0xA6,0xA7,0xA8,0xA9,0xAA,0xAB,0xAC,0xAD,0xAE,0xAF,0xB0,0xB1,0xB2,
 256:Middlewares/Third_Party/FatFs/src/ff.c **** 				0xC0,0xC1,0xC2,0xC3,0xC4,0xC5,0xC6,0xC7,0xC8,0xC9,0xCA,0xCB,0xCC,0xCD,0xCE,0xCF,0xB5,0xB6,0xB7,
 257:Middlewares/Third_Party/FatFs/src/ff.c **** 				0xE0,0xE1,0xE2,0xE3,0xE5,0xE5,0xE6,0xE3,0xE8,0xE8,0xEA,0xEA,0xEE,0xED,0xEE,0xEF,0xF0,0xF1,0xF2,
 258:Middlewares/Third_Party/FatFs/src/ff.c **** 
 259:Middlewares/Third_Party/FatFs/src/ff.c **** #elif _CODE_PAGE == 850	/* Multilingual Latin 1 (OEM) */
 260:Middlewares/Third_Party/FatFs/src/ff.c **** #define _DF1S	0
ARM GAS  C:\Users\Admin\AppData\Local\Temp\cc3ZGI84.s 			page 6


 261:Middlewares/Third_Party/FatFs/src/ff.c **** #define _EXCVT {0x80,0x9A,0x90,0xB6,0x8E,0xB7,0x8F,0x80,0xD2,0xD3,0xD4,0xD8,0xD7,0xDE,0x8E,0x8F,0x9
 262:Middlewares/Third_Party/FatFs/src/ff.c **** 				0xB5,0xD6,0xE0,0xE9,0xA5,0xA5,0xA6,0xA7,0xA8,0xA9,0xAA,0xAB,0xAC,0x21,0xAE,0xAF,0xB0,0xB1,0xB2,
 263:Middlewares/Third_Party/FatFs/src/ff.c **** 				0xC0,0xC1,0xC2,0xC3,0xC4,0xC5,0xC7,0xC7,0xC8,0xC9,0xCA,0xCB,0xCC,0xCD,0xCE,0xCF,0xD0,0xD1,0xD2,
 264:Middlewares/Third_Party/FatFs/src/ff.c **** 				0xE0,0xE1,0xE2,0xE3,0xE5,0xE5,0xE6,0xE7,0xE7,0xE9,0xEA,0xEB,0xED,0xED,0xEE,0xEF,0xF0,0xF1,0xF2,
 265:Middlewares/Third_Party/FatFs/src/ff.c **** 
 266:Middlewares/Third_Party/FatFs/src/ff.c **** #elif _CODE_PAGE == 852	/* Latin 2 (OEM) */
 267:Middlewares/Third_Party/FatFs/src/ff.c **** #define _DF1S	0
 268:Middlewares/Third_Party/FatFs/src/ff.c **** #define _EXCVT {0x80,0x9A,0x90,0xB6,0x8E,0xDE,0x8F,0x80,0x9D,0xD3,0x8A,0x8A,0xD7,0x8D,0x8E,0x8F,0x9
 269:Middlewares/Third_Party/FatFs/src/ff.c **** 				0xB5,0xD6,0xE0,0xE9,0xA4,0xA4,0xA6,0xA6,0xA8,0xA8,0xAA,0x8D,0xAC,0xB8,0xAE,0xAF,0xB0,0xB1,0xB2,
 270:Middlewares/Third_Party/FatFs/src/ff.c **** 				0xC0,0xC1,0xC2,0xC3,0xC4,0xC5,0xC6,0xC6,0xC8,0xC9,0xCA,0xCB,0xCC,0xCD,0xCE,0xCF,0xD1,0xD1,0xD2,
 271:Middlewares/Third_Party/FatFs/src/ff.c **** 				0xE0,0xE1,0xE2,0xE3,0xE3,0xD5,0xE6,0xE6,0xE8,0xE9,0xE8,0xEB,0xED,0xED,0xDD,0xEF,0xF0,0xF1,0xF2,
 272:Middlewares/Third_Party/FatFs/src/ff.c **** 
 273:Middlewares/Third_Party/FatFs/src/ff.c **** #elif _CODE_PAGE == 855	/* Cyrillic (OEM) */
 274:Middlewares/Third_Party/FatFs/src/ff.c **** #define _DF1S	0
 275:Middlewares/Third_Party/FatFs/src/ff.c **** #define _EXCVT {0x81,0x81,0x83,0x83,0x85,0x85,0x87,0x87,0x89,0x89,0x8B,0x8B,0x8D,0x8D,0x8F,0x8F,0x9
 276:Middlewares/Third_Party/FatFs/src/ff.c **** 				0xA1,0xA1,0xA3,0xA3,0xA5,0xA5,0xA7,0xA7,0xA9,0xA9,0xAB,0xAB,0xAD,0xAD,0xAE,0xAF,0xB0,0xB1,0xB2,
 277:Middlewares/Third_Party/FatFs/src/ff.c **** 				0xC0,0xC1,0xC2,0xC3,0xC4,0xC5,0xC7,0xC7,0xC8,0xC9,0xCA,0xCB,0xCC,0xCD,0xCE,0xCF,0xD1,0xD1,0xD3,
 278:Middlewares/Third_Party/FatFs/src/ff.c **** 				0xE0,0xE2,0xE2,0xE4,0xE4,0xE6,0xE6,0xE8,0xE8,0xEA,0xEA,0xEC,0xEC,0xEE,0xEE,0xEF,0xF0,0xF2,0xF2,
 279:Middlewares/Third_Party/FatFs/src/ff.c **** 
 280:Middlewares/Third_Party/FatFs/src/ff.c **** #elif _CODE_PAGE == 857	/* Turkish (OEM) */
 281:Middlewares/Third_Party/FatFs/src/ff.c **** #define _DF1S	0
 282:Middlewares/Third_Party/FatFs/src/ff.c **** #define _EXCVT {0x80,0x9A,0x90,0xB6,0x8E,0xB7,0x8F,0x80,0xD2,0xD3,0xD4,0xD8,0xD7,0x98,0x8E,0x8F,0x9
 283:Middlewares/Third_Party/FatFs/src/ff.c **** 				0xB5,0xD6,0xE0,0xE9,0xA5,0xA5,0xA6,0xA6,0xA8,0xA9,0xAA,0xAB,0xAC,0x21,0xAE,0xAF,0xB0,0xB1,0xB2,
 284:Middlewares/Third_Party/FatFs/src/ff.c **** 				0xC0,0xC1,0xC2,0xC3,0xC4,0xC5,0xC7,0xC7,0xC8,0xC9,0xCA,0xCB,0xCC,0xCD,0xCE,0xCF,0xD0,0xD1,0xD2,
 285:Middlewares/Third_Party/FatFs/src/ff.c **** 				0xE0,0xE1,0xE2,0xE3,0xE5,0xE5,0xE6,0xE7,0xE8,0xE9,0xEA,0xEB,0xDE,0x59,0xEE,0xEF,0xF0,0xF1,0xF2,
 286:Middlewares/Third_Party/FatFs/src/ff.c **** 
 287:Middlewares/Third_Party/FatFs/src/ff.c **** #elif _CODE_PAGE == 858	/* Multilingual Latin 1 + Euro (OEM) */
 288:Middlewares/Third_Party/FatFs/src/ff.c **** #define _DF1S	0
 289:Middlewares/Third_Party/FatFs/src/ff.c **** #define _EXCVT {0x80,0x9A,0x90,0xB6,0x8E,0xB7,0x8F,0x80,0xD2,0xD3,0xD4,0xD8,0xD7,0xDE,0x8E,0x8F,0x9
 290:Middlewares/Third_Party/FatFs/src/ff.c **** 				0xB5,0xD6,0xE0,0xE9,0xA5,0xA5,0xA6,0xA7,0xA8,0xA9,0xAA,0xAB,0xAC,0x21,0xAE,0xAF,0xB0,0xB1,0xB2,
 291:Middlewares/Third_Party/FatFs/src/ff.c **** 				0xC0,0xC1,0xC2,0xC3,0xC4,0xC5,0xC7,0xC7,0xC8,0xC9,0xCA,0xCB,0xCC,0xCD,0xCE,0xCF,0xD1,0xD1,0xD2,
 292:Middlewares/Third_Party/FatFs/src/ff.c **** 				0xE0,0xE1,0xE2,0xE3,0xE5,0xE5,0xE6,0xE7,0xE7,0xE9,0xEA,0xEB,0xED,0xED,0xEE,0xEF,0xF0,0xF1,0xF2,
 293:Middlewares/Third_Party/FatFs/src/ff.c **** 
 294:Middlewares/Third_Party/FatFs/src/ff.c **** #elif _CODE_PAGE == 862	/* Hebrew (OEM) */
 295:Middlewares/Third_Party/FatFs/src/ff.c **** #define _DF1S	0
 296:Middlewares/Third_Party/FatFs/src/ff.c **** #define _EXCVT {0x80,0x81,0x82,0x83,0x84,0x85,0x86,0x87,0x88,0x89,0x8A,0x8B,0x8C,0x8D,0x8E,0x8F,0x9
 297:Middlewares/Third_Party/FatFs/src/ff.c **** 				0x41,0x49,0x4F,0x55,0xA5,0xA5,0xA6,0xA7,0xA8,0xA9,0xAA,0xAB,0xAC,0x21,0xAE,0xAF,0xB0,0xB1,0xB2,
 298:Middlewares/Third_Party/FatFs/src/ff.c **** 				0xC0,0xC1,0xC2,0xC3,0xC4,0xC5,0xC6,0xC7,0xC8,0xC9,0xCA,0xCB,0xCC,0xCD,0xCE,0xCF,0xD0,0xD1,0xD2,
 299:Middlewares/Third_Party/FatFs/src/ff.c **** 				0xE0,0xE1,0xE2,0xE3,0xE4,0xE5,0xE6,0xE7,0xE8,0xE9,0xEA,0xEB,0xEC,0xED,0xEE,0xEF,0xF0,0xF1,0xF2,
 300:Middlewares/Third_Party/FatFs/src/ff.c **** 
 301:Middlewares/Third_Party/FatFs/src/ff.c **** #elif _CODE_PAGE == 866	/* Russian (OEM) */
 302:Middlewares/Third_Party/FatFs/src/ff.c **** #define _DF1S	0
 303:Middlewares/Third_Party/FatFs/src/ff.c **** #define _EXCVT {0x80,0x81,0x82,0x83,0x84,0x85,0x86,0x87,0x88,0x89,0x8A,0x8B,0x8C,0x8D,0x8E,0x8F,0x9
 304:Middlewares/Third_Party/FatFs/src/ff.c **** 				0x80,0x81,0x82,0x83,0x84,0x85,0x86,0x87,0x88,0x89,0x8A,0x8B,0x8C,0x8D,0x8E,0x8F,0xB0,0xB1,0xB2,
 305:Middlewares/Third_Party/FatFs/src/ff.c **** 				0xC0,0xC1,0xC2,0xC3,0xC4,0xC5,0xC6,0xC7,0xC8,0xC9,0xCA,0xCB,0xCC,0xCD,0xCE,0xCF,0xD0,0xD1,0xD2,
 306:Middlewares/Third_Party/FatFs/src/ff.c **** 				0x90,0x91,0x92,0x93,0x9d,0x95,0x96,0x97,0x98,0x99,0x9A,0x9B,0x9C,0x9D,0x9E,0x9F,0xF0,0xF0,0xF2,
 307:Middlewares/Third_Party/FatFs/src/ff.c **** 
 308:Middlewares/Third_Party/FatFs/src/ff.c **** #elif _CODE_PAGE == 874	/* Thai (OEM, Windows) */
 309:Middlewares/Third_Party/FatFs/src/ff.c **** #define _DF1S	0
 310:Middlewares/Third_Party/FatFs/src/ff.c **** #define _EXCVT {0x80,0x81,0x82,0x83,0x84,0x85,0x86,0x87,0x88,0x89,0x8A,0x8B,0x8C,0x8D,0x8E,0x8F,0x9
 311:Middlewares/Third_Party/FatFs/src/ff.c **** 				0xA0,0xA1,0xA2,0xA3,0xA4,0xA5,0xA6,0xA7,0xA8,0xA9,0xAA,0xAB,0xAC,0xAD,0xAE,0xAF,0xB0,0xB1,0xB2,
 312:Middlewares/Third_Party/FatFs/src/ff.c **** 				0xC0,0xC1,0xC2,0xC3,0xC4,0xC5,0xC6,0xC7,0xC8,0xC9,0xCA,0xCB,0xCC,0xCD,0xCE,0xCF,0xD0,0xD1,0xD2,
 313:Middlewares/Third_Party/FatFs/src/ff.c **** 				0xE0,0xE1,0xE2,0xE3,0xE4,0xE5,0xE6,0xE7,0xE8,0xE9,0xEA,0xEB,0xEC,0xED,0xEE,0xEF,0xF0,0xF1,0xF2,
 314:Middlewares/Third_Party/FatFs/src/ff.c **** 
 315:Middlewares/Third_Party/FatFs/src/ff.c **** #elif _CODE_PAGE == 1250 /* Central Europe (Windows) */
 316:Middlewares/Third_Party/FatFs/src/ff.c **** #define _DF1S	0
 317:Middlewares/Third_Party/FatFs/src/ff.c **** #define _EXCVT {0x80,0x81,0x82,0x83,0x84,0x85,0x86,0x87,0x88,0x89,0x8A,0x8B,0x8C,0x8D,0x8E,0x8F,0x9
ARM GAS  C:\Users\Admin\AppData\Local\Temp\cc3ZGI84.s 			page 7


 318:Middlewares/Third_Party/FatFs/src/ff.c **** 				0xA0,0xA1,0xA2,0xA3,0xA4,0xA5,0xA6,0xA7,0xA8,0xA9,0xAA,0xAB,0xAC,0xAD,0xAE,0xAF,0xB0,0xB1,0xB2,
 319:Middlewares/Third_Party/FatFs/src/ff.c **** 				0xC0,0xC1,0xC2,0xC3,0xC4,0xC5,0xC6,0xC7,0xC8,0xC9,0xCA,0xCB,0xCC,0xCD,0xCE,0xCF,0xD0,0xD1,0xD2,
 320:Middlewares/Third_Party/FatFs/src/ff.c **** 				0xC0,0xC1,0xC2,0xC3,0xC4,0xC5,0xC6,0xC7,0xC8,0xC9,0xCA,0xCB,0xCC,0xCD,0xCE,0xCF,0xD0,0xD1,0xD2,
 321:Middlewares/Third_Party/FatFs/src/ff.c **** 
 322:Middlewares/Third_Party/FatFs/src/ff.c **** #elif _CODE_PAGE == 1251 /* Cyrillic (Windows) */
 323:Middlewares/Third_Party/FatFs/src/ff.c **** #define _DF1S	0
 324:Middlewares/Third_Party/FatFs/src/ff.c **** #define _EXCVT {0x80,0x81,0x82,0x82,0x84,0x85,0x86,0x87,0x88,0x89,0x8A,0x8B,0x8C,0x8D,0x8E,0x8F,0x8
 325:Middlewares/Third_Party/FatFs/src/ff.c **** 				0xA0,0xA2,0xA2,0xA3,0xA4,0xA5,0xA6,0xA7,0xA8,0xA9,0xAA,0xAB,0xAC,0xAD,0xAE,0xAF,0xB0,0xB1,0xB2,
 326:Middlewares/Third_Party/FatFs/src/ff.c **** 				0xC0,0xC1,0xC2,0xC3,0xC4,0xC5,0xC6,0xC7,0xC8,0xC9,0xCA,0xCB,0xCC,0xCD,0xCE,0xCF,0xD0,0xD1,0xD2,
 327:Middlewares/Third_Party/FatFs/src/ff.c **** 				0xC0,0xC1,0xC2,0xC3,0xC4,0xC5,0xC6,0xC7,0xC8,0xC9,0xCA,0xCB,0xCC,0xCD,0xCE,0xCF,0xD0,0xD1,0xD2,
 328:Middlewares/Third_Party/FatFs/src/ff.c **** 
 329:Middlewares/Third_Party/FatFs/src/ff.c **** #elif _CODE_PAGE == 1252 /* Latin 1 (Windows) */
 330:Middlewares/Third_Party/FatFs/src/ff.c **** #define _DF1S	0
 331:Middlewares/Third_Party/FatFs/src/ff.c **** #define _EXCVT {0x80,0x81,0x82,0x83,0x84,0x85,0x86,0x87,0x88,0x89,0x8A,0x8B,0x8C,0x8D,0x8E,0x8F,0x9
 332:Middlewares/Third_Party/FatFs/src/ff.c **** 				0xA0,0x21,0xA2,0xA3,0xA4,0xA5,0xA6,0xA7,0xA8,0xA9,0xAA,0xAB,0xAC,0xAD,0xAE,0xAF,0xB0,0xB1,0xB2,
 333:Middlewares/Third_Party/FatFs/src/ff.c **** 				0xC0,0xC1,0xC2,0xC3,0xC4,0xC5,0xC6,0xC7,0xC8,0xC9,0xCA,0xCB,0xCC,0xCD,0xCE,0xCF,0xD0,0xD1,0xD2,
 334:Middlewares/Third_Party/FatFs/src/ff.c **** 				0xC0,0xC1,0xC2,0xC3,0xC4,0xC5,0xC6,0xC7,0xC8,0xC9,0xCA,0xCB,0xCC,0xCD,0xCE,0xCF,0xD0,0xD1,0xD2,
 335:Middlewares/Third_Party/FatFs/src/ff.c **** 
 336:Middlewares/Third_Party/FatFs/src/ff.c **** #elif _CODE_PAGE == 1253 /* Greek (Windows) */
 337:Middlewares/Third_Party/FatFs/src/ff.c **** #define _DF1S	0
 338:Middlewares/Third_Party/FatFs/src/ff.c **** #define _EXCVT {0x80,0x81,0x82,0x83,0x84,0x85,0x86,0x87,0x88,0x89,0x8A,0x8B,0x8C,0x8D,0x8E,0x8F,0x9
 339:Middlewares/Third_Party/FatFs/src/ff.c **** 				0xA0,0xA1,0xA2,0xA3,0xA4,0xA5,0xA6,0xA7,0xA8,0xA9,0xAA,0xAB,0xAC,0xAD,0xAE,0xAF,0xB0,0xB1,0xB2,
 340:Middlewares/Third_Party/FatFs/src/ff.c **** 				0xC0,0xC1,0xC2,0xC3,0xC4,0xC5,0xC6,0xC7,0xC8,0xC9,0xCA,0xCB,0xCC,0xCD,0xCE,0xCF,0xD0,0xD1,0xD2,
 341:Middlewares/Third_Party/FatFs/src/ff.c **** 				0xE0,0xC1,0xC2,0xC3,0xC4,0xC5,0xC6,0xC7,0xC8,0xC9,0xCA,0xCB,0xCC,0xCD,0xCE,0xCF,0xD0,0xD1,0xF2,
 342:Middlewares/Third_Party/FatFs/src/ff.c **** 
 343:Middlewares/Third_Party/FatFs/src/ff.c **** #elif _CODE_PAGE == 1254 /* Turkish (Windows) */
 344:Middlewares/Third_Party/FatFs/src/ff.c **** #define _DF1S	0
 345:Middlewares/Third_Party/FatFs/src/ff.c **** #define _EXCVT {0x80,0x81,0x82,0x83,0x84,0x85,0x86,0x87,0x88,0x89,0x8A,0x8B,0x8C,0x8D,0x8E,0x8F,0x9
 346:Middlewares/Third_Party/FatFs/src/ff.c **** 				0xA0,0x21,0xA2,0xA3,0xA4,0xA5,0xA6,0xA7,0xA8,0xA9,0xAA,0xAB,0xAC,0xAD,0xAE,0xAF,0xB0,0xB1,0xB2,
 347:Middlewares/Third_Party/FatFs/src/ff.c **** 				0xC0,0xC1,0xC2,0xC3,0xC4,0xC5,0xC6,0xC7,0xC8,0xC9,0xCA,0xCB,0xCC,0xCD,0xCE,0xCF,0xD0,0xD1,0xD2,
 348:Middlewares/Third_Party/FatFs/src/ff.c **** 				0xC0,0xC1,0xC2,0xC3,0xC4,0xC5,0xC6,0xC7,0xC8,0xC9,0xCA,0xCB,0xCC,0xCD,0xCE,0xCF,0xD0,0xD1,0xD2,
 349:Middlewares/Third_Party/FatFs/src/ff.c **** 
 350:Middlewares/Third_Party/FatFs/src/ff.c **** #elif _CODE_PAGE == 1255 /* Hebrew (Windows) */
 351:Middlewares/Third_Party/FatFs/src/ff.c **** #define _DF1S	0
 352:Middlewares/Third_Party/FatFs/src/ff.c **** #define _EXCVT {0x80,0x81,0x82,0x83,0x84,0x85,0x86,0x87,0x88,0x89,0x8A,0x8B,0x8C,0x8D,0x8E,0x8F,0x9
 353:Middlewares/Third_Party/FatFs/src/ff.c **** 				0xA0,0x21,0xA2,0xA3,0xA4,0xA5,0xA6,0xA7,0xA8,0xA9,0xAA,0xAB,0xAC,0xAD,0xAE,0xAF,0xB0,0xB1,0xB2,
 354:Middlewares/Third_Party/FatFs/src/ff.c **** 				0xC0,0xC1,0xC2,0xC3,0xC4,0xC5,0xC6,0xC7,0xC8,0xC9,0xCA,0xCB,0xCC,0xCD,0xCE,0xCF,0xD0,0xD1,0xD2,
 355:Middlewares/Third_Party/FatFs/src/ff.c **** 				0xE0,0xE1,0xE2,0xE3,0xE4,0xE5,0xE6,0xE7,0xE8,0xE9,0xEA,0xEB,0xEC,0xED,0xEE,0xEF,0xF0,0xF1,0xF2,
 356:Middlewares/Third_Party/FatFs/src/ff.c **** 
 357:Middlewares/Third_Party/FatFs/src/ff.c **** #elif _CODE_PAGE == 1256 /* Arabic (Windows) */
 358:Middlewares/Third_Party/FatFs/src/ff.c **** #define _DF1S	0
 359:Middlewares/Third_Party/FatFs/src/ff.c **** #define _EXCVT {0x80,0x81,0x82,0x83,0x84,0x85,0x86,0x87,0x88,0x89,0x8A,0x8B,0x8C,0x8D,0x8E,0x8F,0x9
 360:Middlewares/Third_Party/FatFs/src/ff.c **** 				0xA0,0xA1,0xA2,0xA3,0xA4,0xA5,0xA6,0xA7,0xA8,0xA9,0xAA,0xAB,0xAC,0xAD,0xAE,0xAF,0xB0,0xB1,0xB2,
 361:Middlewares/Third_Party/FatFs/src/ff.c **** 				0xC0,0xC1,0xC2,0xC3,0xC4,0xC5,0xC6,0xC7,0xC8,0xC9,0xCA,0xCB,0xCC,0xCD,0xCE,0xCF,0xD0,0xD1,0xD2,
 362:Middlewares/Third_Party/FatFs/src/ff.c **** 				0x41,0xE1,0x41,0xE3,0xE4,0xE5,0xE6,0x43,0x45,0x45,0x45,0x45,0xEC,0xED,0x49,0x49,0xF0,0xF1,0xF2,
 363:Middlewares/Third_Party/FatFs/src/ff.c **** 
 364:Middlewares/Third_Party/FatFs/src/ff.c **** #elif _CODE_PAGE == 1257 /* Baltic (Windows) */
 365:Middlewares/Third_Party/FatFs/src/ff.c **** #define _DF1S	0
 366:Middlewares/Third_Party/FatFs/src/ff.c **** #define _EXCVT {0x80,0x81,0x82,0x83,0x84,0x85,0x86,0x87,0x88,0x89,0x8A,0x8B,0x8C,0x8D,0x8E,0x8F,0x9
 367:Middlewares/Third_Party/FatFs/src/ff.c **** 				0xA0,0xA1,0xA2,0xA3,0xA4,0xA5,0xA6,0xA7,0xA8,0xA9,0xAA,0xAB,0xAC,0xAD,0xAE,0xAF,0xB0,0xB1,0xB2,
 368:Middlewares/Third_Party/FatFs/src/ff.c **** 				0xC0,0xC1,0xC2,0xC3,0xC4,0xC5,0xC6,0xC7,0xC8,0xC9,0xCA,0xCB,0xCC,0xCD,0xCE,0xCF,0xD0,0xD1,0xD2,
 369:Middlewares/Third_Party/FatFs/src/ff.c **** 				0xC0,0xC1,0xC2,0xC3,0xC4,0xC5,0xC6,0xC7,0xC8,0xC9,0xCA,0xCB,0xCC,0xCD,0xCE,0xCF,0xD0,0xD1,0xD2,
 370:Middlewares/Third_Party/FatFs/src/ff.c **** 
 371:Middlewares/Third_Party/FatFs/src/ff.c **** #elif _CODE_PAGE == 1258 /* Vietnam (OEM, Windows) */
 372:Middlewares/Third_Party/FatFs/src/ff.c **** #define _DF1S	0
 373:Middlewares/Third_Party/FatFs/src/ff.c **** #define _EXCVT {0x80,0x81,0x82,0x83,0x84,0x85,0x86,0x87,0x88,0x89,0x8A,0x8B,0x8C,0x8D,0x8E,0x8F,0x9
 374:Middlewares/Third_Party/FatFs/src/ff.c **** 				0xA0,0x21,0xA2,0xA3,0xA4,0xA5,0xA6,0xA7,0xA8,0xA9,0xAA,0xAB,0xAC,0xAD,0xAE,0xAF,0xB0,0xB1,0xB2,
ARM GAS  C:\Users\Admin\AppData\Local\Temp\cc3ZGI84.s 			page 8


 375:Middlewares/Third_Party/FatFs/src/ff.c **** 				0xC0,0xC1,0xC2,0xC3,0xC4,0xC5,0xC6,0xC7,0xC8,0xC9,0xCA,0xCB,0xCC,0xCD,0xCE,0xCF,0xD0,0xD1,0xD2,
 376:Middlewares/Third_Party/FatFs/src/ff.c **** 				0xC0,0xC1,0xC2,0xC3,0xC4,0xC5,0xC6,0xC7,0xC8,0xC9,0xCA,0xCB,0xEC,0xCD,0xCE,0xCF,0xD0,0xD1,0xF2,
 377:Middlewares/Third_Party/FatFs/src/ff.c **** 
 378:Middlewares/Third_Party/FatFs/src/ff.c **** #elif _CODE_PAGE == 1	/* ASCII (for only non-LFN cfg) */
 379:Middlewares/Third_Party/FatFs/src/ff.c **** #if _USE_LFN
 380:Middlewares/Third_Party/FatFs/src/ff.c **** #error Cannot use LFN feature without valid code page.
 381:Middlewares/Third_Party/FatFs/src/ff.c **** #endif
 382:Middlewares/Third_Party/FatFs/src/ff.c **** #define _DF1S	0
 383:Middlewares/Third_Party/FatFs/src/ff.c **** 
 384:Middlewares/Third_Party/FatFs/src/ff.c **** #else
 385:Middlewares/Third_Party/FatFs/src/ff.c **** #error Unknown code page
 386:Middlewares/Third_Party/FatFs/src/ff.c **** 
 387:Middlewares/Third_Party/FatFs/src/ff.c **** #endif
 388:Middlewares/Third_Party/FatFs/src/ff.c **** 
 389:Middlewares/Third_Party/FatFs/src/ff.c **** 
 390:Middlewares/Third_Party/FatFs/src/ff.c **** /* Character code support macros */
 391:Middlewares/Third_Party/FatFs/src/ff.c **** #define IsUpper(c)	(((c)>='A')&&((c)<='Z'))
 392:Middlewares/Third_Party/FatFs/src/ff.c **** #define IsLower(c)	(((c)>='a')&&((c)<='z'))
 393:Middlewares/Third_Party/FatFs/src/ff.c **** #define IsDigit(c)	(((c)>='0')&&((c)<='9'))
 394:Middlewares/Third_Party/FatFs/src/ff.c **** 
 395:Middlewares/Third_Party/FatFs/src/ff.c **** #if _DF1S		/* Code page is DBCS */
 396:Middlewares/Third_Party/FatFs/src/ff.c **** 
 397:Middlewares/Third_Party/FatFs/src/ff.c **** #ifdef _DF2S	/* Two 1st byte areas */
 398:Middlewares/Third_Party/FatFs/src/ff.c **** #define IsDBCS1(c)	(((BYTE)(c) >= _DF1S && (BYTE)(c) <= _DF1E) || ((BYTE)(c) >= _DF2S && (BYTE)(c) 
 399:Middlewares/Third_Party/FatFs/src/ff.c **** #else			/* One 1st byte area */
 400:Middlewares/Third_Party/FatFs/src/ff.c **** #define IsDBCS1(c)	((BYTE)(c) >= _DF1S && (BYTE)(c) <= _DF1E)
 401:Middlewares/Third_Party/FatFs/src/ff.c **** #endif
 402:Middlewares/Third_Party/FatFs/src/ff.c **** 
 403:Middlewares/Third_Party/FatFs/src/ff.c **** #ifdef _DS3S	/* Three 2nd byte areas */
 404:Middlewares/Third_Party/FatFs/src/ff.c **** #define IsDBCS2(c)	(((BYTE)(c) >= _DS1S && (BYTE)(c) <= _DS1E) || ((BYTE)(c) >= _DS2S && (BYTE)(c) 
 405:Middlewares/Third_Party/FatFs/src/ff.c **** #else			/* Two 2nd byte areas */
 406:Middlewares/Third_Party/FatFs/src/ff.c **** #define IsDBCS2(c)	(((BYTE)(c) >= _DS1S && (BYTE)(c) <= _DS1E) || ((BYTE)(c) >= _DS2S && (BYTE)(c) 
 407:Middlewares/Third_Party/FatFs/src/ff.c **** #endif
 408:Middlewares/Third_Party/FatFs/src/ff.c **** 
 409:Middlewares/Third_Party/FatFs/src/ff.c **** #else			/* Code page is SBCS */
 410:Middlewares/Third_Party/FatFs/src/ff.c **** 
 411:Middlewares/Third_Party/FatFs/src/ff.c **** #define IsDBCS1(c)	0
 412:Middlewares/Third_Party/FatFs/src/ff.c **** #define IsDBCS2(c)	0
 413:Middlewares/Third_Party/FatFs/src/ff.c **** 
 414:Middlewares/Third_Party/FatFs/src/ff.c **** #endif /* _DF1S */
 415:Middlewares/Third_Party/FatFs/src/ff.c **** 
 416:Middlewares/Third_Party/FatFs/src/ff.c **** 
 417:Middlewares/Third_Party/FatFs/src/ff.c **** /* Name status flags */
 418:Middlewares/Third_Party/FatFs/src/ff.c **** #define NSFLAG		11		/* Index of name status byte in fn[] */
 419:Middlewares/Third_Party/FatFs/src/ff.c **** #define NS_LOSS		0x01	/* Out of 8.3 format */
 420:Middlewares/Third_Party/FatFs/src/ff.c **** #define NS_LFN		0x02	/* Force to create LFN entry */
 421:Middlewares/Third_Party/FatFs/src/ff.c **** #define NS_LAST		0x04	/* Last segment */
 422:Middlewares/Third_Party/FatFs/src/ff.c **** #define NS_BODY		0x08	/* Lower case flag (body) */
 423:Middlewares/Third_Party/FatFs/src/ff.c **** #define NS_EXT		0x10	/* Lower case flag (ext) */
 424:Middlewares/Third_Party/FatFs/src/ff.c **** #define NS_DOT		0x20	/* Dot entry */
 425:Middlewares/Third_Party/FatFs/src/ff.c **** 
 426:Middlewares/Third_Party/FatFs/src/ff.c **** 
 427:Middlewares/Third_Party/FatFs/src/ff.c **** /* FAT sub-type boundaries (Differ from specs but correct for real DOS/Windows) */
 428:Middlewares/Third_Party/FatFs/src/ff.c **** #define MIN_FAT16	4086U	/* Minimum number of clusters as FAT16 */
 429:Middlewares/Third_Party/FatFs/src/ff.c **** #define	MIN_FAT32	65526U	/* Minimum number of clusters as FAT32 */
 430:Middlewares/Third_Party/FatFs/src/ff.c **** 
 431:Middlewares/Third_Party/FatFs/src/ff.c **** 
ARM GAS  C:\Users\Admin\AppData\Local\Temp\cc3ZGI84.s 			page 9


 432:Middlewares/Third_Party/FatFs/src/ff.c **** /* FatFs refers the members in the FAT structures as byte array instead of
 433:Middlewares/Third_Party/FatFs/src/ff.c **** / structure member because the structure is not binary compatible between
 434:Middlewares/Third_Party/FatFs/src/ff.c **** / different platforms */
 435:Middlewares/Third_Party/FatFs/src/ff.c **** 
 436:Middlewares/Third_Party/FatFs/src/ff.c **** #define BS_jmpBoot			0		/* x86 jump instruction (3) */
 437:Middlewares/Third_Party/FatFs/src/ff.c **** #define BS_OEMName			3		/* OEM name (8) */
 438:Middlewares/Third_Party/FatFs/src/ff.c **** #define BPB_BytsPerSec		11		/* Sector size [byte] (2) */
 439:Middlewares/Third_Party/FatFs/src/ff.c **** #define BPB_SecPerClus		13		/* Cluster size [sector] (1) */
 440:Middlewares/Third_Party/FatFs/src/ff.c **** #define BPB_RsvdSecCnt		14		/* Size of reserved area [sector] (2) */
 441:Middlewares/Third_Party/FatFs/src/ff.c **** #define BPB_NumFATs			16		/* Number of FAT copies (1) */
 442:Middlewares/Third_Party/FatFs/src/ff.c **** #define BPB_RootEntCnt		17		/* Number of root directory entries for FAT12/16 (2) */
 443:Middlewares/Third_Party/FatFs/src/ff.c **** #define BPB_TotSec16		19		/* Volume size [sector] (2) */
 444:Middlewares/Third_Party/FatFs/src/ff.c **** #define BPB_Media			21		/* Media descriptor (1) */
 445:Middlewares/Third_Party/FatFs/src/ff.c **** #define BPB_FATSz16			22		/* FAT size [sector] (2) */
 446:Middlewares/Third_Party/FatFs/src/ff.c **** #define BPB_SecPerTrk		24		/* Track size [sector] (2) */
 447:Middlewares/Third_Party/FatFs/src/ff.c **** #define BPB_NumHeads		26		/* Number of heads (2) */
 448:Middlewares/Third_Party/FatFs/src/ff.c **** #define BPB_HiddSec			28		/* Number of special hidden sectors (4) */
 449:Middlewares/Third_Party/FatFs/src/ff.c **** #define BPB_TotSec32		32		/* Volume size [sector] (4) */
 450:Middlewares/Third_Party/FatFs/src/ff.c **** #define BS_DrvNum			36		/* Physical drive number (2) */
 451:Middlewares/Third_Party/FatFs/src/ff.c **** #define BS_BootSig			38		/* Extended boot signature (1) */
 452:Middlewares/Third_Party/FatFs/src/ff.c **** #define BS_VolID			39		/* Volume serial number (4) */
 453:Middlewares/Third_Party/FatFs/src/ff.c **** #define BS_VolLab			43		/* Volume label (8) */
 454:Middlewares/Third_Party/FatFs/src/ff.c **** #define BS_FilSysType		54		/* File system type (1) */
 455:Middlewares/Third_Party/FatFs/src/ff.c **** #define BPB_FATSz32			36		/* FAT size [sector] (4) */
 456:Middlewares/Third_Party/FatFs/src/ff.c **** #define BPB_ExtFlags		40		/* Extended flags (2) */
 457:Middlewares/Third_Party/FatFs/src/ff.c **** #define BPB_FSVer			42		/* File system version (2) */
 458:Middlewares/Third_Party/FatFs/src/ff.c **** #define BPB_RootClus		44		/* Root directory first cluster (4) */
 459:Middlewares/Third_Party/FatFs/src/ff.c **** #define BPB_FSInfo			48		/* Offset of FSINFO sector (2) */
 460:Middlewares/Third_Party/FatFs/src/ff.c **** #define BPB_BkBootSec		50		/* Offset of backup boot sector (2) */
 461:Middlewares/Third_Party/FatFs/src/ff.c **** #define BS_DrvNum32			64		/* Physical drive number (2) */
 462:Middlewares/Third_Party/FatFs/src/ff.c **** #define BS_BootSig32		66		/* Extended boot signature (1) */
 463:Middlewares/Third_Party/FatFs/src/ff.c **** #define BS_VolID32			67		/* Volume serial number (4) */
 464:Middlewares/Third_Party/FatFs/src/ff.c **** #define BS_VolLab32			71		/* Volume label (8) */
 465:Middlewares/Third_Party/FatFs/src/ff.c **** #define BS_FilSysType32		82		/* File system type (1) */
 466:Middlewares/Third_Party/FatFs/src/ff.c **** #define	FSI_LeadSig			0		/* FSI: Leading signature (4) */
 467:Middlewares/Third_Party/FatFs/src/ff.c **** #define	FSI_StrucSig		484		/* FSI: Structure signature (4) */
 468:Middlewares/Third_Party/FatFs/src/ff.c **** #define	FSI_Free_Count		488		/* FSI: Number of free clusters (4) */
 469:Middlewares/Third_Party/FatFs/src/ff.c **** #define	FSI_Nxt_Free		492		/* FSI: Last allocated cluster (4) */
 470:Middlewares/Third_Party/FatFs/src/ff.c **** #define MBR_Table			446		/* MBR: Partition table offset (2) */
 471:Middlewares/Third_Party/FatFs/src/ff.c **** #define	SZ_PTE				16		/* MBR: Size of a partition table entry */
 472:Middlewares/Third_Party/FatFs/src/ff.c **** #define BS_55AA				510		/* Signature word (2) */
 473:Middlewares/Third_Party/FatFs/src/ff.c **** 
 474:Middlewares/Third_Party/FatFs/src/ff.c **** #define	DIR_Name			0		/* Short file name (11) */
 475:Middlewares/Third_Party/FatFs/src/ff.c **** #define	DIR_Attr			11		/* Attribute (1) */
 476:Middlewares/Third_Party/FatFs/src/ff.c **** #define	DIR_NTres			12		/* Lower case flag (1) */
 477:Middlewares/Third_Party/FatFs/src/ff.c **** #define DIR_CrtTimeTenth	13		/* Created time sub-second (1) */
 478:Middlewares/Third_Party/FatFs/src/ff.c **** #define	DIR_CrtTime			14		/* Created time (2) */
 479:Middlewares/Third_Party/FatFs/src/ff.c **** #define	DIR_CrtDate			16		/* Created date (2) */
 480:Middlewares/Third_Party/FatFs/src/ff.c **** #define DIR_LstAccDate		18		/* Last accessed date (2) */
 481:Middlewares/Third_Party/FatFs/src/ff.c **** #define	DIR_FstClusHI		20		/* Higher 16-bit of first cluster (2) */
 482:Middlewares/Third_Party/FatFs/src/ff.c **** #define	DIR_WrtTime			22		/* Modified time (2) */
 483:Middlewares/Third_Party/FatFs/src/ff.c **** #define	DIR_WrtDate			24		/* Modified date (2) */
 484:Middlewares/Third_Party/FatFs/src/ff.c **** #define	DIR_FstClusLO		26		/* Lower 16-bit of first cluster (2) */
 485:Middlewares/Third_Party/FatFs/src/ff.c **** #define	DIR_FileSize		28		/* File size (4) */
 486:Middlewares/Third_Party/FatFs/src/ff.c **** #define	LDIR_Ord			0		/* LFN entry order and LLE flag (1) */
 487:Middlewares/Third_Party/FatFs/src/ff.c **** #define	LDIR_Attr			11		/* LFN attribute (1) */
 488:Middlewares/Third_Party/FatFs/src/ff.c **** #define	LDIR_Type			12		/* LFN type (1) */
ARM GAS  C:\Users\Admin\AppData\Local\Temp\cc3ZGI84.s 			page 10


 489:Middlewares/Third_Party/FatFs/src/ff.c **** #define	LDIR_Chksum			13		/* Sum of corresponding SFN entry */
 490:Middlewares/Third_Party/FatFs/src/ff.c **** #define	LDIR_FstClusLO		26		/* Must be zero (0) */
 491:Middlewares/Third_Party/FatFs/src/ff.c **** #define	SZ_DIRE				32		/* Size of a directory entry */
 492:Middlewares/Third_Party/FatFs/src/ff.c **** #define	LLEF				0x40	/* Last long entry flag in LDIR_Ord */
 493:Middlewares/Third_Party/FatFs/src/ff.c **** #define	DDEM				0xE5	/* Deleted directory entry mark at DIR_Name[0] */
 494:Middlewares/Third_Party/FatFs/src/ff.c **** #define	RDDEM				0x05	/* Replacement of the character collides with DDEM */
 495:Middlewares/Third_Party/FatFs/src/ff.c **** 
 496:Middlewares/Third_Party/FatFs/src/ff.c **** 
 497:Middlewares/Third_Party/FatFs/src/ff.c **** 
 498:Middlewares/Third_Party/FatFs/src/ff.c **** 
 499:Middlewares/Third_Party/FatFs/src/ff.c **** /*------------------------------------------------------------*/
 500:Middlewares/Third_Party/FatFs/src/ff.c **** /* Module private work area                                   */
 501:Middlewares/Third_Party/FatFs/src/ff.c **** /*------------------------------------------------------------*/
 502:Middlewares/Third_Party/FatFs/src/ff.c **** /* Remark: Uninitialized variables with static duration are
 503:Middlewares/Third_Party/FatFs/src/ff.c **** /  guaranteed zero/null at start-up. If not, either the linker
 504:Middlewares/Third_Party/FatFs/src/ff.c **** /  or start-up routine being used is out of ANSI-C standard.
 505:Middlewares/Third_Party/FatFs/src/ff.c **** */
 506:Middlewares/Third_Party/FatFs/src/ff.c **** 
 507:Middlewares/Third_Party/FatFs/src/ff.c **** #if _VOLUMES < 1 || _VOLUMES > 9
 508:Middlewares/Third_Party/FatFs/src/ff.c **** #error Wrong _VOLUMES setting
 509:Middlewares/Third_Party/FatFs/src/ff.c **** #endif
 510:Middlewares/Third_Party/FatFs/src/ff.c **** static FATFS *FatFs[_VOLUMES];	/* Pointer to the file system objects (logical drives) */
 511:Middlewares/Third_Party/FatFs/src/ff.c **** static WORD Fsid;				/* File system mount ID */
 512:Middlewares/Third_Party/FatFs/src/ff.c **** 
 513:Middlewares/Third_Party/FatFs/src/ff.c **** #if _FS_RPATH && _VOLUMES >= 2
 514:Middlewares/Third_Party/FatFs/src/ff.c **** static BYTE CurrVol;			/* Current drive */
 515:Middlewares/Third_Party/FatFs/src/ff.c **** #endif
 516:Middlewares/Third_Party/FatFs/src/ff.c **** 
 517:Middlewares/Third_Party/FatFs/src/ff.c **** #if _FS_LOCK
 518:Middlewares/Third_Party/FatFs/src/ff.c **** static FILESEM Files[_FS_LOCK];	/* Open object lock semaphores */
 519:Middlewares/Third_Party/FatFs/src/ff.c **** #endif
 520:Middlewares/Third_Party/FatFs/src/ff.c **** 
 521:Middlewares/Third_Party/FatFs/src/ff.c **** #if _USE_LFN == 0			/* Non LFN feature */
 522:Middlewares/Third_Party/FatFs/src/ff.c **** #define	DEFINE_NAMEBUF		BYTE sfn[12]
 523:Middlewares/Third_Party/FatFs/src/ff.c **** #define INIT_BUF(dobj)		(dobj).fn = sfn
 524:Middlewares/Third_Party/FatFs/src/ff.c **** #define	FREE_BUF()
 525:Middlewares/Third_Party/FatFs/src/ff.c **** #else
 526:Middlewares/Third_Party/FatFs/src/ff.c **** #if _MAX_LFN < 12 || _MAX_LFN > 255
 527:Middlewares/Third_Party/FatFs/src/ff.c **** #error Wrong _MAX_LFN setting
 528:Middlewares/Third_Party/FatFs/src/ff.c **** #endif
 529:Middlewares/Third_Party/FatFs/src/ff.c **** #if _USE_LFN == 1			/* LFN feature with static working buffer */
 530:Middlewares/Third_Party/FatFs/src/ff.c **** static WCHAR LfnBuf[_MAX_LFN + 1];
 531:Middlewares/Third_Party/FatFs/src/ff.c **** #define	DEFINE_NAMEBUF		BYTE sfn[12]
 532:Middlewares/Third_Party/FatFs/src/ff.c **** #define INIT_BUF(dobj)		{ (dobj).fn = sfn; (dobj).lfn = LfnBuf; }
 533:Middlewares/Third_Party/FatFs/src/ff.c **** #define	FREE_BUF()
 534:Middlewares/Third_Party/FatFs/src/ff.c **** #elif _USE_LFN == 2 		/* LFN feature with dynamic working buffer on the stack */
 535:Middlewares/Third_Party/FatFs/src/ff.c **** #define	DEFINE_NAMEBUF		BYTE sfn[12]; WCHAR lbuf[_MAX_LFN + 1]
 536:Middlewares/Third_Party/FatFs/src/ff.c **** #define INIT_BUF(dobj)		{ (dobj).fn = sfn; (dobj).lfn = lbuf; }
 537:Middlewares/Third_Party/FatFs/src/ff.c **** #define	FREE_BUF()
 538:Middlewares/Third_Party/FatFs/src/ff.c **** #elif _USE_LFN == 3 		/* LFN feature with dynamic working buffer on the heap */
 539:Middlewares/Third_Party/FatFs/src/ff.c **** #define	DEFINE_NAMEBUF		BYTE sfn[12]; WCHAR *lfn
 540:Middlewares/Third_Party/FatFs/src/ff.c **** #define INIT_BUF(dobj)		{ lfn = ff_memalloc((_MAX_LFN + 1) * 2); if (!lfn) LEAVE_FF((dobj).fs, FR_N
 541:Middlewares/Third_Party/FatFs/src/ff.c **** #define	FREE_BUF()			ff_memfree(lfn)
 542:Middlewares/Third_Party/FatFs/src/ff.c **** #else
 543:Middlewares/Third_Party/FatFs/src/ff.c **** #error Wrong _USE_LFN setting
 544:Middlewares/Third_Party/FatFs/src/ff.c **** #endif
 545:Middlewares/Third_Party/FatFs/src/ff.c **** #endif
ARM GAS  C:\Users\Admin\AppData\Local\Temp\cc3ZGI84.s 			page 11


 546:Middlewares/Third_Party/FatFs/src/ff.c **** 
 547:Middlewares/Third_Party/FatFs/src/ff.c **** #ifdef _EXCVT
 548:Middlewares/Third_Party/FatFs/src/ff.c **** static const BYTE ExCvt[] = _EXCVT;	/* Upper conversion table for extended characters */
 549:Middlewares/Third_Party/FatFs/src/ff.c **** #endif
 550:Middlewares/Third_Party/FatFs/src/ff.c **** 
 551:Middlewares/Third_Party/FatFs/src/ff.c **** 
 552:Middlewares/Third_Party/FatFs/src/ff.c **** 
 553:Middlewares/Third_Party/FatFs/src/ff.c **** 
 554:Middlewares/Third_Party/FatFs/src/ff.c **** 
 555:Middlewares/Third_Party/FatFs/src/ff.c **** 
 556:Middlewares/Third_Party/FatFs/src/ff.c **** /*--------------------------------------------------------------------------
 557:Middlewares/Third_Party/FatFs/src/ff.c **** 
 558:Middlewares/Third_Party/FatFs/src/ff.c ****    Module Private Functions
 559:Middlewares/Third_Party/FatFs/src/ff.c **** 
 560:Middlewares/Third_Party/FatFs/src/ff.c **** ---------------------------------------------------------------------------*/
 561:Middlewares/Third_Party/FatFs/src/ff.c **** DWORD clust2sect (FATFS* fs, DWORD clst);
 562:Middlewares/Third_Party/FatFs/src/ff.c **** DWORD get_fat (FATFS* fs,	DWORD clst);
 563:Middlewares/Third_Party/FatFs/src/ff.c **** 
 564:Middlewares/Third_Party/FatFs/src/ff.c **** #if !_FS_READONLY
 565:Middlewares/Third_Party/FatFs/src/ff.c **** FRESULT put_fat (FATFS* fs,	DWORD clst,	DWORD val);
 566:Middlewares/Third_Party/FatFs/src/ff.c **** #endif /* !_FS_READONLY */
 567:Middlewares/Third_Party/FatFs/src/ff.c **** 
 568:Middlewares/Third_Party/FatFs/src/ff.c **** #if _USE_LFN
 569:Middlewares/Third_Party/FatFs/src/ff.c **** static void gen_numname (BYTE* dst, const BYTE* src, const WCHAR* lfn, UINT seq);
 570:Middlewares/Third_Party/FatFs/src/ff.c **** #endif /* !_USE_LFN */
 571:Middlewares/Third_Party/FatFs/src/ff.c **** 
 572:Middlewares/Third_Party/FatFs/src/ff.c **** 
 573:Middlewares/Third_Party/FatFs/src/ff.c **** 
 574:Middlewares/Third_Party/FatFs/src/ff.c **** /*-----------------------------------------------------------------------*/
 575:Middlewares/Third_Party/FatFs/src/ff.c **** /* String functions                                                      */
 576:Middlewares/Third_Party/FatFs/src/ff.c **** /*-----------------------------------------------------------------------*/
 577:Middlewares/Third_Party/FatFs/src/ff.c **** 
 578:Middlewares/Third_Party/FatFs/src/ff.c **** /* Copy memory to memory */
 579:Middlewares/Third_Party/FatFs/src/ff.c **** static
 580:Middlewares/Third_Party/FatFs/src/ff.c **** void mem_cpy (void* dst, const void* src, UINT cnt) {
  27              		.loc 1 580 53 view -0
  28              		.cfi_startproc
  29              		@ args = 0, pretend = 0, frame = 0
  30              		@ frame_needed = 0, uses_anonymous_args = 0
  31              		@ link register save eliminated.
 581:Middlewares/Third_Party/FatFs/src/ff.c **** 	BYTE *d = (BYTE*)dst;
  32              		.loc 1 581 2 view .LVU1
 582:Middlewares/Third_Party/FatFs/src/ff.c **** 	const BYTE *s = (const BYTE*)src;
  33              		.loc 1 582 2 view .LVU2
 583:Middlewares/Third_Party/FatFs/src/ff.c **** 
 584:Middlewares/Third_Party/FatFs/src/ff.c **** #if _WORD_ACCESS == 1
 585:Middlewares/Third_Party/FatFs/src/ff.c **** 	while (cnt >= sizeof (int)) {
 586:Middlewares/Third_Party/FatFs/src/ff.c **** 		*(int*)d = *(int*)s;
 587:Middlewares/Third_Party/FatFs/src/ff.c **** 		d += sizeof (int); s += sizeof (int);
 588:Middlewares/Third_Party/FatFs/src/ff.c **** 		cnt -= sizeof (int);
 589:Middlewares/Third_Party/FatFs/src/ff.c **** 	}
 590:Middlewares/Third_Party/FatFs/src/ff.c **** #endif
 591:Middlewares/Third_Party/FatFs/src/ff.c **** 	while (cnt--)
  34              		.loc 1 591 2 view .LVU3
  35              		.loc 1 591 8 is_stmt 0 view .LVU4
  36 0000 04E0     		b	.L2
  37              	.LVL1:
ARM GAS  C:\Users\Admin\AppData\Local\Temp\cc3ZGI84.s 			page 12


  38              	.L3:
 592:Middlewares/Third_Party/FatFs/src/ff.c **** 		*d++ = *s++;
  39              		.loc 1 592 3 is_stmt 1 view .LVU5
  40              		.loc 1 592 10 is_stmt 0 view .LVU6
  41 0002 11F8012B 		ldrb	r2, [r1], #1	@ zero_extendqisi2
  42              	.LVL2:
  43              		.loc 1 592 8 view .LVU7
  44 0006 00F8012B 		strb	r2, [r0], #1
  45              	.LVL3:
 591:Middlewares/Third_Party/FatFs/src/ff.c **** 		*d++ = *s++;
  46              		.loc 1 591 12 view .LVU8
  47 000a 1A46     		mov	r2, r3
  48              	.LVL4:
  49              	.L2:
 591:Middlewares/Third_Party/FatFs/src/ff.c **** 		*d++ = *s++;
  50              		.loc 1 591 8 is_stmt 1 view .LVU9
 591:Middlewares/Third_Party/FatFs/src/ff.c **** 		*d++ = *s++;
  51              		.loc 1 591 12 is_stmt 0 view .LVU10
  52 000c 531E     		subs	r3, r2, #1
  53              	.LVL5:
 591:Middlewares/Third_Party/FatFs/src/ff.c **** 		*d++ = *s++;
  54              		.loc 1 591 8 view .LVU11
  55 000e 002A     		cmp	r2, #0
  56 0010 F7D1     		bne	.L3
 593:Middlewares/Third_Party/FatFs/src/ff.c **** }
  57              		.loc 1 593 1 view .LVU12
  58 0012 7047     		bx	lr
  59              		.cfi_endproc
  60              	.LFE65:
  62              		.section	.text.mem_set,"ax",%progbits
  63              		.align	1
  64              		.syntax unified
  65              		.thumb
  66              		.thumb_func
  68              	mem_set:
  69              	.LVL6:
  70              	.LFB66:
 594:Middlewares/Third_Party/FatFs/src/ff.c **** 
 595:Middlewares/Third_Party/FatFs/src/ff.c **** /* Fill memory */
 596:Middlewares/Third_Party/FatFs/src/ff.c **** static
 597:Middlewares/Third_Party/FatFs/src/ff.c **** void mem_set (void* dst, int val, UINT cnt) {
  71              		.loc 1 597 45 is_stmt 1 view -0
  72              		.cfi_startproc
  73              		@ args = 0, pretend = 0, frame = 0
  74              		@ frame_needed = 0, uses_anonymous_args = 0
  75              		@ link register save eliminated.
 598:Middlewares/Third_Party/FatFs/src/ff.c **** 	BYTE *d = (BYTE*)dst;
  76              		.loc 1 598 2 view .LVU14
 599:Middlewares/Third_Party/FatFs/src/ff.c **** 
 600:Middlewares/Third_Party/FatFs/src/ff.c **** 	while (cnt--)
  77              		.loc 1 600 2 view .LVU15
  78              		.loc 1 600 8 is_stmt 0 view .LVU16
  79 0000 02E0     		b	.L5
  80              	.LVL7:
  81              	.L6:
 601:Middlewares/Third_Party/FatFs/src/ff.c **** 		*d++ = (BYTE)val;
  82              		.loc 1 601 3 is_stmt 1 view .LVU17
ARM GAS  C:\Users\Admin\AppData\Local\Temp\cc3ZGI84.s 			page 13


  83              		.loc 1 601 8 is_stmt 0 view .LVU18
  84 0002 00F8011B 		strb	r1, [r0], #1
  85              	.LVL8:
 600:Middlewares/Third_Party/FatFs/src/ff.c **** 		*d++ = (BYTE)val;
  86              		.loc 1 600 12 view .LVU19
  87 0006 1A46     		mov	r2, r3
  88              	.LVL9:
  89              	.L5:
 600:Middlewares/Third_Party/FatFs/src/ff.c **** 		*d++ = (BYTE)val;
  90              		.loc 1 600 8 is_stmt 1 view .LVU20
 600:Middlewares/Third_Party/FatFs/src/ff.c **** 		*d++ = (BYTE)val;
  91              		.loc 1 600 12 is_stmt 0 view .LVU21
  92 0008 531E     		subs	r3, r2, #1
  93              	.LVL10:
 600:Middlewares/Third_Party/FatFs/src/ff.c **** 		*d++ = (BYTE)val;
  94              		.loc 1 600 8 view .LVU22
  95 000a 002A     		cmp	r2, #0
  96 000c F9D1     		bne	.L6
 602:Middlewares/Third_Party/FatFs/src/ff.c **** }
  97              		.loc 1 602 1 view .LVU23
  98 000e 7047     		bx	lr
  99              		.cfi_endproc
 100              	.LFE66:
 102              		.section	.text.mem_cmp,"ax",%progbits
 103              		.align	1
 104              		.syntax unified
 105              		.thumb
 106              		.thumb_func
 108              	mem_cmp:
 109              	.LVL11:
 110              	.LFB67:
 603:Middlewares/Third_Party/FatFs/src/ff.c **** 
 604:Middlewares/Third_Party/FatFs/src/ff.c **** /* Compare memory to memory */
 605:Middlewares/Third_Party/FatFs/src/ff.c **** static
 606:Middlewares/Third_Party/FatFs/src/ff.c **** int mem_cmp (const void* dst, const void* src, UINT cnt) {
 111              		.loc 1 606 58 is_stmt 1 view -0
 112              		.cfi_startproc
 113              		@ args = 0, pretend = 0, frame = 0
 114              		@ frame_needed = 0, uses_anonymous_args = 0
 115              		@ link register save eliminated.
 116              		.loc 1 606 58 is_stmt 0 view .LVU25
 117 0000 10B4     		push	{r4}
 118              	.LCFI0:
 119              		.cfi_def_cfa_offset 4
 120              		.cfi_offset 4, -4
 121 0002 0346     		mov	r3, r0
 607:Middlewares/Third_Party/FatFs/src/ff.c **** 	const BYTE *d = (const BYTE *)dst, *s = (const BYTE *)src;
 122              		.loc 1 607 2 is_stmt 1 view .LVU26
 123              	.LVL12:
 608:Middlewares/Third_Party/FatFs/src/ff.c **** 	int r = 0;
 124              		.loc 1 608 2 view .LVU27
 609:Middlewares/Third_Party/FatFs/src/ff.c **** 
 610:Middlewares/Third_Party/FatFs/src/ff.c **** 	while (cnt-- && (r = *d++ - *s++) == 0) ;
 125              		.loc 1 610 2 view .LVU28
 608:Middlewares/Third_Party/FatFs/src/ff.c **** 	int r = 0;
 126              		.loc 1 608 6 is_stmt 0 view .LVU29
 127 0004 0020     		movs	r0, #0
ARM GAS  C:\Users\Admin\AppData\Local\Temp\cc3ZGI84.s 			page 14


 128              	.LVL13:
 129              	.L9:
 130              		.loc 1 610 42 is_stmt 1 discriminator 2 view .LVU30
 131              		.loc 1 610 8 discriminator 2 view .LVU31
 132 0006 1446     		mov	r4, r2
 133              		.loc 1 610 12 is_stmt 0 discriminator 2 view .LVU32
 134 0008 013A     		subs	r2, r2, #1
 135              	.LVL14:
 136              		.loc 1 610 8 discriminator 2 view .LVU33
 137 000a 34B1     		cbz	r4, .L7
 138              	.LVL15:
 139              		.loc 1 610 23 discriminator 1 view .LVU34
 140 000c 13F8010B 		ldrb	r0, [r3], #1	@ zero_extendqisi2
 141              	.LVL16:
 142              		.loc 1 610 30 discriminator 1 view .LVU35
 143 0010 11F801CB 		ldrb	ip, [r1], #1	@ zero_extendqisi2
 144              	.LVL17:
 145              		.loc 1 610 15 discriminator 1 view .LVU36
 146 0014 B0EB0C00 		subs	r0, r0, ip
 147              	.LVL18:
 148              		.loc 1 610 15 discriminator 1 view .LVU37
 149 0018 F5D0     		beq	.L9
 150              	.LVL19:
 151              	.L7:
 611:Middlewares/Third_Party/FatFs/src/ff.c **** 	return r;
 612:Middlewares/Third_Party/FatFs/src/ff.c **** }
 152              		.loc 1 612 1 view .LVU38
 153 001a 10BC     		pop	{r4}
 154              	.LCFI1:
 155              		.cfi_restore 4
 156              		.cfi_def_cfa_offset 0
 157 001c 7047     		bx	lr
 158              		.cfi_endproc
 159              	.LFE67:
 161              		.section	.text.chk_chr,"ax",%progbits
 162              		.align	1
 163              		.syntax unified
 164              		.thumb
 165              		.thumb_func
 167              	chk_chr:
 168              	.LVL20:
 169              	.LFB68:
 613:Middlewares/Third_Party/FatFs/src/ff.c **** 
 614:Middlewares/Third_Party/FatFs/src/ff.c **** /* Check if chr is contained in the string */
 615:Middlewares/Third_Party/FatFs/src/ff.c **** static
 616:Middlewares/Third_Party/FatFs/src/ff.c **** int chk_chr (const char* str, int chr) {
 170              		.loc 1 616 40 is_stmt 1 view -0
 171              		.cfi_startproc
 172              		@ args = 0, pretend = 0, frame = 0
 173              		@ frame_needed = 0, uses_anonymous_args = 0
 174              		@ link register save eliminated.
 175              		.loc 1 616 40 is_stmt 0 view .LVU40
 176 0000 0346     		mov	r3, r0
 617:Middlewares/Third_Party/FatFs/src/ff.c **** 	while (*str && *str != chr) str++;
 177              		.loc 1 617 2 is_stmt 1 view .LVU41
 178              		.loc 1 617 8 is_stmt 0 view .LVU42
 179 0002 00E0     		b	.L13
ARM GAS  C:\Users\Admin\AppData\Local\Temp\cc3ZGI84.s 			page 15


 180              	.LVL21:
 181              	.L15:
 182              		.loc 1 617 30 is_stmt 1 discriminator 3 view .LVU43
 183              		.loc 1 617 33 is_stmt 0 discriminator 3 view .LVU44
 184 0004 0133     		adds	r3, r3, #1
 185              	.LVL22:
 186              	.L13:
 187              		.loc 1 617 8 is_stmt 1 discriminator 1 view .LVU45
 188              		.loc 1 617 9 is_stmt 0 discriminator 1 view .LVU46
 189 0006 1878     		ldrb	r0, [r3]	@ zero_extendqisi2
 190              		.loc 1 617 8 discriminator 1 view .LVU47
 191 0008 08B1     		cbz	r0, .L14
 192              		.loc 1 617 14 discriminator 2 view .LVU48
 193 000a 8842     		cmp	r0, r1
 194 000c FAD1     		bne	.L15
 195              	.L14:
 618:Middlewares/Third_Party/FatFs/src/ff.c **** 	return *str;
 196              		.loc 1 618 2 is_stmt 1 view .LVU49
 619:Middlewares/Third_Party/FatFs/src/ff.c **** }
 197              		.loc 1 619 1 is_stmt 0 view .LVU50
 198 000e 7047     		bx	lr
 199              		.cfi_endproc
 200              	.LFE68:
 202              		.section	.text.chk_lock,"ax",%progbits
 203              		.align	1
 204              		.syntax unified
 205              		.thumb
 206              		.thumb_func
 208              	chk_lock:
 209              	.LVL23:
 210              	.LFB69:
 620:Middlewares/Third_Party/FatFs/src/ff.c **** 
 621:Middlewares/Third_Party/FatFs/src/ff.c **** 
 622:Middlewares/Third_Party/FatFs/src/ff.c **** 
 623:Middlewares/Third_Party/FatFs/src/ff.c **** 
 624:Middlewares/Third_Party/FatFs/src/ff.c **** /*-----------------------------------------------------------------------*/
 625:Middlewares/Third_Party/FatFs/src/ff.c **** /* Request/Release grant to access the volume                            */
 626:Middlewares/Third_Party/FatFs/src/ff.c **** /*-----------------------------------------------------------------------*/
 627:Middlewares/Third_Party/FatFs/src/ff.c **** #if _FS_REENTRANT
 628:Middlewares/Third_Party/FatFs/src/ff.c **** static
 629:Middlewares/Third_Party/FatFs/src/ff.c **** int lock_fs (
 630:Middlewares/Third_Party/FatFs/src/ff.c **** 	FATFS* fs		/* File system object */
 631:Middlewares/Third_Party/FatFs/src/ff.c **** )
 632:Middlewares/Third_Party/FatFs/src/ff.c **** {
 633:Middlewares/Third_Party/FatFs/src/ff.c **** 	return ff_req_grant(fs->sobj);
 634:Middlewares/Third_Party/FatFs/src/ff.c **** }
 635:Middlewares/Third_Party/FatFs/src/ff.c **** 
 636:Middlewares/Third_Party/FatFs/src/ff.c **** 
 637:Middlewares/Third_Party/FatFs/src/ff.c **** static
 638:Middlewares/Third_Party/FatFs/src/ff.c **** void unlock_fs (
 639:Middlewares/Third_Party/FatFs/src/ff.c **** 	FATFS* fs,		/* File system object */
 640:Middlewares/Third_Party/FatFs/src/ff.c **** 	FRESULT res		/* Result code to be returned */
 641:Middlewares/Third_Party/FatFs/src/ff.c **** )
 642:Middlewares/Third_Party/FatFs/src/ff.c **** {
 643:Middlewares/Third_Party/FatFs/src/ff.c **** 	if (fs &&
 644:Middlewares/Third_Party/FatFs/src/ff.c **** 		res != FR_NOT_ENABLED &&
 645:Middlewares/Third_Party/FatFs/src/ff.c **** 		res != FR_INVALID_DRIVE &&
ARM GAS  C:\Users\Admin\AppData\Local\Temp\cc3ZGI84.s 			page 16


 646:Middlewares/Third_Party/FatFs/src/ff.c **** 		res != FR_INVALID_OBJECT &&
 647:Middlewares/Third_Party/FatFs/src/ff.c **** 		res != FR_TIMEOUT) {
 648:Middlewares/Third_Party/FatFs/src/ff.c **** 		ff_rel_grant(fs->sobj);
 649:Middlewares/Third_Party/FatFs/src/ff.c **** 	}
 650:Middlewares/Third_Party/FatFs/src/ff.c **** }
 651:Middlewares/Third_Party/FatFs/src/ff.c **** #endif
 652:Middlewares/Third_Party/FatFs/src/ff.c **** 
 653:Middlewares/Third_Party/FatFs/src/ff.c **** 
 654:Middlewares/Third_Party/FatFs/src/ff.c **** 
 655:Middlewares/Third_Party/FatFs/src/ff.c **** 
 656:Middlewares/Third_Party/FatFs/src/ff.c **** /*-----------------------------------------------------------------------*/
 657:Middlewares/Third_Party/FatFs/src/ff.c **** /* File lock control functions                                           */
 658:Middlewares/Third_Party/FatFs/src/ff.c **** /*-----------------------------------------------------------------------*/
 659:Middlewares/Third_Party/FatFs/src/ff.c **** #if _FS_LOCK
 660:Middlewares/Third_Party/FatFs/src/ff.c **** 
 661:Middlewares/Third_Party/FatFs/src/ff.c **** static
 662:Middlewares/Third_Party/FatFs/src/ff.c **** FRESULT chk_lock (	/* Check if the file can be accessed */
 663:Middlewares/Third_Party/FatFs/src/ff.c **** 	DIR* dp,		/* Directory object pointing the file to be checked */
 664:Middlewares/Third_Party/FatFs/src/ff.c **** 	int acc			/* Desired access type (0:Read, 1:Write, 2:Delete/Rename) */
 665:Middlewares/Third_Party/FatFs/src/ff.c **** )
 666:Middlewares/Third_Party/FatFs/src/ff.c **** {
 211              		.loc 1 666 1 is_stmt 1 view -0
 212              		.cfi_startproc
 213              		@ args = 0, pretend = 0, frame = 0
 214              		@ frame_needed = 0, uses_anonymous_args = 0
 215              		@ link register save eliminated.
 216              		.loc 1 666 1 is_stmt 0 view .LVU52
 217 0000 30B4     		push	{r4, r5}
 218              	.LCFI2:
 219              		.cfi_def_cfa_offset 8
 220              		.cfi_offset 4, -8
 221              		.cfi_offset 5, -4
 667:Middlewares/Third_Party/FatFs/src/ff.c **** 	UINT i, be;
 222              		.loc 1 667 2 is_stmt 1 view .LVU53
 668:Middlewares/Third_Party/FatFs/src/ff.c **** 
 669:Middlewares/Third_Party/FatFs/src/ff.c **** 	/* Search file semaphore table */
 670:Middlewares/Third_Party/FatFs/src/ff.c **** 	for (i = be = 0; i < _FS_LOCK; i++) {
 223              		.loc 1 670 2 view .LVU54
 224              	.LVL24:
 225              		.loc 1 670 14 is_stmt 0 view .LVU55
 226 0002 0025     		movs	r5, #0
 227              		.loc 1 670 9 view .LVU56
 228 0004 2B46     		mov	r3, r5
 229              		.loc 1 670 2 view .LVU57
 230 0006 01E0     		b	.L17
 231              	.LVL25:
 232              	.L24:
 671:Middlewares/Third_Party/FatFs/src/ff.c **** 		if (Files[i].fs) {	/* Existing entry */
 672:Middlewares/Third_Party/FatFs/src/ff.c **** 			if (Files[i].fs == dp->fs &&	 	/* Check if the object matched with an open object */
 673:Middlewares/Third_Party/FatFs/src/ff.c **** 				Files[i].clu == dp->sclust &&
 674:Middlewares/Third_Party/FatFs/src/ff.c **** 				Files[i].idx == dp->index) break;
 675:Middlewares/Third_Party/FatFs/src/ff.c **** 		} else {			/* Blank entry */
 676:Middlewares/Third_Party/FatFs/src/ff.c **** 			be = 1;
 233              		.loc 1 676 7 view .LVU58
 234 0008 0125     		movs	r5, #1
 235              	.LVL26:
 236              	.L18:
ARM GAS  C:\Users\Admin\AppData\Local\Temp\cc3ZGI84.s 			page 17


 670:Middlewares/Third_Party/FatFs/src/ff.c **** 		if (Files[i].fs) {	/* Existing entry */
 237              		.loc 1 670 33 is_stmt 1 discriminator 2 view .LVU59
 670:Middlewares/Third_Party/FatFs/src/ff.c **** 		if (Files[i].fs) {	/* Existing entry */
 238              		.loc 1 670 34 is_stmt 0 discriminator 2 view .LVU60
 239 000a 0133     		adds	r3, r3, #1
 240              	.LVL27:
 241              	.L17:
 670:Middlewares/Third_Party/FatFs/src/ff.c **** 		if (Files[i].fs) {	/* Existing entry */
 242              		.loc 1 670 19 is_stmt 1 discriminator 1 view .LVU61
 670:Middlewares/Third_Party/FatFs/src/ff.c **** 		if (Files[i].fs) {	/* Existing entry */
 243              		.loc 1 670 2 is_stmt 0 discriminator 1 view .LVU62
 244 000c 012B     		cmp	r3, #1
 245 000e 21D8     		bhi	.L19
 671:Middlewares/Third_Party/FatFs/src/ff.c **** 		if (Files[i].fs) {	/* Existing entry */
 246              		.loc 1 671 3 is_stmt 1 view .LVU63
 671:Middlewares/Third_Party/FatFs/src/ff.c **** 		if (Files[i].fs) {	/* Existing entry */
 247              		.loc 1 671 15 is_stmt 0 view .LVU64
 248 0010 03EB4302 		add	r2, r3, r3, lsl #1
 249 0014 1D4C     		ldr	r4, .L33
 250 0016 54F82220 		ldr	r2, [r4, r2, lsl #2]
 671:Middlewares/Third_Party/FatFs/src/ff.c **** 		if (Files[i].fs) {	/* Existing entry */
 251              		.loc 1 671 6 view .LVU65
 252 001a 002A     		cmp	r2, #0
 253 001c F4D0     		beq	.L24
 672:Middlewares/Third_Party/FatFs/src/ff.c **** 				Files[i].clu == dp->sclust &&
 254              		.loc 1 672 4 is_stmt 1 view .LVU66
 672:Middlewares/Third_Party/FatFs/src/ff.c **** 				Files[i].clu == dp->sclust &&
 255              		.loc 1 672 25 is_stmt 0 view .LVU67
 256 001e 00F58054 		add	r4, r0, #4096
 257 0022 2468     		ldr	r4, [r4]
 672:Middlewares/Third_Party/FatFs/src/ff.c **** 				Files[i].clu == dp->sclust &&
 258              		.loc 1 672 7 view .LVU68
 259 0024 A242     		cmp	r2, r4
 260 0026 F0D1     		bne	.L18
 673:Middlewares/Third_Party/FatFs/src/ff.c **** 				Files[i].idx == dp->index) break;
 261              		.loc 1 673 13 discriminator 1 view .LVU69
 262 0028 03EB4302 		add	r2, r3, r3, lsl #1
 263 002c 174C     		ldr	r4, .L33
 264 002e 04EB8202 		add	r2, r4, r2, lsl #2
 265 0032 5468     		ldr	r4, [r2, #4]
 673:Middlewares/Third_Party/FatFs/src/ff.c **** 				Files[i].idx == dp->index) break;
 266              		.loc 1 673 23 discriminator 1 view .LVU70
 267 0034 00F58052 		add	r2, r0, #4096
 268 0038 9268     		ldr	r2, [r2, #8]
 672:Middlewares/Third_Party/FatFs/src/ff.c **** 				Files[i].clu == dp->sclust &&
 269              		.loc 1 672 30 discriminator 1 view .LVU71
 270 003a 9442     		cmp	r4, r2
 271 003c E5D1     		bne	.L18
 674:Middlewares/Third_Party/FatFs/src/ff.c **** 		} else {			/* Blank entry */
 272              		.loc 1 674 13 view .LVU72
 273 003e 03EB4302 		add	r2, r3, r3, lsl #1
 274 0042 124C     		ldr	r4, .L33
 275 0044 04EB8202 		add	r2, r4, r2, lsl #2
 276 0048 1489     		ldrh	r4, [r2, #8]
 674:Middlewares/Third_Party/FatFs/src/ff.c **** 		} else {			/* Blank entry */
 277              		.loc 1 674 23 view .LVU73
 278 004a 00F58052 		add	r2, r0, #4096
ARM GAS  C:\Users\Admin\AppData\Local\Temp\cc3ZGI84.s 			page 18


 279 004e D288     		ldrh	r2, [r2, #6]
 673:Middlewares/Third_Party/FatFs/src/ff.c **** 				Files[i].idx == dp->index) break;
 280              		.loc 1 673 32 view .LVU74
 281 0050 9442     		cmp	r4, r2
 282 0052 DAD1     		bne	.L18
 283              	.L19:
 677:Middlewares/Third_Party/FatFs/src/ff.c **** 		}
 678:Middlewares/Third_Party/FatFs/src/ff.c **** 	}
 679:Middlewares/Third_Party/FatFs/src/ff.c **** 	if (i == _FS_LOCK)	/* The object is not opened */
 284              		.loc 1 679 2 is_stmt 1 view .LVU75
 285              		.loc 1 679 5 is_stmt 0 view .LVU76
 286 0054 022B     		cmp	r3, #2
 287 0056 0CD0     		beq	.L30
 680:Middlewares/Third_Party/FatFs/src/ff.c **** 		return (be || acc == 2) ? FR_OK : FR_TOO_MANY_OPEN_FILES;	/* Is there a blank entry for new objec
 681:Middlewares/Third_Party/FatFs/src/ff.c **** 
 682:Middlewares/Third_Party/FatFs/src/ff.c **** 	/* The object has been opened. Reject any open against writing file and all write mode open */
 683:Middlewares/Third_Party/FatFs/src/ff.c **** 	return (acc || Files[i].ctr == 0x100) ? FR_LOCKED : FR_OK;
 288              		.loc 1 683 2 is_stmt 1 view .LVU77
 289              		.loc 1 683 52 is_stmt 0 view .LVU78
 290 0058 B1B9     		cbnz	r1, .L27
 291              		.loc 1 683 25 discriminator 2 view .LVU79
 292 005a 03EB4303 		add	r3, r3, r3, lsl #1
 293              	.LVL28:
 294              		.loc 1 683 25 discriminator 2 view .LVU80
 295 005e 0B4A     		ldr	r2, .L33
 296 0060 02EB8303 		add	r3, r2, r3, lsl #2
 297 0064 5B89     		ldrh	r3, [r3, #10]
 298              		.loc 1 683 14 discriminator 2 view .LVU81
 299 0066 B3F5807F 		cmp	r3, #256
 300 006a 0BD0     		beq	.L31
 301              		.loc 1 683 52 view .LVU82
 302 006c 0020     		movs	r0, #0
 303              	.LVL29:
 304              	.L23:
 684:Middlewares/Third_Party/FatFs/src/ff.c **** }
 305              		.loc 1 684 1 view .LVU83
 306 006e 30BC     		pop	{r4, r5}
 307              	.LCFI3:
 308              		.cfi_remember_state
 309              		.cfi_restore 5
 310              		.cfi_restore 4
 311              		.cfi_def_cfa_offset 0
 312              	.LVL30:
 313              		.loc 1 684 1 view .LVU84
 314 0070 7047     		bx	lr
 315              	.LVL31:
 316              	.L30:
 317              	.LCFI4:
 318              		.cfi_restore_state
 680:Middlewares/Third_Party/FatFs/src/ff.c **** 		return (be || acc == 2) ? FR_OK : FR_TOO_MANY_OPEN_FILES;	/* Is there a blank entry for new objec
 319              		.loc 1 680 3 is_stmt 1 view .LVU85
 680:Middlewares/Third_Party/FatFs/src/ff.c **** 		return (be || acc == 2) ? FR_OK : FR_TOO_MANY_OPEN_FILES;	/* Is there a blank entry for new objec
 320              		.loc 1 680 35 is_stmt 0 view .LVU86
 321 0072 2DB9     		cbnz	r5, .L25
 680:Middlewares/Third_Party/FatFs/src/ff.c **** 		return (be || acc == 2) ? FR_OK : FR_TOO_MANY_OPEN_FILES;	/* Is there a blank entry for new objec
 322              		.loc 1 680 14 discriminator 2 view .LVU87
 323 0074 0229     		cmp	r1, #2
ARM GAS  C:\Users\Admin\AppData\Local\Temp\cc3ZGI84.s 			page 19


 324 0076 01D0     		beq	.L32
 680:Middlewares/Third_Party/FatFs/src/ff.c **** 		return (be || acc == 2) ? FR_OK : FR_TOO_MANY_OPEN_FILES;	/* Is there a blank entry for new objec
 325              		.loc 1 680 35 view .LVU88
 326 0078 1220     		movs	r0, #18
 327              	.LVL32:
 680:Middlewares/Third_Party/FatFs/src/ff.c **** 		return (be || acc == 2) ? FR_OK : FR_TOO_MANY_OPEN_FILES;	/* Is there a blank entry for new objec
 328              		.loc 1 680 35 view .LVU89
 329 007a F8E7     		b	.L23
 330              	.LVL33:
 331              	.L32:
 680:Middlewares/Third_Party/FatFs/src/ff.c **** 		return (be || acc == 2) ? FR_OK : FR_TOO_MANY_OPEN_FILES;	/* Is there a blank entry for new objec
 332              		.loc 1 680 35 view .LVU90
 333 007c 0020     		movs	r0, #0
 334              	.LVL34:
 680:Middlewares/Third_Party/FatFs/src/ff.c **** 		return (be || acc == 2) ? FR_OK : FR_TOO_MANY_OPEN_FILES;	/* Is there a blank entry for new objec
 335              		.loc 1 680 35 view .LVU91
 336 007e F6E7     		b	.L23
 337              	.LVL35:
 338              	.L25:
 680:Middlewares/Third_Party/FatFs/src/ff.c **** 		return (be || acc == 2) ? FR_OK : FR_TOO_MANY_OPEN_FILES;	/* Is there a blank entry for new objec
 339              		.loc 1 680 35 view .LVU92
 340 0080 0020     		movs	r0, #0
 341              	.LVL36:
 680:Middlewares/Third_Party/FatFs/src/ff.c **** 		return (be || acc == 2) ? FR_OK : FR_TOO_MANY_OPEN_FILES;	/* Is there a blank entry for new objec
 342              		.loc 1 680 35 view .LVU93
 343 0082 F4E7     		b	.L23
 344              	.LVL37:
 345              	.L31:
 683:Middlewares/Third_Party/FatFs/src/ff.c **** }
 346              		.loc 1 683 52 view .LVU94
 347 0084 1020     		movs	r0, #16
 348              	.LVL38:
 683:Middlewares/Third_Party/FatFs/src/ff.c **** }
 349              		.loc 1 683 52 view .LVU95
 350 0086 F2E7     		b	.L23
 351              	.LVL39:
 352              	.L27:
 683:Middlewares/Third_Party/FatFs/src/ff.c **** }
 353              		.loc 1 683 52 view .LVU96
 354 0088 1020     		movs	r0, #16
 355              	.LVL40:
 683:Middlewares/Third_Party/FatFs/src/ff.c **** }
 356              		.loc 1 683 52 view .LVU97
 357 008a F0E7     		b	.L23
 358              	.L34:
 359              		.align	2
 360              	.L33:
 361 008c 00000000 		.word	.LANCHOR0
 362              		.cfi_endproc
 363              	.LFE69:
 365              		.section	.text.enq_lock,"ax",%progbits
 366              		.align	1
 367              		.syntax unified
 368              		.thumb
 369              		.thumb_func
 371              	enq_lock:
 372              	.LFB70:
ARM GAS  C:\Users\Admin\AppData\Local\Temp\cc3ZGI84.s 			page 20


 685:Middlewares/Third_Party/FatFs/src/ff.c **** 
 686:Middlewares/Third_Party/FatFs/src/ff.c **** 
 687:Middlewares/Third_Party/FatFs/src/ff.c **** static
 688:Middlewares/Third_Party/FatFs/src/ff.c **** int enq_lock (void)	/* Check if an entry is available for a new object */
 689:Middlewares/Third_Party/FatFs/src/ff.c **** {
 373              		.loc 1 689 1 is_stmt 1 view -0
 374              		.cfi_startproc
 375              		@ args = 0, pretend = 0, frame = 0
 376              		@ frame_needed = 0, uses_anonymous_args = 0
 377              		@ link register save eliminated.
 690:Middlewares/Third_Party/FatFs/src/ff.c **** 	UINT i;
 378              		.loc 1 690 2 view .LVU99
 691:Middlewares/Third_Party/FatFs/src/ff.c **** 
 692:Middlewares/Third_Party/FatFs/src/ff.c **** 	for (i = 0; i < _FS_LOCK && Files[i].fs; i++) ;
 379              		.loc 1 692 2 view .LVU100
 380              	.LVL41:
 381              		.loc 1 692 9 is_stmt 0 view .LVU101
 382 0000 0020     		movs	r0, #0
 383              		.loc 1 692 2 view .LVU102
 384 0002 00E0     		b	.L36
 385              	.LVL42:
 386              	.L38:
 387              		.loc 1 692 48 is_stmt 1 discriminator 4 view .LVU103
 388              		.loc 1 692 43 discriminator 4 view .LVU104
 389              		.loc 1 692 44 is_stmt 0 discriminator 4 view .LVU105
 390 0004 0130     		adds	r0, r0, #1
 391              	.LVL43:
 392              	.L36:
 393              		.loc 1 692 14 is_stmt 1 discriminator 1 view .LVU106
 394              		.loc 1 692 2 is_stmt 0 discriminator 1 view .LVU107
 395 0006 0128     		cmp	r0, #1
 396 0008 06D8     		bhi	.L37
 397              		.loc 1 692 38 discriminator 3 view .LVU108
 398 000a 00EB4002 		add	r2, r0, r0, lsl #1
 399 000e 9300     		lsls	r3, r2, #2
 400 0010 034A     		ldr	r2, .L39
 401 0012 D358     		ldr	r3, [r2, r3]
 402              		.loc 1 692 27 discriminator 3 view .LVU109
 403 0014 002B     		cmp	r3, #0
 404 0016 F5D1     		bne	.L38
 405              	.L37:
 693:Middlewares/Third_Party/FatFs/src/ff.c **** 	return (i == _FS_LOCK) ? 0 : 1;
 406              		.loc 1 693 2 is_stmt 1 view .LVU110
 694:Middlewares/Third_Party/FatFs/src/ff.c **** }
 407              		.loc 1 694 1 is_stmt 0 view .LVU111
 408 0018 0238     		subs	r0, r0, #2
 409              	.LVL44:
 410              		.loc 1 694 1 view .LVU112
 411 001a 18BF     		it	ne
 412 001c 0120     		movne	r0, #1
 413              	.LVL45:
 414              		.loc 1 694 1 view .LVU113
 415 001e 7047     		bx	lr
 416              	.L40:
 417              		.align	2
 418              	.L39:
 419 0020 00000000 		.word	.LANCHOR0
ARM GAS  C:\Users\Admin\AppData\Local\Temp\cc3ZGI84.s 			page 21


 420              		.cfi_endproc
 421              	.LFE70:
 423              		.section	.text.inc_lock,"ax",%progbits
 424              		.align	1
 425              		.syntax unified
 426              		.thumb
 427              		.thumb_func
 429              	inc_lock:
 430              	.LVL46:
 431              	.LFB71:
 695:Middlewares/Third_Party/FatFs/src/ff.c **** 
 696:Middlewares/Third_Party/FatFs/src/ff.c **** 
 697:Middlewares/Third_Party/FatFs/src/ff.c **** static
 698:Middlewares/Third_Party/FatFs/src/ff.c **** UINT inc_lock (	/* Increment object open counter and returns its index (0:Internal error) */
 699:Middlewares/Third_Party/FatFs/src/ff.c **** 	DIR* dp,	/* Directory object pointing the file to register or increment */
 700:Middlewares/Third_Party/FatFs/src/ff.c **** 	int acc		/* Desired access (0:Read, 1:Write, 2:Delete/Rename) */
 701:Middlewares/Third_Party/FatFs/src/ff.c **** )
 702:Middlewares/Third_Party/FatFs/src/ff.c **** {
 432              		.loc 1 702 1 is_stmt 1 view -0
 433              		.cfi_startproc
 434              		@ args = 0, pretend = 0, frame = 0
 435              		@ frame_needed = 0, uses_anonymous_args = 0
 436              		.loc 1 702 1 is_stmt 0 view .LVU115
 437 0000 10B5     		push	{r4, lr}
 438              	.LCFI5:
 439              		.cfi_def_cfa_offset 8
 440              		.cfi_offset 4, -8
 441              		.cfi_offset 14, -4
 703:Middlewares/Third_Party/FatFs/src/ff.c **** 	UINT i;
 442              		.loc 1 703 2 is_stmt 1 view .LVU116
 704:Middlewares/Third_Party/FatFs/src/ff.c **** 
 705:Middlewares/Third_Party/FatFs/src/ff.c **** 
 706:Middlewares/Third_Party/FatFs/src/ff.c **** 	for (i = 0; i < _FS_LOCK; i++) {	/* Find the object */
 443              		.loc 1 706 2 view .LVU117
 444              	.LVL47:
 445              		.loc 1 706 9 is_stmt 0 view .LVU118
 446 0002 0023     		movs	r3, #0
 447              		.loc 1 706 2 view .LVU119
 448 0004 00E0     		b	.L42
 449              	.LVL48:
 450              	.L43:
 451              		.loc 1 706 28 is_stmt 1 discriminator 2 view .LVU120
 452              		.loc 1 706 29 is_stmt 0 discriminator 2 view .LVU121
 453 0006 0133     		adds	r3, r3, #1
 454              	.LVL49:
 455              	.L42:
 456              		.loc 1 706 14 is_stmt 1 discriminator 1 view .LVU122
 457              		.loc 1 706 2 is_stmt 0 discriminator 1 view .LVU123
 458 0008 012B     		cmp	r3, #1
 459 000a 1FD8     		bhi	.L44
 707:Middlewares/Third_Party/FatFs/src/ff.c **** 		if (Files[i].fs == dp->fs &&
 460              		.loc 1 707 3 is_stmt 1 view .LVU124
 461              		.loc 1 707 15 is_stmt 0 view .LVU125
 462 000c 03EB4302 		add	r2, r3, r3, lsl #1
 463 0010 2F4C     		ldr	r4, .L59
 464 0012 54F82240 		ldr	r4, [r4, r2, lsl #2]
 465              		.loc 1 707 24 view .LVU126
ARM GAS  C:\Users\Admin\AppData\Local\Temp\cc3ZGI84.s 			page 22


 466 0016 00F58052 		add	r2, r0, #4096
 467 001a 1268     		ldr	r2, [r2]
 468              		.loc 1 707 6 view .LVU127
 469 001c 9442     		cmp	r4, r2
 470 001e F2D1     		bne	.L43
 708:Middlewares/Third_Party/FatFs/src/ff.c **** 			Files[i].clu == dp->sclust &&
 471              		.loc 1 708 12 discriminator 1 view .LVU128
 472 0020 03EB4302 		add	r2, r3, r3, lsl #1
 473 0024 2A4C     		ldr	r4, .L59
 474 0026 04EB8202 		add	r2, r4, r2, lsl #2
 475 002a 5468     		ldr	r4, [r2, #4]
 476              		.loc 1 708 22 discriminator 1 view .LVU129
 477 002c 00F58052 		add	r2, r0, #4096
 478 0030 9268     		ldr	r2, [r2, #8]
 707:Middlewares/Third_Party/FatFs/src/ff.c **** 		if (Files[i].fs == dp->fs &&
 479              		.loc 1 707 29 discriminator 1 view .LVU130
 480 0032 9442     		cmp	r4, r2
 481 0034 E7D1     		bne	.L43
 709:Middlewares/Third_Party/FatFs/src/ff.c **** 			Files[i].idx == dp->index) break;
 482              		.loc 1 709 12 view .LVU131
 483 0036 03EB4302 		add	r2, r3, r3, lsl #1
 484 003a 254C     		ldr	r4, .L59
 485 003c 04EB8202 		add	r2, r4, r2, lsl #2
 486 0040 1489     		ldrh	r4, [r2, #8]
 487              		.loc 1 709 22 view .LVU132
 488 0042 00F58052 		add	r2, r0, #4096
 489 0046 D288     		ldrh	r2, [r2, #6]
 708:Middlewares/Third_Party/FatFs/src/ff.c **** 			Files[i].clu == dp->sclust &&
 490              		.loc 1 708 31 view .LVU133
 491 0048 9442     		cmp	r4, r2
 492 004a DCD1     		bne	.L43
 493              	.L44:
 710:Middlewares/Third_Party/FatFs/src/ff.c **** 	}
 711:Middlewares/Third_Party/FatFs/src/ff.c **** 
 712:Middlewares/Third_Party/FatFs/src/ff.c **** 	if (i == _FS_LOCK) {				/* Not opened. Register it as new. */
 494              		.loc 1 712 2 is_stmt 1 view .LVU134
 495              		.loc 1 712 5 is_stmt 0 view .LVU135
 496 004c 022B     		cmp	r3, #2
 497 004e 12D0     		beq	.L58
 498              	.LVL50:
 499              	.L47:
 713:Middlewares/Third_Party/FatFs/src/ff.c **** 		for (i = 0; i < _FS_LOCK && Files[i].fs; i++) ;
 714:Middlewares/Third_Party/FatFs/src/ff.c **** 		if (i == _FS_LOCK) return 0;	/* No free entry to register (int err) */
 715:Middlewares/Third_Party/FatFs/src/ff.c **** 		Files[i].fs = dp->fs;
 716:Middlewares/Third_Party/FatFs/src/ff.c **** 		Files[i].clu = dp->sclust;
 717:Middlewares/Third_Party/FatFs/src/ff.c **** 		Files[i].idx = dp->index;
 718:Middlewares/Third_Party/FatFs/src/ff.c **** 		Files[i].ctr = 0;
 719:Middlewares/Third_Party/FatFs/src/ff.c **** 	}
 720:Middlewares/Third_Party/FatFs/src/ff.c **** 
 721:Middlewares/Third_Party/FatFs/src/ff.c **** 	if (acc && Files[i].ctr) return 0;	/* Access violation (int err) */
 500              		.loc 1 721 2 is_stmt 1 view .LVU136
 501              		.loc 1 721 5 is_stmt 0 view .LVU137
 502 0050 39B1     		cbz	r1, .L51
 503              		.loc 1 721 21 discriminator 1 view .LVU138
 504 0052 03EB4302 		add	r2, r3, r3, lsl #1
 505 0056 1E48     		ldr	r0, .L59
 506 0058 00EB8202 		add	r2, r0, r2, lsl #2
ARM GAS  C:\Users\Admin\AppData\Local\Temp\cc3ZGI84.s 			page 23


 507 005c 5289     		ldrh	r2, [r2, #10]
 508              		.loc 1 721 10 discriminator 1 view .LVU139
 509 005e 002A     		cmp	r2, #0
 510 0060 34D1     		bne	.L55
 511              	.L51:
 722:Middlewares/Third_Party/FatFs/src/ff.c **** 
 723:Middlewares/Third_Party/FatFs/src/ff.c **** 	Files[i].ctr = acc ? 0x100 : Files[i].ctr + 1;	/* Set semaphore value */
 512              		.loc 1 723 2 is_stmt 1 view .LVU140
 513              		.loc 1 723 15 is_stmt 0 view .LVU141
 514 0062 39BB     		cbnz	r1, .L56
 515              		.loc 1 723 39 discriminator 1 view .LVU142
 516 0064 03EB4302 		add	r2, r3, r3, lsl #1
 517 0068 1949     		ldr	r1, .L59
 518              	.LVL51:
 519              		.loc 1 723 39 discriminator 1 view .LVU143
 520 006a 01EB8202 		add	r2, r1, r2, lsl #2
 521 006e 5189     		ldrh	r1, [r2, #10]
 522              		.loc 1 723 15 discriminator 1 view .LVU144
 523 0070 0131     		adds	r1, r1, #1
 524 0072 89B2     		uxth	r1, r1
 525 0074 20E0     		b	.L52
 526              	.LVL52:
 527              	.L58:
 713:Middlewares/Third_Party/FatFs/src/ff.c **** 		for (i = 0; i < _FS_LOCK && Files[i].fs; i++) ;
 528              		.loc 1 713 10 view .LVU145
 529 0076 0023     		movs	r3, #0
 530              	.LVL53:
 531              	.L46:
 713:Middlewares/Third_Party/FatFs/src/ff.c **** 		for (i = 0; i < _FS_LOCK && Files[i].fs; i++) ;
 532              		.loc 1 713 15 is_stmt 1 discriminator 1 view .LVU146
 713:Middlewares/Third_Party/FatFs/src/ff.c **** 		for (i = 0; i < _FS_LOCK && Files[i].fs; i++) ;
 533              		.loc 1 713 3 is_stmt 0 discriminator 1 view .LVU147
 534 0078 012B     		cmp	r3, #1
 535 007a 07D8     		bhi	.L48
 713:Middlewares/Third_Party/FatFs/src/ff.c **** 		for (i = 0; i < _FS_LOCK && Files[i].fs; i++) ;
 536              		.loc 1 713 39 discriminator 3 view .LVU148
 537 007c 03EB4302 		add	r2, r3, r3, lsl #1
 538 0080 134C     		ldr	r4, .L59
 539 0082 54F82220 		ldr	r2, [r4, r2, lsl #2]
 713:Middlewares/Third_Party/FatFs/src/ff.c **** 		for (i = 0; i < _FS_LOCK && Files[i].fs; i++) ;
 540              		.loc 1 713 28 discriminator 3 view .LVU149
 541 0086 0AB1     		cbz	r2, .L48
 713:Middlewares/Third_Party/FatFs/src/ff.c **** 		for (i = 0; i < _FS_LOCK && Files[i].fs; i++) ;
 542              		.loc 1 713 49 is_stmt 1 discriminator 4 view .LVU150
 713:Middlewares/Third_Party/FatFs/src/ff.c **** 		for (i = 0; i < _FS_LOCK && Files[i].fs; i++) ;
 543              		.loc 1 713 44 discriminator 4 view .LVU151
 713:Middlewares/Third_Party/FatFs/src/ff.c **** 		for (i = 0; i < _FS_LOCK && Files[i].fs; i++) ;
 544              		.loc 1 713 45 is_stmt 0 discriminator 4 view .LVU152
 545 0088 0133     		adds	r3, r3, #1
 546              	.LVL54:
 713:Middlewares/Third_Party/FatFs/src/ff.c **** 		for (i = 0; i < _FS_LOCK && Files[i].fs; i++) ;
 547              		.loc 1 713 45 discriminator 4 view .LVU153
 548 008a F5E7     		b	.L46
 549              	.L48:
 714:Middlewares/Third_Party/FatFs/src/ff.c **** 		Files[i].fs = dp->fs;
 550              		.loc 1 714 3 is_stmt 1 view .LVU154
 714:Middlewares/Third_Party/FatFs/src/ff.c **** 		Files[i].fs = dp->fs;
ARM GAS  C:\Users\Admin\AppData\Local\Temp\cc3ZGI84.s 			page 24


 551              		.loc 1 714 6 is_stmt 0 view .LVU155
 552 008c 022B     		cmp	r3, #2
 553 008e 1BD0     		beq	.L54
 715:Middlewares/Third_Party/FatFs/src/ff.c **** 		Files[i].clu = dp->sclust;
 554              		.loc 1 715 3 is_stmt 1 view .LVU156
 715:Middlewares/Third_Party/FatFs/src/ff.c **** 		Files[i].clu = dp->sclust;
 555              		.loc 1 715 19 is_stmt 0 view .LVU157
 556 0090 00F58050 		add	r0, r0, #4096
 557              	.LVL55:
 715:Middlewares/Third_Party/FatFs/src/ff.c **** 		Files[i].clu = dp->sclust;
 558              		.loc 1 715 15 view .LVU158
 559 0094 0E4C     		ldr	r4, .L59
 560 0096 03EB430C 		add	ip, r3, r3, lsl #1
 561 009a 04EB8C02 		add	r2, r4, ip, lsl #2
 562 009e D0F800E0 		ldr	lr, [r0]
 563 00a2 44F82CE0 		str	lr, [r4, ip, lsl #2]
 716:Middlewares/Third_Party/FatFs/src/ff.c **** 		Files[i].idx = dp->index;
 564              		.loc 1 716 3 is_stmt 1 view .LVU159
 716:Middlewares/Third_Party/FatFs/src/ff.c **** 		Files[i].idx = dp->index;
 565              		.loc 1 716 20 is_stmt 0 view .LVU160
 566 00a6 8468     		ldr	r4, [r0, #8]
 716:Middlewares/Third_Party/FatFs/src/ff.c **** 		Files[i].idx = dp->index;
 567              		.loc 1 716 16 view .LVU161
 568 00a8 5460     		str	r4, [r2, #4]
 717:Middlewares/Third_Party/FatFs/src/ff.c **** 		Files[i].ctr = 0;
 569              		.loc 1 717 3 is_stmt 1 view .LVU162
 717:Middlewares/Third_Party/FatFs/src/ff.c **** 		Files[i].ctr = 0;
 570              		.loc 1 717 20 is_stmt 0 view .LVU163
 571 00aa C088     		ldrh	r0, [r0, #6]
 572              	.LVL56:
 717:Middlewares/Third_Party/FatFs/src/ff.c **** 		Files[i].ctr = 0;
 573              		.loc 1 717 16 view .LVU164
 574 00ac 1081     		strh	r0, [r2, #8]	@ movhi
 718:Middlewares/Third_Party/FatFs/src/ff.c **** 	}
 575              		.loc 1 718 3 is_stmt 1 view .LVU165
 718:Middlewares/Third_Party/FatFs/src/ff.c **** 	}
 576              		.loc 1 718 16 is_stmt 0 view .LVU166
 577 00ae 0020     		movs	r0, #0
 578 00b0 5081     		strh	r0, [r2, #10]	@ movhi
 579 00b2 CDE7     		b	.L47
 580              	.L56:
 581              		.loc 1 723 15 view .LVU167
 582 00b4 4FF48071 		mov	r1, #256
 583              	.LVL57:
 584              	.L52:
 585              		.loc 1 723 15 discriminator 4 view .LVU168
 586 00b8 03EB4300 		add	r0, r3, r3, lsl #1
 587 00bc 044A     		ldr	r2, .L59
 588 00be 02EB8002 		add	r2, r2, r0, lsl #2
 589 00c2 5181     		strh	r1, [r2, #10]	@ movhi
 724:Middlewares/Third_Party/FatFs/src/ff.c **** 
 725:Middlewares/Third_Party/FatFs/src/ff.c **** 	return i + 1;
 590              		.loc 1 725 2 is_stmt 1 discriminator 4 view .LVU169
 591              		.loc 1 725 11 is_stmt 0 discriminator 4 view .LVU170
 592 00c4 581C     		adds	r0, r3, #1
 593              	.L41:
 726:Middlewares/Third_Party/FatFs/src/ff.c **** }
ARM GAS  C:\Users\Admin\AppData\Local\Temp\cc3ZGI84.s 			page 25


 594              		.loc 1 726 1 view .LVU171
 595 00c6 10BD     		pop	{r4, pc}
 596              	.LVL58:
 597              	.L54:
 714:Middlewares/Third_Party/FatFs/src/ff.c **** 		Files[i].fs = dp->fs;
 598              		.loc 1 714 29 view .LVU172
 599 00c8 0020     		movs	r0, #0
 600              	.LVL59:
 714:Middlewares/Third_Party/FatFs/src/ff.c **** 		Files[i].fs = dp->fs;
 601              		.loc 1 714 29 view .LVU173
 602 00ca FCE7     		b	.L41
 603              	.L55:
 721:Middlewares/Third_Party/FatFs/src/ff.c **** 
 604              		.loc 1 721 34 view .LVU174
 605 00cc 0020     		movs	r0, #0
 606 00ce FAE7     		b	.L41
 607              	.L60:
 608              		.align	2
 609              	.L59:
 610 00d0 00000000 		.word	.LANCHOR0
 611              		.cfi_endproc
 612              	.LFE71:
 614              		.section	.text.dec_lock,"ax",%progbits
 615              		.align	1
 616              		.syntax unified
 617              		.thumb
 618              		.thumb_func
 620              	dec_lock:
 621              	.LVL60:
 622              	.LFB72:
 727:Middlewares/Third_Party/FatFs/src/ff.c **** 
 728:Middlewares/Third_Party/FatFs/src/ff.c **** 
 729:Middlewares/Third_Party/FatFs/src/ff.c **** static
 730:Middlewares/Third_Party/FatFs/src/ff.c **** FRESULT dec_lock (	/* Decrement object open counter */
 731:Middlewares/Third_Party/FatFs/src/ff.c **** 	UINT i			/* Semaphore index (1..) */
 732:Middlewares/Third_Party/FatFs/src/ff.c **** )
 733:Middlewares/Third_Party/FatFs/src/ff.c **** {
 623              		.loc 1 733 1 is_stmt 1 view -0
 624              		.cfi_startproc
 625              		@ args = 0, pretend = 0, frame = 0
 626              		@ frame_needed = 0, uses_anonymous_args = 0
 627              		@ link register save eliminated.
 734:Middlewares/Third_Party/FatFs/src/ff.c **** 	WORD n;
 628              		.loc 1 734 2 view .LVU176
 735:Middlewares/Third_Party/FatFs/src/ff.c **** 	FRESULT res;
 629              		.loc 1 735 2 view .LVU177
 736:Middlewares/Third_Party/FatFs/src/ff.c **** 
 737:Middlewares/Third_Party/FatFs/src/ff.c **** 
 738:Middlewares/Third_Party/FatFs/src/ff.c **** 	if (--i < _FS_LOCK) {	/* Shift index number origin from 0 */
 630              		.loc 1 738 2 view .LVU178
 631              		.loc 1 738 5 is_stmt 0 view .LVU179
 632 0000 0138     		subs	r0, r0, #1
 633              	.LVL61:
 634              		.loc 1 738 5 view .LVU180
 635 0002 0128     		cmp	r0, #1
 636 0004 1AD8     		bhi	.L64
 739:Middlewares/Third_Party/FatFs/src/ff.c **** 		n = Files[i].ctr;
ARM GAS  C:\Users\Admin\AppData\Local\Temp\cc3ZGI84.s 			page 26


 637              		.loc 1 739 3 is_stmt 1 view .LVU181
 638              		.loc 1 739 5 is_stmt 0 view .LVU182
 639 0006 00EB4003 		add	r3, r0, r0, lsl #1
 640 000a 0E4A     		ldr	r2, .L67
 641 000c 02EB8303 		add	r3, r2, r3, lsl #2
 642 0010 5B89     		ldrh	r3, [r3, #10]
 643              	.LVL62:
 740:Middlewares/Third_Party/FatFs/src/ff.c **** 		if (n == 0x100) n = 0;		/* If write mode open, delete the entry */
 644              		.loc 1 740 3 is_stmt 1 view .LVU183
 645              		.loc 1 740 6 is_stmt 0 view .LVU184
 646 0012 B3F5807F 		cmp	r3, #256
 647 0016 03D0     		beq	.L65
 741:Middlewares/Third_Party/FatFs/src/ff.c **** 		if (n) n--;					/* Decrement read mode open count */
 648              		.loc 1 741 3 is_stmt 1 view .LVU185
 649              		.loc 1 741 6 is_stmt 0 view .LVU186
 650 0018 1BB1     		cbz	r3, .L63
 651              		.loc 1 741 10 is_stmt 1 discriminator 1 view .LVU187
 652              		.loc 1 741 11 is_stmt 0 discriminator 1 view .LVU188
 653 001a 013B     		subs	r3, r3, #1
 654              	.LVL63:
 655              		.loc 1 741 11 discriminator 1 view .LVU189
 656 001c 9BB2     		uxth	r3, r3
 657              	.LVL64:
 658              		.loc 1 741 11 discriminator 1 view .LVU190
 659 001e 00E0     		b	.L63
 660              	.L65:
 740:Middlewares/Third_Party/FatFs/src/ff.c **** 		if (n == 0x100) n = 0;		/* If write mode open, delete the entry */
 661              		.loc 1 740 21 view .LVU191
 662 0020 0023     		movs	r3, #0
 663              	.LVL65:
 664              	.L63:
 742:Middlewares/Third_Party/FatFs/src/ff.c **** 		Files[i].ctr = n;
 665              		.loc 1 742 3 is_stmt 1 view .LVU192
 666              		.loc 1 742 16 is_stmt 0 view .LVU193
 667 0022 00EB4002 		add	r2, r0, r0, lsl #1
 668 0026 0749     		ldr	r1, .L67
 669 0028 01EB8202 		add	r2, r1, r2, lsl #2
 670 002c 5381     		strh	r3, [r2, #10]	@ movhi
 743:Middlewares/Third_Party/FatFs/src/ff.c **** 		if (!n) Files[i].fs = 0;	/* Delete the entry if open count gets zero */
 671              		.loc 1 743 3 is_stmt 1 view .LVU194
 672              		.loc 1 743 6 is_stmt 0 view .LVU195
 673 002e 3BB9     		cbnz	r3, .L66
 674              		.loc 1 743 11 is_stmt 1 discriminator 1 view .LVU196
 675              		.loc 1 743 23 is_stmt 0 discriminator 1 view .LVU197
 676 0030 00EB4000 		add	r0, r0, r0, lsl #1
 677              	.LVL66:
 678              		.loc 1 743 23 discriminator 1 view .LVU198
 679 0034 8300     		lsls	r3, r0, #2
 680              	.LVL67:
 681              		.loc 1 743 23 discriminator 1 view .LVU199
 682 0036 0020     		movs	r0, #0
 683 0038 C850     		str	r0, [r1, r3]
 684 003a 7047     		bx	lr
 685              	.LVL68:
 686              	.L64:
 744:Middlewares/Third_Party/FatFs/src/ff.c **** 		res = FR_OK;
 745:Middlewares/Third_Party/FatFs/src/ff.c **** 	} else {
ARM GAS  C:\Users\Admin\AppData\Local\Temp\cc3ZGI84.s 			page 27


 746:Middlewares/Third_Party/FatFs/src/ff.c **** 		res = FR_INT_ERR;			/* Invalid index nunber */
 687              		.loc 1 746 7 view .LVU200
 688 003c 0220     		movs	r0, #2
 689              	.LVL69:
 690              		.loc 1 746 7 view .LVU201
 691 003e 7047     		bx	lr
 692              	.LVL70:
 693              	.L66:
 744:Middlewares/Third_Party/FatFs/src/ff.c **** 		res = FR_OK;
 694              		.loc 1 744 7 view .LVU202
 695 0040 0020     		movs	r0, #0
 696              	.LVL71:
 747:Middlewares/Third_Party/FatFs/src/ff.c **** 	}
 748:Middlewares/Third_Party/FatFs/src/ff.c **** 	return res;
 697              		.loc 1 748 2 is_stmt 1 view .LVU203
 749:Middlewares/Third_Party/FatFs/src/ff.c **** }
 698              		.loc 1 749 1 is_stmt 0 view .LVU204
 699 0042 7047     		bx	lr
 700              	.L68:
 701              		.align	2
 702              	.L67:
 703 0044 00000000 		.word	.LANCHOR0
 704              		.cfi_endproc
 705              	.LFE72:
 707              		.section	.text.clear_lock,"ax",%progbits
 708              		.align	1
 709              		.syntax unified
 710              		.thumb
 711              		.thumb_func
 713              	clear_lock:
 714              	.LVL72:
 715              	.LFB73:
 750:Middlewares/Third_Party/FatFs/src/ff.c **** 
 751:Middlewares/Third_Party/FatFs/src/ff.c **** 
 752:Middlewares/Third_Party/FatFs/src/ff.c **** static
 753:Middlewares/Third_Party/FatFs/src/ff.c **** void clear_lock (	/* Clear lock entries of the volume */
 754:Middlewares/Third_Party/FatFs/src/ff.c **** 	FATFS *fs
 755:Middlewares/Third_Party/FatFs/src/ff.c **** )
 756:Middlewares/Third_Party/FatFs/src/ff.c **** {
 716              		.loc 1 756 1 is_stmt 1 view -0
 717              		.cfi_startproc
 718              		@ args = 0, pretend = 0, frame = 0
 719              		@ frame_needed = 0, uses_anonymous_args = 0
 720              		@ link register save eliminated.
 757:Middlewares/Third_Party/FatFs/src/ff.c **** 	UINT i;
 721              		.loc 1 757 2 view .LVU206
 758:Middlewares/Third_Party/FatFs/src/ff.c **** 
 759:Middlewares/Third_Party/FatFs/src/ff.c **** 	for (i = 0; i < _FS_LOCK; i++) {
 722              		.loc 1 759 2 view .LVU207
 723              		.loc 1 759 9 is_stmt 0 view .LVU208
 724 0000 0023     		movs	r3, #0
 725              		.loc 1 759 2 view .LVU209
 726 0002 02E0     		b	.L74
 727              	.LVL73:
 728              	.L81:
 729              	.LCFI6:
 730              		.cfi_def_cfa_offset 4
ARM GAS  C:\Users\Admin\AppData\Local\Temp\cc3ZGI84.s 			page 28


 731              		.cfi_offset 4, -4
 760:Middlewares/Third_Party/FatFs/src/ff.c **** 		if (Files[i].fs == fs) Files[i].fs = 0;
 761:Middlewares/Third_Party/FatFs/src/ff.c **** 	}
 762:Middlewares/Third_Party/FatFs/src/ff.c **** }
 732              		.loc 1 762 1 view .LVU210
 733 0004 10BC     		pop	{r4}
 734              	.LCFI7:
 735              		.cfi_restore 4
 736              		.cfi_def_cfa_offset 0
 737 0006 7047     		bx	lr
 738              	.L80:
 759:Middlewares/Third_Party/FatFs/src/ff.c **** 		if (Files[i].fs == fs) Files[i].fs = 0;
 739              		.loc 1 759 28 is_stmt 1 view .LVU211
 759:Middlewares/Third_Party/FatFs/src/ff.c **** 		if (Files[i].fs == fs) Files[i].fs = 0;
 740              		.loc 1 759 29 is_stmt 0 view .LVU212
 741 0008 0133     		adds	r3, r3, #1
 742              	.LVL74:
 743              	.L74:
 759:Middlewares/Third_Party/FatFs/src/ff.c **** 		if (Files[i].fs == fs) Files[i].fs = 0;
 744              		.loc 1 759 14 is_stmt 1 view .LVU213
 759:Middlewares/Third_Party/FatFs/src/ff.c **** 		if (Files[i].fs == fs) Files[i].fs = 0;
 745              		.loc 1 759 2 is_stmt 0 view .LVU214
 746 000a 012B     		cmp	r3, #1
 747 000c 17D8     		bhi	.L79
 760:Middlewares/Third_Party/FatFs/src/ff.c **** 		if (Files[i].fs == fs) Files[i].fs = 0;
 748              		.loc 1 760 3 is_stmt 1 view .LVU215
 760:Middlewares/Third_Party/FatFs/src/ff.c **** 		if (Files[i].fs == fs) Files[i].fs = 0;
 749              		.loc 1 760 15 is_stmt 0 view .LVU216
 750 000e 03EB4302 		add	r2, r3, r3, lsl #1
 751 0012 0B49     		ldr	r1, .L82
 752 0014 51F82220 		ldr	r2, [r1, r2, lsl #2]
 760:Middlewares/Third_Party/FatFs/src/ff.c **** 		if (Files[i].fs == fs) Files[i].fs = 0;
 753              		.loc 1 760 6 view .LVU217
 754 0018 8242     		cmp	r2, r0
 755 001a F5D1     		bne	.L80
 756:Middlewares/Third_Party/FatFs/src/ff.c **** 	UINT i;
 756              		.loc 1 756 1 view .LVU218
 757 001c 10B4     		push	{r4}
 758              	.LCFI8:
 759              		.cfi_def_cfa_offset 4
 760              		.cfi_offset 4, -4
 761              	.L75:
 760:Middlewares/Third_Party/FatFs/src/ff.c **** 		if (Files[i].fs == fs) Files[i].fs = 0;
 762              		.loc 1 760 26 is_stmt 1 discriminator 1 view .LVU219
 760:Middlewares/Third_Party/FatFs/src/ff.c **** 		if (Files[i].fs == fs) Files[i].fs = 0;
 763              		.loc 1 760 38 is_stmt 0 discriminator 1 view .LVU220
 764 001e 03EB4302 		add	r2, r3, r3, lsl #1
 765 0022 9200     		lsls	r2, r2, #2
 766 0024 0024     		movs	r4, #0
 767 0026 8C50     		str	r4, [r1, r2]
 768              	.L71:
 759:Middlewares/Third_Party/FatFs/src/ff.c **** 		if (Files[i].fs == fs) Files[i].fs = 0;
 769              		.loc 1 759 28 is_stmt 1 discriminator 2 view .LVU221
 759:Middlewares/Third_Party/FatFs/src/ff.c **** 		if (Files[i].fs == fs) Files[i].fs = 0;
 770              		.loc 1 759 29 is_stmt 0 discriminator 2 view .LVU222
 771 0028 0133     		adds	r3, r3, #1
 772              	.LVL75:
ARM GAS  C:\Users\Admin\AppData\Local\Temp\cc3ZGI84.s 			page 29


 759:Middlewares/Third_Party/FatFs/src/ff.c **** 		if (Files[i].fs == fs) Files[i].fs = 0;
 773              		.loc 1 759 14 is_stmt 1 discriminator 2 view .LVU223
 759:Middlewares/Third_Party/FatFs/src/ff.c **** 		if (Files[i].fs == fs) Files[i].fs = 0;
 774              		.loc 1 759 2 is_stmt 0 discriminator 2 view .LVU224
 775 002a 012B     		cmp	r3, #1
 776 002c EAD8     		bhi	.L81
 760:Middlewares/Third_Party/FatFs/src/ff.c **** 		if (Files[i].fs == fs) Files[i].fs = 0;
 777              		.loc 1 760 3 is_stmt 1 view .LVU225
 760:Middlewares/Third_Party/FatFs/src/ff.c **** 		if (Files[i].fs == fs) Files[i].fs = 0;
 778              		.loc 1 760 15 is_stmt 0 view .LVU226
 779 002e 03EB4302 		add	r2, r3, r3, lsl #1
 780 0032 0349     		ldr	r1, .L82
 781 0034 51F82220 		ldr	r2, [r1, r2, lsl #2]
 760:Middlewares/Third_Party/FatFs/src/ff.c **** 		if (Files[i].fs == fs) Files[i].fs = 0;
 782              		.loc 1 760 6 view .LVU227
 783 0038 8242     		cmp	r2, r0
 784 003a F5D1     		bne	.L71
 785 003c EFE7     		b	.L75
 786              	.L79:
 787              	.LCFI9:
 788              		.cfi_def_cfa_offset 0
 789              		.cfi_restore 4
 760:Middlewares/Third_Party/FatFs/src/ff.c **** 		if (Files[i].fs == fs) Files[i].fs = 0;
 790              		.loc 1 760 6 view .LVU228
 791 003e 7047     		bx	lr
 792              	.L83:
 793              		.align	2
 794              	.L82:
 795 0040 00000000 		.word	.LANCHOR0
 796              		.cfi_endproc
 797              	.LFE73:
 799              		.section	.text.clmt_clust,"ax",%progbits
 800              		.align	1
 801              		.syntax unified
 802              		.thumb
 803              		.thumb_func
 805              	clmt_clust:
 806              	.LVL76:
 807              	.LFB82:
 763:Middlewares/Third_Party/FatFs/src/ff.c **** #endif
 764:Middlewares/Third_Party/FatFs/src/ff.c **** 
 765:Middlewares/Third_Party/FatFs/src/ff.c **** 
 766:Middlewares/Third_Party/FatFs/src/ff.c **** 
 767:Middlewares/Third_Party/FatFs/src/ff.c **** 
 768:Middlewares/Third_Party/FatFs/src/ff.c **** /*-----------------------------------------------------------------------*/
 769:Middlewares/Third_Party/FatFs/src/ff.c **** /* Move/Flush disk access window in the file system object               */
 770:Middlewares/Third_Party/FatFs/src/ff.c **** /*-----------------------------------------------------------------------*/
 771:Middlewares/Third_Party/FatFs/src/ff.c **** #if !_FS_READONLY
 772:Middlewares/Third_Party/FatFs/src/ff.c **** static
 773:Middlewares/Third_Party/FatFs/src/ff.c **** FRESULT sync_window (
 774:Middlewares/Third_Party/FatFs/src/ff.c **** 	FATFS* fs		/* File system object */
 775:Middlewares/Third_Party/FatFs/src/ff.c **** )
 776:Middlewares/Third_Party/FatFs/src/ff.c **** {
 777:Middlewares/Third_Party/FatFs/src/ff.c **** 	DWORD wsect;
 778:Middlewares/Third_Party/FatFs/src/ff.c **** 	UINT nf;
 779:Middlewares/Third_Party/FatFs/src/ff.c **** 	FRESULT res = FR_OK;
 780:Middlewares/Third_Party/FatFs/src/ff.c **** 
ARM GAS  C:\Users\Admin\AppData\Local\Temp\cc3ZGI84.s 			page 30


 781:Middlewares/Third_Party/FatFs/src/ff.c **** 
 782:Middlewares/Third_Party/FatFs/src/ff.c **** 	if (fs->wflag) {	/* Write back the sector if it is dirty */
 783:Middlewares/Third_Party/FatFs/src/ff.c **** 		wsect = fs->winsect;	/* Current sector number */
 784:Middlewares/Third_Party/FatFs/src/ff.c **** 		if (disk_write(fs->drv, fs->win.d8, wsect, 1) != RES_OK) {
 785:Middlewares/Third_Party/FatFs/src/ff.c **** 			res = FR_DISK_ERR;
 786:Middlewares/Third_Party/FatFs/src/ff.c **** 		} else {
 787:Middlewares/Third_Party/FatFs/src/ff.c **** 			fs->wflag = 0;
 788:Middlewares/Third_Party/FatFs/src/ff.c **** 			if (wsect - fs->fatbase < fs->fsize) {		/* Is it in the FAT area? */
 789:Middlewares/Third_Party/FatFs/src/ff.c **** 				for (nf = fs->n_fats; nf >= 2; nf--) {	/* Reflect the change to all FAT copies */
 790:Middlewares/Third_Party/FatFs/src/ff.c **** 					wsect += fs->fsize;
 791:Middlewares/Third_Party/FatFs/src/ff.c **** 					disk_write(fs->drv, fs->win.d8, wsect, 1);
 792:Middlewares/Third_Party/FatFs/src/ff.c **** 				}
 793:Middlewares/Third_Party/FatFs/src/ff.c **** 			}
 794:Middlewares/Third_Party/FatFs/src/ff.c **** 		}
 795:Middlewares/Third_Party/FatFs/src/ff.c **** 	}
 796:Middlewares/Third_Party/FatFs/src/ff.c **** 	return res;
 797:Middlewares/Third_Party/FatFs/src/ff.c **** }
 798:Middlewares/Third_Party/FatFs/src/ff.c **** #endif
 799:Middlewares/Third_Party/FatFs/src/ff.c **** 
 800:Middlewares/Third_Party/FatFs/src/ff.c **** 
 801:Middlewares/Third_Party/FatFs/src/ff.c **** static
 802:Middlewares/Third_Party/FatFs/src/ff.c **** FRESULT move_window (
 803:Middlewares/Third_Party/FatFs/src/ff.c **** 	FATFS* fs,		/* File system object */
 804:Middlewares/Third_Party/FatFs/src/ff.c **** 	DWORD sector	/* Sector number to make appearance in the fs->win[].d8 */
 805:Middlewares/Third_Party/FatFs/src/ff.c **** )
 806:Middlewares/Third_Party/FatFs/src/ff.c **** {
 807:Middlewares/Third_Party/FatFs/src/ff.c **** 	FRESULT res = FR_OK;
 808:Middlewares/Third_Party/FatFs/src/ff.c **** 
 809:Middlewares/Third_Party/FatFs/src/ff.c **** 
 810:Middlewares/Third_Party/FatFs/src/ff.c **** 	if (sector != fs->winsect) {	/* Window offset changed? */
 811:Middlewares/Third_Party/FatFs/src/ff.c **** #if !_FS_READONLY
 812:Middlewares/Third_Party/FatFs/src/ff.c **** 		res = sync_window(fs);		/* Write-back changes */
 813:Middlewares/Third_Party/FatFs/src/ff.c **** #endif
 814:Middlewares/Third_Party/FatFs/src/ff.c **** 		if (res == FR_OK) {			/* Fill sector window with new data */
 815:Middlewares/Third_Party/FatFs/src/ff.c **** 			if (disk_read(fs->drv, fs->win.d8, sector, 1) != RES_OK) {
 816:Middlewares/Third_Party/FatFs/src/ff.c **** 				sector = 0xFFFFFFFF;	/* Invalidate window if data is not reliable */
 817:Middlewares/Third_Party/FatFs/src/ff.c **** 				res = FR_DISK_ERR;
 818:Middlewares/Third_Party/FatFs/src/ff.c **** 			}
 819:Middlewares/Third_Party/FatFs/src/ff.c **** 			fs->winsect = sector;
 820:Middlewares/Third_Party/FatFs/src/ff.c **** 		}
 821:Middlewares/Third_Party/FatFs/src/ff.c **** 	}
 822:Middlewares/Third_Party/FatFs/src/ff.c **** 	return res;
 823:Middlewares/Third_Party/FatFs/src/ff.c **** }
 824:Middlewares/Third_Party/FatFs/src/ff.c **** 
 825:Middlewares/Third_Party/FatFs/src/ff.c **** 
 826:Middlewares/Third_Party/FatFs/src/ff.c **** 
 827:Middlewares/Third_Party/FatFs/src/ff.c **** 
 828:Middlewares/Third_Party/FatFs/src/ff.c **** /*-----------------------------------------------------------------------*/
 829:Middlewares/Third_Party/FatFs/src/ff.c **** /* Synchronize file system and strage device                             */
 830:Middlewares/Third_Party/FatFs/src/ff.c **** /*-----------------------------------------------------------------------*/
 831:Middlewares/Third_Party/FatFs/src/ff.c **** #if !_FS_READONLY
 832:Middlewares/Third_Party/FatFs/src/ff.c **** static
 833:Middlewares/Third_Party/FatFs/src/ff.c **** FRESULT sync_fs (	/* FR_OK: successful, FR_DISK_ERR: failed */
 834:Middlewares/Third_Party/FatFs/src/ff.c **** 	FATFS* fs		/* File system object */
 835:Middlewares/Third_Party/FatFs/src/ff.c **** )
 836:Middlewares/Third_Party/FatFs/src/ff.c **** {
 837:Middlewares/Third_Party/FatFs/src/ff.c **** 	FRESULT res;
ARM GAS  C:\Users\Admin\AppData\Local\Temp\cc3ZGI84.s 			page 31


 838:Middlewares/Third_Party/FatFs/src/ff.c **** 
 839:Middlewares/Third_Party/FatFs/src/ff.c **** 
 840:Middlewares/Third_Party/FatFs/src/ff.c **** 	res = sync_window(fs);
 841:Middlewares/Third_Party/FatFs/src/ff.c **** 	if (res == FR_OK) {
 842:Middlewares/Third_Party/FatFs/src/ff.c **** 		/* Update FSINFO sector if needed */
 843:Middlewares/Third_Party/FatFs/src/ff.c **** 		if (fs->fs_type == FS_FAT32 && fs->fsi_flag == 1) {
 844:Middlewares/Third_Party/FatFs/src/ff.c **** 			/* Create FSINFO structure */
 845:Middlewares/Third_Party/FatFs/src/ff.c **** 			mem_set(fs->win.d8, 0, SS(fs));
 846:Middlewares/Third_Party/FatFs/src/ff.c **** 			ST_WORD(fs->win.d8 + BS_55AA, 0xAA55);
 847:Middlewares/Third_Party/FatFs/src/ff.c **** 			ST_DWORD(fs->win.d8 + FSI_LeadSig, 0x41615252);
 848:Middlewares/Third_Party/FatFs/src/ff.c **** 			ST_DWORD(fs->win.d8 + FSI_StrucSig, 0x61417272);
 849:Middlewares/Third_Party/FatFs/src/ff.c **** 			ST_DWORD(fs->win.d8 + FSI_Free_Count, fs->free_clust);
 850:Middlewares/Third_Party/FatFs/src/ff.c **** 			ST_DWORD(fs->win.d8 + FSI_Nxt_Free, fs->last_clust);
 851:Middlewares/Third_Party/FatFs/src/ff.c **** 			/* Write it into the FSINFO sector */
 852:Middlewares/Third_Party/FatFs/src/ff.c **** 			fs->winsect = fs->volbase + 1;
 853:Middlewares/Third_Party/FatFs/src/ff.c **** 			disk_write(fs->drv, fs->win.d8, fs->winsect, 1);
 854:Middlewares/Third_Party/FatFs/src/ff.c **** 			fs->fsi_flag = 0;
 855:Middlewares/Third_Party/FatFs/src/ff.c **** 		}
 856:Middlewares/Third_Party/FatFs/src/ff.c **** 		/* Make sure that no pending write process in the physical drive */
 857:Middlewares/Third_Party/FatFs/src/ff.c **** 		if (disk_ioctl(fs->drv, CTRL_SYNC, 0) != RES_OK)
 858:Middlewares/Third_Party/FatFs/src/ff.c **** 			res = FR_DISK_ERR;
 859:Middlewares/Third_Party/FatFs/src/ff.c **** 	}
 860:Middlewares/Third_Party/FatFs/src/ff.c **** 
 861:Middlewares/Third_Party/FatFs/src/ff.c **** 	return res;
 862:Middlewares/Third_Party/FatFs/src/ff.c **** }
 863:Middlewares/Third_Party/FatFs/src/ff.c **** #endif
 864:Middlewares/Third_Party/FatFs/src/ff.c **** 
 865:Middlewares/Third_Party/FatFs/src/ff.c **** 
 866:Middlewares/Third_Party/FatFs/src/ff.c **** 
 867:Middlewares/Third_Party/FatFs/src/ff.c **** 
 868:Middlewares/Third_Party/FatFs/src/ff.c **** /*-----------------------------------------------------------------------*/
 869:Middlewares/Third_Party/FatFs/src/ff.c **** /* Get sector# from cluster#                                             */
 870:Middlewares/Third_Party/FatFs/src/ff.c **** /*-----------------------------------------------------------------------*/
 871:Middlewares/Third_Party/FatFs/src/ff.c **** /* Hidden API for hacks and disk tools */
 872:Middlewares/Third_Party/FatFs/src/ff.c **** 
 873:Middlewares/Third_Party/FatFs/src/ff.c **** DWORD clust2sect (	/* !=0: Sector number, 0: Failed - invalid cluster# */
 874:Middlewares/Third_Party/FatFs/src/ff.c **** 	FATFS* fs,		/* File system object */
 875:Middlewares/Third_Party/FatFs/src/ff.c **** 	DWORD clst		/* Cluster# to be converted */
 876:Middlewares/Third_Party/FatFs/src/ff.c **** )
 877:Middlewares/Third_Party/FatFs/src/ff.c **** {
 878:Middlewares/Third_Party/FatFs/src/ff.c **** 	clst -= 2;
 879:Middlewares/Third_Party/FatFs/src/ff.c **** 	if (clst >= fs->n_fatent - 2) return 0;		/* Invalid cluster# */
 880:Middlewares/Third_Party/FatFs/src/ff.c **** 	return clst * fs->csize + fs->database;
 881:Middlewares/Third_Party/FatFs/src/ff.c **** }
 882:Middlewares/Third_Party/FatFs/src/ff.c **** 
 883:Middlewares/Third_Party/FatFs/src/ff.c **** 
 884:Middlewares/Third_Party/FatFs/src/ff.c **** 
 885:Middlewares/Third_Party/FatFs/src/ff.c **** 
 886:Middlewares/Third_Party/FatFs/src/ff.c **** /*-----------------------------------------------------------------------*/
 887:Middlewares/Third_Party/FatFs/src/ff.c **** /* FAT access - Read value of a FAT entry                                */
 888:Middlewares/Third_Party/FatFs/src/ff.c **** /*-----------------------------------------------------------------------*/
 889:Middlewares/Third_Party/FatFs/src/ff.c **** /* Hidden API for hacks and disk tools */
 890:Middlewares/Third_Party/FatFs/src/ff.c **** 
 891:Middlewares/Third_Party/FatFs/src/ff.c **** DWORD get_fat (	/* 0xFFFFFFFF:Disk error, 1:Internal error, 2..0x0FFFFFFF:Cluster status */
 892:Middlewares/Third_Party/FatFs/src/ff.c **** 	FATFS* fs,	/* File system object */
 893:Middlewares/Third_Party/FatFs/src/ff.c **** 	DWORD clst	/* FAT index number (cluster number) to get the value */
 894:Middlewares/Third_Party/FatFs/src/ff.c **** )
ARM GAS  C:\Users\Admin\AppData\Local\Temp\cc3ZGI84.s 			page 32


 895:Middlewares/Third_Party/FatFs/src/ff.c **** {
 896:Middlewares/Third_Party/FatFs/src/ff.c **** 	UINT wc, bc;
 897:Middlewares/Third_Party/FatFs/src/ff.c **** 	BYTE *p;
 898:Middlewares/Third_Party/FatFs/src/ff.c **** 	DWORD val;
 899:Middlewares/Third_Party/FatFs/src/ff.c **** 
 900:Middlewares/Third_Party/FatFs/src/ff.c **** 
 901:Middlewares/Third_Party/FatFs/src/ff.c **** 	if (clst < 2 || clst >= fs->n_fatent) {	/* Check range */
 902:Middlewares/Third_Party/FatFs/src/ff.c **** 		val = 1;	/* Internal error */
 903:Middlewares/Third_Party/FatFs/src/ff.c **** 
 904:Middlewares/Third_Party/FatFs/src/ff.c **** 	} else {
 905:Middlewares/Third_Party/FatFs/src/ff.c **** 		val = 0xFFFFFFFF;	/* Default value falls on disk error */
 906:Middlewares/Third_Party/FatFs/src/ff.c **** 
 907:Middlewares/Third_Party/FatFs/src/ff.c **** 		switch (fs->fs_type) {
 908:Middlewares/Third_Party/FatFs/src/ff.c **** 		case FS_FAT12 :
 909:Middlewares/Third_Party/FatFs/src/ff.c **** 			bc = (UINT)clst; bc += bc / 2;
 910:Middlewares/Third_Party/FatFs/src/ff.c **** 			if (move_window(fs, fs->fatbase + (bc / SS(fs))) != FR_OK) break;
 911:Middlewares/Third_Party/FatFs/src/ff.c **** 			wc = fs->win.d8[bc++ % SS(fs)];
 912:Middlewares/Third_Party/FatFs/src/ff.c **** 			if (move_window(fs, fs->fatbase + (bc / SS(fs))) != FR_OK) break;
 913:Middlewares/Third_Party/FatFs/src/ff.c **** 			wc |= fs->win.d8[bc % SS(fs)] << 8;
 914:Middlewares/Third_Party/FatFs/src/ff.c **** 			val = clst & 1 ? wc >> 4 : (wc & 0xFFF);
 915:Middlewares/Third_Party/FatFs/src/ff.c **** 			break;
 916:Middlewares/Third_Party/FatFs/src/ff.c **** 
 917:Middlewares/Third_Party/FatFs/src/ff.c **** 		case FS_FAT16 :
 918:Middlewares/Third_Party/FatFs/src/ff.c **** 			if (move_window(fs, fs->fatbase + (clst / (SS(fs) / 2))) != FR_OK) break;
 919:Middlewares/Third_Party/FatFs/src/ff.c **** 			p = &fs->win.d8[clst * 2 % SS(fs)];
 920:Middlewares/Third_Party/FatFs/src/ff.c **** 			val = LD_WORD(p);
 921:Middlewares/Third_Party/FatFs/src/ff.c **** 			break;
 922:Middlewares/Third_Party/FatFs/src/ff.c **** 
 923:Middlewares/Third_Party/FatFs/src/ff.c **** 		case FS_FAT32 :
 924:Middlewares/Third_Party/FatFs/src/ff.c **** 			if (move_window(fs, fs->fatbase + (clst / (SS(fs) / 4))) != FR_OK) break;
 925:Middlewares/Third_Party/FatFs/src/ff.c **** 			p = &fs->win.d8[clst * 4 % SS(fs)];
 926:Middlewares/Third_Party/FatFs/src/ff.c **** 			val = LD_DWORD(p) & 0x0FFFFFFF;
 927:Middlewares/Third_Party/FatFs/src/ff.c **** 			break;
 928:Middlewares/Third_Party/FatFs/src/ff.c **** 
 929:Middlewares/Third_Party/FatFs/src/ff.c **** 		default:
 930:Middlewares/Third_Party/FatFs/src/ff.c **** 			val = 1;	/* Internal error */
 931:Middlewares/Third_Party/FatFs/src/ff.c **** 		}
 932:Middlewares/Third_Party/FatFs/src/ff.c **** 	}
 933:Middlewares/Third_Party/FatFs/src/ff.c **** 
 934:Middlewares/Third_Party/FatFs/src/ff.c **** 	return val;
 935:Middlewares/Third_Party/FatFs/src/ff.c **** }
 936:Middlewares/Third_Party/FatFs/src/ff.c **** 
 937:Middlewares/Third_Party/FatFs/src/ff.c **** 
 938:Middlewares/Third_Party/FatFs/src/ff.c **** 
 939:Middlewares/Third_Party/FatFs/src/ff.c **** 
 940:Middlewares/Third_Party/FatFs/src/ff.c **** /*-----------------------------------------------------------------------*/
 941:Middlewares/Third_Party/FatFs/src/ff.c **** /* FAT access - Change value of a FAT entry                              */
 942:Middlewares/Third_Party/FatFs/src/ff.c **** /*-----------------------------------------------------------------------*/
 943:Middlewares/Third_Party/FatFs/src/ff.c **** /* Hidden API for hacks and disk tools */
 944:Middlewares/Third_Party/FatFs/src/ff.c **** 
 945:Middlewares/Third_Party/FatFs/src/ff.c **** #if !_FS_READONLY
 946:Middlewares/Third_Party/FatFs/src/ff.c **** FRESULT put_fat (
 947:Middlewares/Third_Party/FatFs/src/ff.c **** 	FATFS* fs,	/* File system object */
 948:Middlewares/Third_Party/FatFs/src/ff.c **** 	DWORD clst,	/* FAT index number (cluster number) to be changed */
 949:Middlewares/Third_Party/FatFs/src/ff.c **** 	DWORD val	/* New value to be set to the entry */
 950:Middlewares/Third_Party/FatFs/src/ff.c **** )
 951:Middlewares/Third_Party/FatFs/src/ff.c **** {
ARM GAS  C:\Users\Admin\AppData\Local\Temp\cc3ZGI84.s 			page 33


 952:Middlewares/Third_Party/FatFs/src/ff.c **** 	UINT bc;
 953:Middlewares/Third_Party/FatFs/src/ff.c **** 	BYTE *p;
 954:Middlewares/Third_Party/FatFs/src/ff.c **** 	FRESULT res;
 955:Middlewares/Third_Party/FatFs/src/ff.c **** 
 956:Middlewares/Third_Party/FatFs/src/ff.c **** 
 957:Middlewares/Third_Party/FatFs/src/ff.c **** 	if (clst < 2 || clst >= fs->n_fatent) {	/* Check range */
 958:Middlewares/Third_Party/FatFs/src/ff.c **** 		res = FR_INT_ERR;
 959:Middlewares/Third_Party/FatFs/src/ff.c **** 
 960:Middlewares/Third_Party/FatFs/src/ff.c **** 	} else {
 961:Middlewares/Third_Party/FatFs/src/ff.c **** 		switch (fs->fs_type) {
 962:Middlewares/Third_Party/FatFs/src/ff.c **** 		case FS_FAT12 :
 963:Middlewares/Third_Party/FatFs/src/ff.c **** 			bc = (UINT)clst; bc += bc / 2;
 964:Middlewares/Third_Party/FatFs/src/ff.c **** 			res = move_window(fs, fs->fatbase + (bc / SS(fs)));
 965:Middlewares/Third_Party/FatFs/src/ff.c **** 			if (res != FR_OK) break;
 966:Middlewares/Third_Party/FatFs/src/ff.c **** 			p = &fs->win.d8[bc++ % SS(fs)];
 967:Middlewares/Third_Party/FatFs/src/ff.c **** 			*p = (clst & 1) ? ((*p & 0x0F) | ((BYTE)val << 4)) : (BYTE)val;
 968:Middlewares/Third_Party/FatFs/src/ff.c **** 			fs->wflag = 1;
 969:Middlewares/Third_Party/FatFs/src/ff.c **** 			res = move_window(fs, fs->fatbase + (bc / SS(fs)));
 970:Middlewares/Third_Party/FatFs/src/ff.c **** 			if (res != FR_OK) break;
 971:Middlewares/Third_Party/FatFs/src/ff.c **** 			p = &fs->win.d8[bc % SS(fs)];
 972:Middlewares/Third_Party/FatFs/src/ff.c **** 			*p = (clst & 1) ? (BYTE)(val >> 4) : ((*p & 0xF0) | ((BYTE)(val >> 8) & 0x0F));
 973:Middlewares/Third_Party/FatFs/src/ff.c **** 			fs->wflag = 1;
 974:Middlewares/Third_Party/FatFs/src/ff.c **** 			break;
 975:Middlewares/Third_Party/FatFs/src/ff.c **** 
 976:Middlewares/Third_Party/FatFs/src/ff.c **** 		case FS_FAT16 :
 977:Middlewares/Third_Party/FatFs/src/ff.c **** 			res = move_window(fs, fs->fatbase + (clst / (SS(fs) / 2)));
 978:Middlewares/Third_Party/FatFs/src/ff.c **** 			if (res != FR_OK) break;
 979:Middlewares/Third_Party/FatFs/src/ff.c **** 			p = &fs->win.d8[clst * 2 % SS(fs)];
 980:Middlewares/Third_Party/FatFs/src/ff.c **** 			ST_WORD(p, (WORD)val);
 981:Middlewares/Third_Party/FatFs/src/ff.c **** 			fs->wflag = 1;
 982:Middlewares/Third_Party/FatFs/src/ff.c **** 			break;
 983:Middlewares/Third_Party/FatFs/src/ff.c **** 
 984:Middlewares/Third_Party/FatFs/src/ff.c **** 		case FS_FAT32 :
 985:Middlewares/Third_Party/FatFs/src/ff.c **** 			res = move_window(fs, fs->fatbase + (clst / (SS(fs) / 4)));
 986:Middlewares/Third_Party/FatFs/src/ff.c **** 			if (res != FR_OK) break;
 987:Middlewares/Third_Party/FatFs/src/ff.c **** 			p = &fs->win.d8[clst * 4 % SS(fs)];
 988:Middlewares/Third_Party/FatFs/src/ff.c **** 			val |= LD_DWORD(p) & 0xF0000000;
 989:Middlewares/Third_Party/FatFs/src/ff.c **** 			ST_DWORD(p, val);
 990:Middlewares/Third_Party/FatFs/src/ff.c **** 			fs->wflag = 1;
 991:Middlewares/Third_Party/FatFs/src/ff.c **** 			break;
 992:Middlewares/Third_Party/FatFs/src/ff.c **** 
 993:Middlewares/Third_Party/FatFs/src/ff.c **** 		default :
 994:Middlewares/Third_Party/FatFs/src/ff.c **** 			res = FR_INT_ERR;
 995:Middlewares/Third_Party/FatFs/src/ff.c **** 		}
 996:Middlewares/Third_Party/FatFs/src/ff.c **** 	}
 997:Middlewares/Third_Party/FatFs/src/ff.c **** 
 998:Middlewares/Third_Party/FatFs/src/ff.c **** 	return res;
 999:Middlewares/Third_Party/FatFs/src/ff.c **** }
1000:Middlewares/Third_Party/FatFs/src/ff.c **** #endif /* !_FS_READONLY */
1001:Middlewares/Third_Party/FatFs/src/ff.c **** 
1002:Middlewares/Third_Party/FatFs/src/ff.c **** 
1003:Middlewares/Third_Party/FatFs/src/ff.c **** 
1004:Middlewares/Third_Party/FatFs/src/ff.c **** 
1005:Middlewares/Third_Party/FatFs/src/ff.c **** /*-----------------------------------------------------------------------*/
1006:Middlewares/Third_Party/FatFs/src/ff.c **** /* FAT handling - Remove a cluster chain                                 */
1007:Middlewares/Third_Party/FatFs/src/ff.c **** /*-----------------------------------------------------------------------*/
1008:Middlewares/Third_Party/FatFs/src/ff.c **** #if !_FS_READONLY
ARM GAS  C:\Users\Admin\AppData\Local\Temp\cc3ZGI84.s 			page 34


1009:Middlewares/Third_Party/FatFs/src/ff.c **** static
1010:Middlewares/Third_Party/FatFs/src/ff.c **** FRESULT remove_chain (
1011:Middlewares/Third_Party/FatFs/src/ff.c **** 	FATFS* fs,			/* File system object */
1012:Middlewares/Third_Party/FatFs/src/ff.c **** 	DWORD clst			/* Cluster# to remove a chain from */
1013:Middlewares/Third_Party/FatFs/src/ff.c **** )
1014:Middlewares/Third_Party/FatFs/src/ff.c **** {
1015:Middlewares/Third_Party/FatFs/src/ff.c **** 	FRESULT res;
1016:Middlewares/Third_Party/FatFs/src/ff.c **** 	DWORD nxt;
1017:Middlewares/Third_Party/FatFs/src/ff.c **** #if _USE_TRIM
1018:Middlewares/Third_Party/FatFs/src/ff.c **** 	DWORD scl = clst, ecl = clst, rt[2];
1019:Middlewares/Third_Party/FatFs/src/ff.c **** #endif
1020:Middlewares/Third_Party/FatFs/src/ff.c **** 
1021:Middlewares/Third_Party/FatFs/src/ff.c **** 	if (clst < 2 || clst >= fs->n_fatent) {	/* Check range */
1022:Middlewares/Third_Party/FatFs/src/ff.c **** 		res = FR_INT_ERR;
1023:Middlewares/Third_Party/FatFs/src/ff.c **** 
1024:Middlewares/Third_Party/FatFs/src/ff.c **** 	} else {
1025:Middlewares/Third_Party/FatFs/src/ff.c **** 		res = FR_OK;
1026:Middlewares/Third_Party/FatFs/src/ff.c **** 		while (clst < fs->n_fatent) {			/* Not a last link? */
1027:Middlewares/Third_Party/FatFs/src/ff.c **** 			nxt = get_fat(fs, clst);			/* Get cluster status */
1028:Middlewares/Third_Party/FatFs/src/ff.c **** 			if (nxt == 0) break;				/* Empty cluster? */
1029:Middlewares/Third_Party/FatFs/src/ff.c **** 			if (nxt == 1) { res = FR_INT_ERR; break; }	/* Internal error? */
1030:Middlewares/Third_Party/FatFs/src/ff.c **** 			if (nxt == 0xFFFFFFFF) { res = FR_DISK_ERR; break; }	/* Disk error? */
1031:Middlewares/Third_Party/FatFs/src/ff.c **** 			res = put_fat(fs, clst, 0);			/* Mark the cluster "empty" */
1032:Middlewares/Third_Party/FatFs/src/ff.c **** 			if (res != FR_OK) break;
1033:Middlewares/Third_Party/FatFs/src/ff.c **** 			if (fs->free_clust != 0xFFFFFFFF) {	/* Update FSINFO */
1034:Middlewares/Third_Party/FatFs/src/ff.c **** 				fs->free_clust++;
1035:Middlewares/Third_Party/FatFs/src/ff.c **** 				fs->fsi_flag |= 1;
1036:Middlewares/Third_Party/FatFs/src/ff.c **** 			}
1037:Middlewares/Third_Party/FatFs/src/ff.c **** #if _USE_TRIM
1038:Middlewares/Third_Party/FatFs/src/ff.c **** 			if (ecl + 1 == nxt) {	/* Is next cluster contiguous? */
1039:Middlewares/Third_Party/FatFs/src/ff.c **** 				ecl = nxt;
1040:Middlewares/Third_Party/FatFs/src/ff.c **** 			} else {				/* End of contiguous clusters */ 
1041:Middlewares/Third_Party/FatFs/src/ff.c **** 				rt[0] = clust2sect(fs, scl);					/* Start sector */
1042:Middlewares/Third_Party/FatFs/src/ff.c **** 				rt[1] = clust2sect(fs, ecl) + fs->csize - 1;	/* End sector */
1043:Middlewares/Third_Party/FatFs/src/ff.c **** 				disk_ioctl(fs->drv, CTRL_TRIM, rt);				/* Erase the block */
1044:Middlewares/Third_Party/FatFs/src/ff.c **** 				scl = ecl = nxt;
1045:Middlewares/Third_Party/FatFs/src/ff.c **** 			}
1046:Middlewares/Third_Party/FatFs/src/ff.c **** #endif
1047:Middlewares/Third_Party/FatFs/src/ff.c **** 			clst = nxt;	/* Next cluster */
1048:Middlewares/Third_Party/FatFs/src/ff.c **** 		}
1049:Middlewares/Third_Party/FatFs/src/ff.c **** 	}
1050:Middlewares/Third_Party/FatFs/src/ff.c **** 
1051:Middlewares/Third_Party/FatFs/src/ff.c **** 	return res;
1052:Middlewares/Third_Party/FatFs/src/ff.c **** }
1053:Middlewares/Third_Party/FatFs/src/ff.c **** #endif
1054:Middlewares/Third_Party/FatFs/src/ff.c **** 
1055:Middlewares/Third_Party/FatFs/src/ff.c **** 
1056:Middlewares/Third_Party/FatFs/src/ff.c **** 
1057:Middlewares/Third_Party/FatFs/src/ff.c **** 
1058:Middlewares/Third_Party/FatFs/src/ff.c **** /*-----------------------------------------------------------------------*/
1059:Middlewares/Third_Party/FatFs/src/ff.c **** /* FAT handling - Stretch or Create a cluster chain                      */
1060:Middlewares/Third_Party/FatFs/src/ff.c **** /*-----------------------------------------------------------------------*/
1061:Middlewares/Third_Party/FatFs/src/ff.c **** #if !_FS_READONLY
1062:Middlewares/Third_Party/FatFs/src/ff.c **** static
1063:Middlewares/Third_Party/FatFs/src/ff.c **** DWORD create_chain (	/* 0:No free cluster, 1:Internal error, 0xFFFFFFFF:Disk error, >=2:New cluster
1064:Middlewares/Third_Party/FatFs/src/ff.c **** 	FATFS* fs,			/* File system object */
1065:Middlewares/Third_Party/FatFs/src/ff.c **** 	DWORD clst			/* Cluster# to stretch. 0 means create a new chain. */
ARM GAS  C:\Users\Admin\AppData\Local\Temp\cc3ZGI84.s 			page 35


1066:Middlewares/Third_Party/FatFs/src/ff.c **** )
1067:Middlewares/Third_Party/FatFs/src/ff.c **** {
1068:Middlewares/Third_Party/FatFs/src/ff.c **** 	DWORD cs, ncl, scl;
1069:Middlewares/Third_Party/FatFs/src/ff.c **** 	FRESULT res;
1070:Middlewares/Third_Party/FatFs/src/ff.c **** 
1071:Middlewares/Third_Party/FatFs/src/ff.c **** 
1072:Middlewares/Third_Party/FatFs/src/ff.c **** 	if (clst == 0) {		/* Create a new chain */
1073:Middlewares/Third_Party/FatFs/src/ff.c **** 		scl = fs->last_clust;			/* Get suggested start point */
1074:Middlewares/Third_Party/FatFs/src/ff.c **** 		if (!scl || scl >= fs->n_fatent) scl = 1;
1075:Middlewares/Third_Party/FatFs/src/ff.c **** 	}
1076:Middlewares/Third_Party/FatFs/src/ff.c **** 	else {					/* Stretch the current chain */
1077:Middlewares/Third_Party/FatFs/src/ff.c **** 		cs = get_fat(fs, clst);			/* Check the cluster status */
1078:Middlewares/Third_Party/FatFs/src/ff.c **** 		if (cs < 2) return 1;			/* Invalid value */
1079:Middlewares/Third_Party/FatFs/src/ff.c **** 		if (cs == 0xFFFFFFFF) return cs;	/* A disk error occurred */
1080:Middlewares/Third_Party/FatFs/src/ff.c **** 		if (cs < fs->n_fatent) return cs;	/* It is already followed by next cluster */
1081:Middlewares/Third_Party/FatFs/src/ff.c **** 		scl = clst;
1082:Middlewares/Third_Party/FatFs/src/ff.c **** 	}
1083:Middlewares/Third_Party/FatFs/src/ff.c **** 
1084:Middlewares/Third_Party/FatFs/src/ff.c **** 	ncl = scl;				/* Start cluster */
1085:Middlewares/Third_Party/FatFs/src/ff.c **** 	for (;;) {
1086:Middlewares/Third_Party/FatFs/src/ff.c **** 		ncl++;							/* Next cluster */
1087:Middlewares/Third_Party/FatFs/src/ff.c **** 		if (ncl >= fs->n_fatent) {		/* Check wrap around */
1088:Middlewares/Third_Party/FatFs/src/ff.c **** 			ncl = 2;
1089:Middlewares/Third_Party/FatFs/src/ff.c **** 			if (ncl > scl) return 0;	/* No free cluster */
1090:Middlewares/Third_Party/FatFs/src/ff.c **** 		}
1091:Middlewares/Third_Party/FatFs/src/ff.c **** 		cs = get_fat(fs, ncl);			/* Get the cluster status */
1092:Middlewares/Third_Party/FatFs/src/ff.c **** 		if (cs == 0) break;				/* Found a free cluster */
1093:Middlewares/Third_Party/FatFs/src/ff.c **** 		if (cs == 0xFFFFFFFF || cs == 1)/* An error occurred */
1094:Middlewares/Third_Party/FatFs/src/ff.c **** 			return cs;
1095:Middlewares/Third_Party/FatFs/src/ff.c **** 		if (ncl == scl) return 0;		/* No free cluster */
1096:Middlewares/Third_Party/FatFs/src/ff.c **** 	}
1097:Middlewares/Third_Party/FatFs/src/ff.c **** 
1098:Middlewares/Third_Party/FatFs/src/ff.c **** 	res = put_fat(fs, ncl, 0x0FFFFFFF);	/* Mark the new cluster "last link" */
1099:Middlewares/Third_Party/FatFs/src/ff.c **** 	if (res == FR_OK && clst != 0) {
1100:Middlewares/Third_Party/FatFs/src/ff.c **** 		res = put_fat(fs, clst, ncl);	/* Link it to the previous one if needed */
1101:Middlewares/Third_Party/FatFs/src/ff.c **** 	}
1102:Middlewares/Third_Party/FatFs/src/ff.c **** 	if (res == FR_OK) {
1103:Middlewares/Third_Party/FatFs/src/ff.c **** 		fs->last_clust = ncl;			/* Update FSINFO */
1104:Middlewares/Third_Party/FatFs/src/ff.c **** 		if (fs->free_clust != 0xFFFFFFFF) {
1105:Middlewares/Third_Party/FatFs/src/ff.c **** 			fs->free_clust--;
1106:Middlewares/Third_Party/FatFs/src/ff.c **** 			fs->fsi_flag |= 1;
1107:Middlewares/Third_Party/FatFs/src/ff.c **** 		}
1108:Middlewares/Third_Party/FatFs/src/ff.c **** 	} else {
1109:Middlewares/Third_Party/FatFs/src/ff.c **** 		ncl = (res == FR_DISK_ERR) ? 0xFFFFFFFF : 1;
1110:Middlewares/Third_Party/FatFs/src/ff.c **** 	}
1111:Middlewares/Third_Party/FatFs/src/ff.c **** 
1112:Middlewares/Third_Party/FatFs/src/ff.c **** 	return ncl;		/* Return new cluster number or error code */
1113:Middlewares/Third_Party/FatFs/src/ff.c **** }
1114:Middlewares/Third_Party/FatFs/src/ff.c **** #endif /* !_FS_READONLY */
1115:Middlewares/Third_Party/FatFs/src/ff.c **** 
1116:Middlewares/Third_Party/FatFs/src/ff.c **** 
1117:Middlewares/Third_Party/FatFs/src/ff.c **** 
1118:Middlewares/Third_Party/FatFs/src/ff.c **** 
1119:Middlewares/Third_Party/FatFs/src/ff.c **** /*-----------------------------------------------------------------------*/
1120:Middlewares/Third_Party/FatFs/src/ff.c **** /* FAT handling - Convert offset into cluster with link map table        */
1121:Middlewares/Third_Party/FatFs/src/ff.c **** /*-----------------------------------------------------------------------*/
1122:Middlewares/Third_Party/FatFs/src/ff.c **** 
ARM GAS  C:\Users\Admin\AppData\Local\Temp\cc3ZGI84.s 			page 36


1123:Middlewares/Third_Party/FatFs/src/ff.c **** #if _USE_FASTSEEK
1124:Middlewares/Third_Party/FatFs/src/ff.c **** static
1125:Middlewares/Third_Party/FatFs/src/ff.c **** DWORD clmt_clust (	/* <2:Error, >=2:Cluster number */
1126:Middlewares/Third_Party/FatFs/src/ff.c **** 	FIL* fp,		/* Pointer to the file object */
1127:Middlewares/Third_Party/FatFs/src/ff.c **** 	DWORD ofs		/* File offset to be converted to cluster# */
1128:Middlewares/Third_Party/FatFs/src/ff.c **** )
1129:Middlewares/Third_Party/FatFs/src/ff.c **** {
 808              		.loc 1 1129 1 is_stmt 1 view -0
 809              		.cfi_startproc
 810              		@ args = 0, pretend = 0, frame = 0
 811              		@ frame_needed = 0, uses_anonymous_args = 0
 812              		@ link register save eliminated.
1130:Middlewares/Third_Party/FatFs/src/ff.c **** 	DWORD cl, ncl, *tbl;
 813              		.loc 1 1130 2 view .LVU230
1131:Middlewares/Third_Party/FatFs/src/ff.c **** 
1132:Middlewares/Third_Party/FatFs/src/ff.c **** 
1133:Middlewares/Third_Party/FatFs/src/ff.c **** 	tbl = fp->cltbl + 1;	/* Top of CLMT */
 814              		.loc 1 1133 2 view .LVU231
 815              		.loc 1 1133 10 is_stmt 0 view .LVU232
 816 0000 00F58050 		add	r0, r0, #4096
 817              	.LVL77:
 818              		.loc 1 1133 10 view .LVU233
 819 0004 436A     		ldr	r3, [r0, #36]
 820              		.loc 1 1133 6 view .LVU234
 821 0006 0433     		adds	r3, r3, #4
 822              	.LVL78:
1134:Middlewares/Third_Party/FatFs/src/ff.c **** 	cl = ofs / SS(fp->fs) / fp->fs->csize;	/* Cluster order from top of the file */
 823              		.loc 1 1134 2 is_stmt 1 view .LVU235
 824              		.loc 1 1134 13 is_stmt 0 view .LVU236
 825 0008 0268     		ldr	r2, [r0]
 826 000a 02F58052 		add	r2, r2, #4096
 827 000e 5089     		ldrh	r0, [r2, #10]
 828              	.LVL79:
 829              		.loc 1 1134 11 view .LVU237
 830 0010 B1FBF0F1 		udiv	r1, r1, r0
 831              	.LVL80:
 832              		.loc 1 1134 32 view .LVU238
 833 0014 9278     		ldrb	r2, [r2, #2]	@ zero_extendqisi2
 834              		.loc 1 1134 5 view .LVU239
 835 0016 B1FBF2F1 		udiv	r1, r1, r2
 836              	.LVL81:
 837              		.loc 1 1134 5 view .LVU240
 838 001a 01E0     		b	.L87
 839              	.LVL82:
 840              	.L88:
1135:Middlewares/Third_Party/FatFs/src/ff.c **** 	for (;;) {
1136:Middlewares/Third_Party/FatFs/src/ff.c **** 		ncl = *tbl++;			/* Number of cluters in the fragment */
1137:Middlewares/Third_Party/FatFs/src/ff.c **** 		if (!ncl) return 0;		/* End of table? (error) */
1138:Middlewares/Third_Party/FatFs/src/ff.c **** 		if (cl < ncl) break;	/* In this fragment? */
1139:Middlewares/Third_Party/FatFs/src/ff.c **** 		cl -= ncl; tbl++;		/* Next fragment */
 841              		.loc 1 1139 3 is_stmt 1 view .LVU241
 842              		.loc 1 1139 6 is_stmt 0 view .LVU242
 843 001c 091A     		subs	r1, r1, r0
 844              	.LVL83:
 845              		.loc 1 1139 14 is_stmt 1 view .LVU243
 846              		.loc 1 1139 17 is_stmt 0 view .LVU244
 847 001e 0833     		adds	r3, r3, #8
ARM GAS  C:\Users\Admin\AppData\Local\Temp\cc3ZGI84.s 			page 37


 848              	.LVL84:
1135:Middlewares/Third_Party/FatFs/src/ff.c **** 	for (;;) {
 849              		.loc 1 1135 8 is_stmt 1 view .LVU245
 850              	.L87:
1135:Middlewares/Third_Party/FatFs/src/ff.c **** 	for (;;) {
 851              		.loc 1 1135 2 view .LVU246
1136:Middlewares/Third_Party/FatFs/src/ff.c **** 		if (!ncl) return 0;		/* End of table? (error) */
 852              		.loc 1 1136 3 view .LVU247
1136:Middlewares/Third_Party/FatFs/src/ff.c **** 		if (!ncl) return 0;		/* End of table? (error) */
 853              		.loc 1 1136 7 is_stmt 0 view .LVU248
 854 0020 1868     		ldr	r0, [r3]
 855              	.LVL85:
1137:Middlewares/Third_Party/FatFs/src/ff.c **** 		if (cl < ncl) break;	/* In this fragment? */
 856              		.loc 1 1137 3 is_stmt 1 view .LVU249
1137:Middlewares/Third_Party/FatFs/src/ff.c **** 		if (cl < ncl) break;	/* In this fragment? */
 857              		.loc 1 1137 6 is_stmt 0 view .LVU250
 858 0022 18B1     		cbz	r0, .L84
1138:Middlewares/Third_Party/FatFs/src/ff.c **** 		cl -= ncl; tbl++;		/* Next fragment */
 859              		.loc 1 1138 3 is_stmt 1 view .LVU251
1138:Middlewares/Third_Party/FatFs/src/ff.c **** 		cl -= ncl; tbl++;		/* Next fragment */
 860              		.loc 1 1138 6 is_stmt 0 view .LVU252
 861 0024 8142     		cmp	r1, r0
 862 0026 F9D2     		bcs	.L88
1140:Middlewares/Third_Party/FatFs/src/ff.c **** 	}
1141:Middlewares/Third_Party/FatFs/src/ff.c **** 	return cl + *tbl;	/* Return the cluster number */
 863              		.loc 1 1141 2 is_stmt 1 view .LVU253
 864              		.loc 1 1141 14 is_stmt 0 view .LVU254
 865 0028 5868     		ldr	r0, [r3, #4]
 866              	.LVL86:
 867              		.loc 1 1141 12 view .LVU255
 868 002a 0844     		add	r0, r0, r1
 869              	.L84:
1142:Middlewares/Third_Party/FatFs/src/ff.c **** }
 870              		.loc 1 1142 1 view .LVU256
 871 002c 7047     		bx	lr
 872              		.cfi_endproc
 873              	.LFE82:
 875              		.section	.text.ld_clust,"ax",%progbits
 876              		.align	1
 877              		.syntax unified
 878              		.thumb
 879              		.thumb_func
 881              	ld_clust:
 882              	.LVL87:
 883              	.LFB86:
1143:Middlewares/Third_Party/FatFs/src/ff.c **** #endif	/* _USE_FASTSEEK */
1144:Middlewares/Third_Party/FatFs/src/ff.c **** 
1145:Middlewares/Third_Party/FatFs/src/ff.c **** 
1146:Middlewares/Third_Party/FatFs/src/ff.c **** 
1147:Middlewares/Third_Party/FatFs/src/ff.c **** 
1148:Middlewares/Third_Party/FatFs/src/ff.c **** /*-----------------------------------------------------------------------*/
1149:Middlewares/Third_Party/FatFs/src/ff.c **** /* Directory handling - Set directory index                              */
1150:Middlewares/Third_Party/FatFs/src/ff.c **** /*-----------------------------------------------------------------------*/
1151:Middlewares/Third_Party/FatFs/src/ff.c **** 
1152:Middlewares/Third_Party/FatFs/src/ff.c **** static
1153:Middlewares/Third_Party/FatFs/src/ff.c **** FRESULT dir_sdi (
1154:Middlewares/Third_Party/FatFs/src/ff.c **** 	DIR* dp,		/* Pointer to directory object */
ARM GAS  C:\Users\Admin\AppData\Local\Temp\cc3ZGI84.s 			page 38


1155:Middlewares/Third_Party/FatFs/src/ff.c **** 	UINT idx		/* Index of directory table */
1156:Middlewares/Third_Party/FatFs/src/ff.c **** )
1157:Middlewares/Third_Party/FatFs/src/ff.c **** {
1158:Middlewares/Third_Party/FatFs/src/ff.c **** 	DWORD clst, sect;
1159:Middlewares/Third_Party/FatFs/src/ff.c **** 	UINT ic;
1160:Middlewares/Third_Party/FatFs/src/ff.c **** 
1161:Middlewares/Third_Party/FatFs/src/ff.c **** 
1162:Middlewares/Third_Party/FatFs/src/ff.c **** 	dp->index = (WORD)idx;	/* Current index */
1163:Middlewares/Third_Party/FatFs/src/ff.c **** 	clst = dp->sclust;		/* Table start cluster (0:root) */
1164:Middlewares/Third_Party/FatFs/src/ff.c **** 	if (clst == 1 || clst >= dp->fs->n_fatent)	/* Check start cluster range */
1165:Middlewares/Third_Party/FatFs/src/ff.c **** 		return FR_INT_ERR;
1166:Middlewares/Third_Party/FatFs/src/ff.c **** 	if (!clst && dp->fs->fs_type == FS_FAT32)	/* Replace cluster# 0 with root cluster# if in FAT32 */
1167:Middlewares/Third_Party/FatFs/src/ff.c **** 		clst = dp->fs->dirbase;
1168:Middlewares/Third_Party/FatFs/src/ff.c **** 
1169:Middlewares/Third_Party/FatFs/src/ff.c **** 	if (clst == 0) {	/* Static table (root-directory in FAT12/16) */
1170:Middlewares/Third_Party/FatFs/src/ff.c **** 		if (idx >= dp->fs->n_rootdir)	/* Is index out of range? */
1171:Middlewares/Third_Party/FatFs/src/ff.c **** 			return FR_INT_ERR;
1172:Middlewares/Third_Party/FatFs/src/ff.c **** 		sect = dp->fs->dirbase;
1173:Middlewares/Third_Party/FatFs/src/ff.c **** 	}
1174:Middlewares/Third_Party/FatFs/src/ff.c **** 	else {				/* Dynamic table (root-directory in FAT32 or sub-directory) */
1175:Middlewares/Third_Party/FatFs/src/ff.c **** 		ic = SS(dp->fs) / SZ_DIRE * dp->fs->csize;	/* Entries per cluster */
1176:Middlewares/Third_Party/FatFs/src/ff.c **** 		while (idx >= ic) {	/* Follow cluster chain */
1177:Middlewares/Third_Party/FatFs/src/ff.c **** 			clst = get_fat(dp->fs, clst);				/* Get next cluster */
1178:Middlewares/Third_Party/FatFs/src/ff.c **** 			if (clst == 0xFFFFFFFF) return FR_DISK_ERR;	/* Disk error */
1179:Middlewares/Third_Party/FatFs/src/ff.c **** 			if (clst < 2 || clst >= dp->fs->n_fatent)	/* Reached to end of table or internal error */
1180:Middlewares/Third_Party/FatFs/src/ff.c **** 				return FR_INT_ERR;
1181:Middlewares/Third_Party/FatFs/src/ff.c **** 			idx -= ic;
1182:Middlewares/Third_Party/FatFs/src/ff.c **** 		}
1183:Middlewares/Third_Party/FatFs/src/ff.c **** 		sect = clust2sect(dp->fs, clst);
1184:Middlewares/Third_Party/FatFs/src/ff.c **** 	}
1185:Middlewares/Third_Party/FatFs/src/ff.c **** 	dp->clust = clst;	/* Current cluster# */
1186:Middlewares/Third_Party/FatFs/src/ff.c **** 	if (!sect) return FR_INT_ERR;
1187:Middlewares/Third_Party/FatFs/src/ff.c **** 	dp->sect = sect + idx / (SS(dp->fs) / SZ_DIRE);					/* Sector# of the directory entry */
1188:Middlewares/Third_Party/FatFs/src/ff.c **** 	dp->dir = dp->fs->win.d8 + (idx % (SS(dp->fs) / SZ_DIRE)) * SZ_DIRE;	/* Ptr to the entry in the se
1189:Middlewares/Third_Party/FatFs/src/ff.c **** 
1190:Middlewares/Third_Party/FatFs/src/ff.c **** 	return FR_OK;
1191:Middlewares/Third_Party/FatFs/src/ff.c **** }
1192:Middlewares/Third_Party/FatFs/src/ff.c **** 
1193:Middlewares/Third_Party/FatFs/src/ff.c **** 
1194:Middlewares/Third_Party/FatFs/src/ff.c **** 
1195:Middlewares/Third_Party/FatFs/src/ff.c **** 
1196:Middlewares/Third_Party/FatFs/src/ff.c **** /*-----------------------------------------------------------------------*/
1197:Middlewares/Third_Party/FatFs/src/ff.c **** /* Directory handling - Move directory table index next                  */
1198:Middlewares/Third_Party/FatFs/src/ff.c **** /*-----------------------------------------------------------------------*/
1199:Middlewares/Third_Party/FatFs/src/ff.c **** 
1200:Middlewares/Third_Party/FatFs/src/ff.c **** static
1201:Middlewares/Third_Party/FatFs/src/ff.c **** FRESULT dir_next (	/* FR_OK:Succeeded, FR_NO_FILE:End of table, FR_DENIED:Could not stretch */
1202:Middlewares/Third_Party/FatFs/src/ff.c **** 	DIR* dp,		/* Pointer to the directory object */
1203:Middlewares/Third_Party/FatFs/src/ff.c **** 	int stretch		/* 0: Do not stretch table, 1: Stretch table if needed */
1204:Middlewares/Third_Party/FatFs/src/ff.c **** )
1205:Middlewares/Third_Party/FatFs/src/ff.c **** {
1206:Middlewares/Third_Party/FatFs/src/ff.c **** 	DWORD clst;
1207:Middlewares/Third_Party/FatFs/src/ff.c **** 	UINT i;
1208:Middlewares/Third_Party/FatFs/src/ff.c **** #if !_FS_READONLY
1209:Middlewares/Third_Party/FatFs/src/ff.c **** 	UINT c;
1210:Middlewares/Third_Party/FatFs/src/ff.c **** #endif
1211:Middlewares/Third_Party/FatFs/src/ff.c **** 
ARM GAS  C:\Users\Admin\AppData\Local\Temp\cc3ZGI84.s 			page 39


1212:Middlewares/Third_Party/FatFs/src/ff.c **** 
1213:Middlewares/Third_Party/FatFs/src/ff.c **** 	i = dp->index + 1;
1214:Middlewares/Third_Party/FatFs/src/ff.c **** 	if (!(i & 0xFFFF) || !dp->sect)	/* Report EOT when index has reached 65535 */
1215:Middlewares/Third_Party/FatFs/src/ff.c **** 		return FR_NO_FILE;
1216:Middlewares/Third_Party/FatFs/src/ff.c **** 
1217:Middlewares/Third_Party/FatFs/src/ff.c **** 	if (!(i % (SS(dp->fs) / SZ_DIRE))) {	/* Sector changed? */
1218:Middlewares/Third_Party/FatFs/src/ff.c **** 		dp->sect++;					/* Next sector */
1219:Middlewares/Third_Party/FatFs/src/ff.c **** 
1220:Middlewares/Third_Party/FatFs/src/ff.c **** 		if (!dp->clust) {		/* Static table */
1221:Middlewares/Third_Party/FatFs/src/ff.c **** 			if (i >= dp->fs->n_rootdir)	/* Report EOT if it reached end of static table */
1222:Middlewares/Third_Party/FatFs/src/ff.c **** 				return FR_NO_FILE;
1223:Middlewares/Third_Party/FatFs/src/ff.c **** 		}
1224:Middlewares/Third_Party/FatFs/src/ff.c **** 		else {					/* Dynamic table */
1225:Middlewares/Third_Party/FatFs/src/ff.c **** 			if (((i / (SS(dp->fs) / SZ_DIRE)) & (dp->fs->csize - 1)) == 0) {	/* Cluster changed? */
1226:Middlewares/Third_Party/FatFs/src/ff.c **** 				clst = get_fat(dp->fs, dp->clust);				/* Get next cluster */
1227:Middlewares/Third_Party/FatFs/src/ff.c **** 				if (clst <= 1) return FR_INT_ERR;
1228:Middlewares/Third_Party/FatFs/src/ff.c **** 				if (clst == 0xFFFFFFFF) return FR_DISK_ERR;
1229:Middlewares/Third_Party/FatFs/src/ff.c **** 				if (clst >= dp->fs->n_fatent) {					/* If it reached end of dynamic table, */
1230:Middlewares/Third_Party/FatFs/src/ff.c **** #if !_FS_READONLY
1231:Middlewares/Third_Party/FatFs/src/ff.c **** 					if (!stretch) return FR_NO_FILE;			/* If do not stretch, report EOT */
1232:Middlewares/Third_Party/FatFs/src/ff.c **** 					clst = create_chain(dp->fs, dp->clust);		/* Stretch cluster chain */
1233:Middlewares/Third_Party/FatFs/src/ff.c **** 					if (clst == 0) return FR_DENIED;			/* No free cluster */
1234:Middlewares/Third_Party/FatFs/src/ff.c **** 					if (clst == 1) return FR_INT_ERR;
1235:Middlewares/Third_Party/FatFs/src/ff.c **** 					if (clst == 0xFFFFFFFF) return FR_DISK_ERR;
1236:Middlewares/Third_Party/FatFs/src/ff.c **** 					/* Clean-up stretched table */
1237:Middlewares/Third_Party/FatFs/src/ff.c **** 					if (sync_window(dp->fs)) return FR_DISK_ERR;/* Flush disk access window */
1238:Middlewares/Third_Party/FatFs/src/ff.c **** 					mem_set(dp->fs->win.d8, 0, SS(dp->fs));		/* Clear window buffer */
1239:Middlewares/Third_Party/FatFs/src/ff.c **** 					dp->fs->winsect = clust2sect(dp->fs, clst);	/* Cluster start sector */
1240:Middlewares/Third_Party/FatFs/src/ff.c **** 					for (c = 0; c < dp->fs->csize; c++) {		/* Fill the new cluster with 0 */
1241:Middlewares/Third_Party/FatFs/src/ff.c **** 						dp->fs->wflag = 1;
1242:Middlewares/Third_Party/FatFs/src/ff.c **** 						if (sync_window(dp->fs)) return FR_DISK_ERR;
1243:Middlewares/Third_Party/FatFs/src/ff.c **** 						dp->fs->winsect++;
1244:Middlewares/Third_Party/FatFs/src/ff.c **** 					}
1245:Middlewares/Third_Party/FatFs/src/ff.c **** 					dp->fs->winsect -= c;						/* Rewind window offset */
1246:Middlewares/Third_Party/FatFs/src/ff.c **** #else
1247:Middlewares/Third_Party/FatFs/src/ff.c **** 					if (!stretch) return FR_NO_FILE;			/* If do not stretch, report EOT (this is to suppress warni
1248:Middlewares/Third_Party/FatFs/src/ff.c **** 					return FR_NO_FILE;							/* Report EOT */
1249:Middlewares/Third_Party/FatFs/src/ff.c **** #endif
1250:Middlewares/Third_Party/FatFs/src/ff.c **** 				}
1251:Middlewares/Third_Party/FatFs/src/ff.c **** 				dp->clust = clst;				/* Initialize data for new cluster */
1252:Middlewares/Third_Party/FatFs/src/ff.c **** 				dp->sect = clust2sect(dp->fs, clst);
1253:Middlewares/Third_Party/FatFs/src/ff.c **** 			}
1254:Middlewares/Third_Party/FatFs/src/ff.c **** 		}
1255:Middlewares/Third_Party/FatFs/src/ff.c **** 	}
1256:Middlewares/Third_Party/FatFs/src/ff.c **** 
1257:Middlewares/Third_Party/FatFs/src/ff.c **** 	dp->index = (WORD)i;	/* Current index */
1258:Middlewares/Third_Party/FatFs/src/ff.c **** 	dp->dir = dp->fs->win.d8 + (i % (SS(dp->fs) / SZ_DIRE)) * SZ_DIRE;	/* Current entry in the window 
1259:Middlewares/Third_Party/FatFs/src/ff.c **** 
1260:Middlewares/Third_Party/FatFs/src/ff.c **** 	return FR_OK;
1261:Middlewares/Third_Party/FatFs/src/ff.c **** }
1262:Middlewares/Third_Party/FatFs/src/ff.c **** 
1263:Middlewares/Third_Party/FatFs/src/ff.c **** 
1264:Middlewares/Third_Party/FatFs/src/ff.c **** 
1265:Middlewares/Third_Party/FatFs/src/ff.c **** 
1266:Middlewares/Third_Party/FatFs/src/ff.c **** /*-----------------------------------------------------------------------*/
1267:Middlewares/Third_Party/FatFs/src/ff.c **** /* Directory handling - Reserve directory entry                          */
1268:Middlewares/Third_Party/FatFs/src/ff.c **** /*-----------------------------------------------------------------------*/
ARM GAS  C:\Users\Admin\AppData\Local\Temp\cc3ZGI84.s 			page 40


1269:Middlewares/Third_Party/FatFs/src/ff.c **** 
1270:Middlewares/Third_Party/FatFs/src/ff.c **** #if !_FS_READONLY
1271:Middlewares/Third_Party/FatFs/src/ff.c **** static
1272:Middlewares/Third_Party/FatFs/src/ff.c **** FRESULT dir_alloc (
1273:Middlewares/Third_Party/FatFs/src/ff.c **** 	DIR* dp,	/* Pointer to the directory object */
1274:Middlewares/Third_Party/FatFs/src/ff.c **** 	UINT nent	/* Number of contiguous entries to allocate (1-21) */
1275:Middlewares/Third_Party/FatFs/src/ff.c **** )
1276:Middlewares/Third_Party/FatFs/src/ff.c **** {
1277:Middlewares/Third_Party/FatFs/src/ff.c **** 	FRESULT res;
1278:Middlewares/Third_Party/FatFs/src/ff.c **** 	UINT n;
1279:Middlewares/Third_Party/FatFs/src/ff.c **** 
1280:Middlewares/Third_Party/FatFs/src/ff.c **** 
1281:Middlewares/Third_Party/FatFs/src/ff.c **** 	res = dir_sdi(dp, 0);
1282:Middlewares/Third_Party/FatFs/src/ff.c **** 	if (res == FR_OK) {
1283:Middlewares/Third_Party/FatFs/src/ff.c **** 		n = 0;
1284:Middlewares/Third_Party/FatFs/src/ff.c **** 		do {
1285:Middlewares/Third_Party/FatFs/src/ff.c **** 			res = move_window(dp->fs, dp->sect);
1286:Middlewares/Third_Party/FatFs/src/ff.c **** 			if (res != FR_OK) break;
1287:Middlewares/Third_Party/FatFs/src/ff.c **** 			if (dp->dir[0] == DDEM || dp->dir[0] == 0) {	/* Is it a free entry? */
1288:Middlewares/Third_Party/FatFs/src/ff.c **** 				if (++n == nent) break;	/* A block of contiguous free entries is found */
1289:Middlewares/Third_Party/FatFs/src/ff.c **** 			} else {
1290:Middlewares/Third_Party/FatFs/src/ff.c **** 				n = 0;					/* Not a blank entry. Restart to search */
1291:Middlewares/Third_Party/FatFs/src/ff.c **** 			}
1292:Middlewares/Third_Party/FatFs/src/ff.c **** 			res = dir_next(dp, 1);		/* Next entry with table stretch enabled */
1293:Middlewares/Third_Party/FatFs/src/ff.c **** 		} while (res == FR_OK);
1294:Middlewares/Third_Party/FatFs/src/ff.c **** 	}
1295:Middlewares/Third_Party/FatFs/src/ff.c **** 	if (res == FR_NO_FILE) res = FR_DENIED;	/* No directory entry to allocate */
1296:Middlewares/Third_Party/FatFs/src/ff.c **** 	return res;
1297:Middlewares/Third_Party/FatFs/src/ff.c **** }
1298:Middlewares/Third_Party/FatFs/src/ff.c **** #endif
1299:Middlewares/Third_Party/FatFs/src/ff.c **** 
1300:Middlewares/Third_Party/FatFs/src/ff.c **** 
1301:Middlewares/Third_Party/FatFs/src/ff.c **** 
1302:Middlewares/Third_Party/FatFs/src/ff.c **** 
1303:Middlewares/Third_Party/FatFs/src/ff.c **** /*-----------------------------------------------------------------------*/
1304:Middlewares/Third_Party/FatFs/src/ff.c **** /* Directory handling - Load/Store start cluster number                  */
1305:Middlewares/Third_Party/FatFs/src/ff.c **** /*-----------------------------------------------------------------------*/
1306:Middlewares/Third_Party/FatFs/src/ff.c **** 
1307:Middlewares/Third_Party/FatFs/src/ff.c **** static
1308:Middlewares/Third_Party/FatFs/src/ff.c **** DWORD ld_clust (
1309:Middlewares/Third_Party/FatFs/src/ff.c **** 	FATFS* fs,	/* Pointer to the fs object */
1310:Middlewares/Third_Party/FatFs/src/ff.c **** 	BYTE* dir	/* Pointer to the directory entry */
1311:Middlewares/Third_Party/FatFs/src/ff.c **** )
1312:Middlewares/Third_Party/FatFs/src/ff.c **** {
 884              		.loc 1 1312 1 is_stmt 1 view -0
 885              		.cfi_startproc
 886              		@ args = 0, pretend = 0, frame = 0
 887              		@ frame_needed = 0, uses_anonymous_args = 0
 888              		@ link register save eliminated.
1313:Middlewares/Third_Party/FatFs/src/ff.c **** 	DWORD cl;
 889              		.loc 1 1313 2 view .LVU258
1314:Middlewares/Third_Party/FatFs/src/ff.c **** 
1315:Middlewares/Third_Party/FatFs/src/ff.c **** 	cl = LD_WORD(dir + DIR_FstClusLO);
 890              		.loc 1 1315 2 view .LVU259
 891              		.loc 1 1315 7 is_stmt 0 view .LVU260
 892 0000 CA7E     		ldrb	r2, [r1, #27]	@ zero_extendqisi2
 893 0002 8B7E     		ldrb	r3, [r1, #26]	@ zero_extendqisi2
ARM GAS  C:\Users\Admin\AppData\Local\Temp\cc3ZGI84.s 			page 41


 894 0004 43EA0223 		orr	r3, r3, r2, lsl #8
 895              	.LVL88:
1316:Middlewares/Third_Party/FatFs/src/ff.c **** 	if (fs->fs_type == FS_FAT32)
 896              		.loc 1 1316 2 is_stmt 1 view .LVU261
 897              		.loc 1 1316 8 is_stmt 0 view .LVU262
 898 0008 00F58050 		add	r0, r0, #4096
 899              	.LVL89:
 900              		.loc 1 1316 8 view .LVU263
 901 000c 0278     		ldrb	r2, [r0]	@ zero_extendqisi2
 902              		.loc 1 1316 5 view .LVU264
 903 000e 032A     		cmp	r2, #3
 904 0010 01D0     		beq	.L91
 905              	.LVL90:
 906              	.L89:
1317:Middlewares/Third_Party/FatFs/src/ff.c **** 		cl |= (DWORD)LD_WORD(dir + DIR_FstClusHI) << 16;
1318:Middlewares/Third_Party/FatFs/src/ff.c **** 
1319:Middlewares/Third_Party/FatFs/src/ff.c **** 	return cl;
1320:Middlewares/Third_Party/FatFs/src/ff.c **** }
 907              		.loc 1 1320 1 view .LVU265
 908 0012 1846     		mov	r0, r3
 909 0014 7047     		bx	lr
 910              	.L91:
1317:Middlewares/Third_Party/FatFs/src/ff.c **** 		cl |= (DWORD)LD_WORD(dir + DIR_FstClusHI) << 16;
 911              		.loc 1 1317 3 is_stmt 1 view .LVU266
1317:Middlewares/Third_Party/FatFs/src/ff.c **** 		cl |= (DWORD)LD_WORD(dir + DIR_FstClusHI) << 16;
 912              		.loc 1 1317 16 is_stmt 0 view .LVU267
 913 0016 487D     		ldrb	r0, [r1, #21]	@ zero_extendqisi2
 914 0018 0A7D     		ldrb	r2, [r1, #20]	@ zero_extendqisi2
 915 001a 42EA0022 		orr	r2, r2, r0, lsl #8
1317:Middlewares/Third_Party/FatFs/src/ff.c **** 		cl |= (DWORD)LD_WORD(dir + DIR_FstClusHI) << 16;
 916              		.loc 1 1317 6 view .LVU268
 917 001e 43EA0243 		orr	r3, r3, r2, lsl #16
 918              	.LVL91:
1319:Middlewares/Third_Party/FatFs/src/ff.c **** }
 919              		.loc 1 1319 2 is_stmt 1 view .LVU269
1319:Middlewares/Third_Party/FatFs/src/ff.c **** }
 920              		.loc 1 1319 9 is_stmt 0 view .LVU270
 921 0022 F6E7     		b	.L89
 922              		.cfi_endproc
 923              	.LFE86:
 925              		.section	.text.st_clust,"ax",%progbits
 926              		.align	1
 927              		.syntax unified
 928              		.thumb
 929              		.thumb_func
 931              	st_clust:
 932              	.LVL92:
 933              	.LFB87:
1321:Middlewares/Third_Party/FatFs/src/ff.c **** 
1322:Middlewares/Third_Party/FatFs/src/ff.c **** 
1323:Middlewares/Third_Party/FatFs/src/ff.c **** #if !_FS_READONLY
1324:Middlewares/Third_Party/FatFs/src/ff.c **** static
1325:Middlewares/Third_Party/FatFs/src/ff.c **** void st_clust (
1326:Middlewares/Third_Party/FatFs/src/ff.c **** 	BYTE* dir,	/* Pointer to the directory entry */
1327:Middlewares/Third_Party/FatFs/src/ff.c **** 	DWORD cl	/* Value to be set */
1328:Middlewares/Third_Party/FatFs/src/ff.c **** )
1329:Middlewares/Third_Party/FatFs/src/ff.c **** {
ARM GAS  C:\Users\Admin\AppData\Local\Temp\cc3ZGI84.s 			page 42


 934              		.loc 1 1329 1 is_stmt 1 view -0
 935              		.cfi_startproc
 936              		@ args = 0, pretend = 0, frame = 0
 937              		@ frame_needed = 0, uses_anonymous_args = 0
 938              		@ link register save eliminated.
1330:Middlewares/Third_Party/FatFs/src/ff.c **** 	ST_WORD(dir + DIR_FstClusLO, cl);
 939              		.loc 1 1330 2 view .LVU272
 940 0000 8176     		strb	r1, [r0, #26]
 941              		.loc 1 1330 2 view .LVU273
 942 0002 C1F30723 		ubfx	r3, r1, #8, #8
 943 0006 C376     		strb	r3, [r0, #27]
1331:Middlewares/Third_Party/FatFs/src/ff.c **** 	ST_WORD(dir + DIR_FstClusHI, cl >> 16);
 944              		.loc 1 1331 2 view .LVU274
 945 0008 C1F30743 		ubfx	r3, r1, #16, #8
 946 000c 0375     		strb	r3, [r0, #20]
 947              		.loc 1 1331 2 view .LVU275
 948 000e 090E     		lsrs	r1, r1, #24
 949              	.LVL93:
 950              		.loc 1 1331 2 is_stmt 0 view .LVU276
 951 0010 4175     		strb	r1, [r0, #21]
1332:Middlewares/Third_Party/FatFs/src/ff.c **** }
 952              		.loc 1 1332 1 view .LVU277
 953 0012 7047     		bx	lr
 954              		.cfi_endproc
 955              	.LFE87:
 957              		.section	.text.pick_lfn,"ax",%progbits
 958              		.align	1
 959              		.syntax unified
 960              		.thumb
 961              		.thumb_func
 963              	pick_lfn:
 964              	.LVL94:
 965              	.LFB89:
1333:Middlewares/Third_Party/FatFs/src/ff.c **** #endif
1334:Middlewares/Third_Party/FatFs/src/ff.c **** 
1335:Middlewares/Third_Party/FatFs/src/ff.c **** 
1336:Middlewares/Third_Party/FatFs/src/ff.c **** 
1337:Middlewares/Third_Party/FatFs/src/ff.c **** 
1338:Middlewares/Third_Party/FatFs/src/ff.c **** /*-----------------------------------------------------------------------*/
1339:Middlewares/Third_Party/FatFs/src/ff.c **** /* LFN handling - Test/Pick/Fit an LFN segment from/to directory entry   */
1340:Middlewares/Third_Party/FatFs/src/ff.c **** /*-----------------------------------------------------------------------*/
1341:Middlewares/Third_Party/FatFs/src/ff.c **** #if _USE_LFN
1342:Middlewares/Third_Party/FatFs/src/ff.c **** static
1343:Middlewares/Third_Party/FatFs/src/ff.c **** const BYTE LfnOfs[] = {1,3,5,7,9,14,16,18,20,22,24,28,30};	/* Offset of LFN characters in the direc
1344:Middlewares/Third_Party/FatFs/src/ff.c **** 
1345:Middlewares/Third_Party/FatFs/src/ff.c **** 
1346:Middlewares/Third_Party/FatFs/src/ff.c **** static
1347:Middlewares/Third_Party/FatFs/src/ff.c **** int cmp_lfn (			/* 1:Matched, 0:Not matched */
1348:Middlewares/Third_Party/FatFs/src/ff.c **** 	WCHAR* lfnbuf,		/* Pointer to the LFN to be compared */
1349:Middlewares/Third_Party/FatFs/src/ff.c **** 	BYTE* dir			/* Pointer to the directory entry containing a part of LFN */
1350:Middlewares/Third_Party/FatFs/src/ff.c **** )
1351:Middlewares/Third_Party/FatFs/src/ff.c **** {
1352:Middlewares/Third_Party/FatFs/src/ff.c **** 	UINT i, s;
1353:Middlewares/Third_Party/FatFs/src/ff.c **** 	WCHAR wc, uc;
1354:Middlewares/Third_Party/FatFs/src/ff.c **** 
1355:Middlewares/Third_Party/FatFs/src/ff.c **** 
1356:Middlewares/Third_Party/FatFs/src/ff.c **** 	i = ((dir[LDIR_Ord] & ~LLEF) - 1) * 13;	/* Get offset in the LFN buffer */
ARM GAS  C:\Users\Admin\AppData\Local\Temp\cc3ZGI84.s 			page 43


1357:Middlewares/Third_Party/FatFs/src/ff.c **** 	s = 0; wc = 1;
1358:Middlewares/Third_Party/FatFs/src/ff.c **** 	do {
1359:Middlewares/Third_Party/FatFs/src/ff.c **** 		uc = LD_WORD(dir + LfnOfs[s]);	/* Pick an LFN character from the entry */
1360:Middlewares/Third_Party/FatFs/src/ff.c **** 		if (wc) {	/* Last character has not been processed */
1361:Middlewares/Third_Party/FatFs/src/ff.c **** 			wc = ff_wtoupper(uc);		/* Convert it to upper case */
1362:Middlewares/Third_Party/FatFs/src/ff.c **** 			if (i >= _MAX_LFN || wc != ff_wtoupper(lfnbuf[i++]))	/* Compare it */
1363:Middlewares/Third_Party/FatFs/src/ff.c **** 				return 0;				/* Not matched */
1364:Middlewares/Third_Party/FatFs/src/ff.c **** 		} else {
1365:Middlewares/Third_Party/FatFs/src/ff.c **** 			if (uc != 0xFFFF) return 0;	/* Check filler */
1366:Middlewares/Third_Party/FatFs/src/ff.c **** 		}
1367:Middlewares/Third_Party/FatFs/src/ff.c **** 	} while (++s < 13);				/* Repeat until all characters in the entry are checked */
1368:Middlewares/Third_Party/FatFs/src/ff.c **** 
1369:Middlewares/Third_Party/FatFs/src/ff.c **** 	if ((dir[LDIR_Ord] & LLEF) && wc && lfnbuf[i])	/* Last segment matched but different length */
1370:Middlewares/Third_Party/FatFs/src/ff.c **** 		return 0;
1371:Middlewares/Third_Party/FatFs/src/ff.c **** 
1372:Middlewares/Third_Party/FatFs/src/ff.c **** 	return 1;						/* The part of LFN matched */
1373:Middlewares/Third_Party/FatFs/src/ff.c **** }
1374:Middlewares/Third_Party/FatFs/src/ff.c **** 
1375:Middlewares/Third_Party/FatFs/src/ff.c **** 
1376:Middlewares/Third_Party/FatFs/src/ff.c **** 
1377:Middlewares/Third_Party/FatFs/src/ff.c **** static
1378:Middlewares/Third_Party/FatFs/src/ff.c **** int pick_lfn (			/* 1:Succeeded, 0:Buffer overflow */
1379:Middlewares/Third_Party/FatFs/src/ff.c **** 	WCHAR* lfnbuf,		/* Pointer to the Unicode-LFN buffer */
1380:Middlewares/Third_Party/FatFs/src/ff.c **** 	BYTE* dir			/* Pointer to the directory entry */
1381:Middlewares/Third_Party/FatFs/src/ff.c **** )
1382:Middlewares/Third_Party/FatFs/src/ff.c **** {
 966              		.loc 1 1382 1 is_stmt 1 view -0
 967              		.cfi_startproc
 968              		@ args = 0, pretend = 0, frame = 0
 969              		@ frame_needed = 0, uses_anonymous_args = 0
 970              		.loc 1 1382 1 is_stmt 0 view .LVU279
 971 0000 30B5     		push	{r4, r5, lr}
 972              	.LCFI10:
 973              		.cfi_def_cfa_offset 12
 974              		.cfi_offset 4, -12
 975              		.cfi_offset 5, -8
 976              		.cfi_offset 14, -4
1383:Middlewares/Third_Party/FatFs/src/ff.c **** 	UINT i, s;
 977              		.loc 1 1383 2 is_stmt 1 view .LVU280
1384:Middlewares/Third_Party/FatFs/src/ff.c **** 	WCHAR wc, uc;
 978              		.loc 1 1384 2 view .LVU281
1385:Middlewares/Third_Party/FatFs/src/ff.c **** 
1386:Middlewares/Third_Party/FatFs/src/ff.c **** 
1387:Middlewares/Third_Party/FatFs/src/ff.c **** 	i = ((dir[LDIR_Ord] & 0x3F) - 1) * 13;	/* Offset in the LFN buffer */
 979              		.loc 1 1387 2 view .LVU282
 980              		.loc 1 1387 11 is_stmt 0 view .LVU283
 981 0002 91F800E0 		ldrb	lr, [r1]	@ zero_extendqisi2
 982              		.loc 1 1387 22 view .LVU284
 983 0006 0EF03F0E 		and	lr, lr, #63
 984              		.loc 1 1387 30 view .LVU285
 985 000a 0EF1FF3E 		add	lr, lr, #-1
 986              		.loc 1 1387 35 view .LVU286
 987 000e 0EEB4E03 		add	r3, lr, lr, lsl #1
 988              		.loc 1 1387 4 view .LVU287
 989 0012 0EEB830E 		add	lr, lr, r3, lsl #2
 990              	.LVL95:
1388:Middlewares/Third_Party/FatFs/src/ff.c **** 
ARM GAS  C:\Users\Admin\AppData\Local\Temp\cc3ZGI84.s 			page 44


1389:Middlewares/Third_Party/FatFs/src/ff.c **** 	s = 0; wc = 1;
 991              		.loc 1 1389 2 is_stmt 1 view .LVU288
 992              		.loc 1 1389 9 view .LVU289
 993              		.loc 1 1389 12 is_stmt 0 view .LVU290
 994 0016 0125     		movs	r5, #1
 995              		.loc 1 1389 4 view .LVU291
 996 0018 0022     		movs	r2, #0
 997 001a 06E0     		b	.L97
 998              	.LVL96:
 999              	.L94:
1390:Middlewares/Third_Party/FatFs/src/ff.c **** 	do {
1391:Middlewares/Third_Party/FatFs/src/ff.c **** 		uc = LD_WORD(dir + LfnOfs[s]);		/* Pick an LFN character from the entry */
1392:Middlewares/Third_Party/FatFs/src/ff.c **** 		if (wc) {	/* Last character has not been processed */
1393:Middlewares/Third_Party/FatFs/src/ff.c **** 			if (i >= _MAX_LFN) return 0;	/* Buffer overflow? */
1394:Middlewares/Third_Party/FatFs/src/ff.c **** 			lfnbuf[i++] = wc = uc;			/* Store it */
1395:Middlewares/Third_Party/FatFs/src/ff.c **** 		} else {
1396:Middlewares/Third_Party/FatFs/src/ff.c **** 			if (uc != 0xFFFF) return 0;		/* Check filler */
 1000              		.loc 1 1396 4 is_stmt 1 view .LVU292
 1001              		.loc 1 1396 7 is_stmt 0 view .LVU293
 1002 001c 4FF6FF74 		movw	r4, #65535
 1003 0020 A342     		cmp	r3, r4
 1004 0022 25D1     		bne	.L99
 1005              	.LVL97:
 1006              	.L96:
1397:Middlewares/Third_Party/FatFs/src/ff.c **** 		}
1398:Middlewares/Third_Party/FatFs/src/ff.c **** 	} while (++s < 13);						/* Read all character in the entry */
 1007              		.loc 1 1398 10 is_stmt 1 view .LVU294
 1008              		.loc 1 1398 2 is_stmt 0 view .LVU295
 1009 0024 0132     		adds	r2, r2, #1
 1010              	.LVL98:
 1011              		.loc 1 1398 2 view .LVU296
 1012 0026 0C2A     		cmp	r2, #12
 1013 0028 14D8     		bhi	.L103
 1014              	.LVL99:
 1015              	.L97:
1390:Middlewares/Third_Party/FatFs/src/ff.c **** 	do {
 1016              		.loc 1 1390 2 is_stmt 1 view .LVU297
1391:Middlewares/Third_Party/FatFs/src/ff.c **** 		if (wc) {	/* Last character has not been processed */
 1017              		.loc 1 1391 3 view .LVU298
1391:Middlewares/Third_Party/FatFs/src/ff.c **** 		if (wc) {	/* Last character has not been processed */
 1018              		.loc 1 1391 8 is_stmt 0 view .LVU299
 1019 002a 144B     		ldr	r3, .L104
 1020 002c 13F802C0 		ldrb	ip, [r3, r2]	@ zero_extendqisi2
 1021 0030 0CF10103 		add	r3, ip, #1
 1022 0034 CC5C     		ldrb	r4, [r1, r3]	@ zero_extendqisi2
 1023 0036 11F80C30 		ldrb	r3, [r1, ip]	@ zero_extendqisi2
1391:Middlewares/Third_Party/FatFs/src/ff.c **** 		if (wc) {	/* Last character has not been processed */
 1024              		.loc 1 1391 6 view .LVU300
 1025 003a 43EA0423 		orr	r3, r3, r4, lsl #8
 1026              	.LVL100:
1392:Middlewares/Third_Party/FatFs/src/ff.c **** 			if (i >= _MAX_LFN) return 0;	/* Buffer overflow? */
 1027              		.loc 1 1392 3 is_stmt 1 view .LVU301
1392:Middlewares/Third_Party/FatFs/src/ff.c **** 			if (i >= _MAX_LFN) return 0;	/* Buffer overflow? */
 1028              		.loc 1 1392 6 is_stmt 0 view .LVU302
 1029 003e 002D     		cmp	r5, #0
 1030 0040 ECD0     		beq	.L94
1393:Middlewares/Third_Party/FatFs/src/ff.c **** 			lfnbuf[i++] = wc = uc;			/* Store it */
ARM GAS  C:\Users\Admin\AppData\Local\Temp\cc3ZGI84.s 			page 45


 1031              		.loc 1 1393 4 is_stmt 1 view .LVU303
1393:Middlewares/Third_Party/FatFs/src/ff.c **** 			lfnbuf[i++] = wc = uc;			/* Store it */
 1032              		.loc 1 1393 7 is_stmt 0 view .LVU304
 1033 0042 BEF1FE0F 		cmp	lr, #254
 1034 0046 11D8     		bhi	.L98
1394:Middlewares/Third_Party/FatFs/src/ff.c **** 		} else {
 1035              		.loc 1 1394 4 is_stmt 1 view .LVU305
 1036              	.LVL101:
1394:Middlewares/Third_Party/FatFs/src/ff.c **** 		} else {
 1037              		.loc 1 1394 16 is_stmt 0 view .LVU306
 1038 0048 20F81E30 		strh	r3, [r0, lr, lsl #1]	@ movhi
1394:Middlewares/Third_Party/FatFs/src/ff.c **** 		} else {
 1039              		.loc 1 1394 21 view .LVU307
 1040 004c 1D46     		mov	r5, r3
1394:Middlewares/Third_Party/FatFs/src/ff.c **** 		} else {
 1041              		.loc 1 1394 12 view .LVU308
 1042 004e 0EF1010E 		add	lr, lr, #1
 1043              	.LVL102:
1394:Middlewares/Third_Party/FatFs/src/ff.c **** 		} else {
 1044              		.loc 1 1394 12 view .LVU309
 1045 0052 E7E7     		b	.L96
 1046              	.LVL103:
 1047              	.L103:
1399:Middlewares/Third_Party/FatFs/src/ff.c **** 
1400:Middlewares/Third_Party/FatFs/src/ff.c **** 	if (dir[LDIR_Ord] & LLEF) {				/* Put terminator if it is the last LFN part */
 1048              		.loc 1 1400 2 is_stmt 1 view .LVU310
 1049              		.loc 1 1400 9 is_stmt 0 view .LVU311
 1050 0054 0B78     		ldrb	r3, [r1]	@ zero_extendqisi2
 1051              	.LVL104:
 1052              		.loc 1 1400 5 view .LVU312
 1053 0056 13F0400F 		tst	r3, #64
 1054 005a 0BD0     		beq	.L100
1401:Middlewares/Third_Party/FatFs/src/ff.c **** 		if (i >= _MAX_LFN) return 0;		/* Buffer overflow? */
 1055              		.loc 1 1401 3 is_stmt 1 view .LVU313
 1056              		.loc 1 1401 6 is_stmt 0 view .LVU314
 1057 005c BEF1FE0F 		cmp	lr, #254
 1058 0060 0AD8     		bhi	.L101
1402:Middlewares/Third_Party/FatFs/src/ff.c **** 		lfnbuf[i] = 0;
 1059              		.loc 1 1402 3 is_stmt 1 view .LVU315
 1060              		.loc 1 1402 13 is_stmt 0 view .LVU316
 1061 0062 0023     		movs	r3, #0
 1062 0064 20F81E30 		strh	r3, [r0, lr, lsl #1]	@ movhi
1403:Middlewares/Third_Party/FatFs/src/ff.c **** 	}
1404:Middlewares/Third_Party/FatFs/src/ff.c **** 
1405:Middlewares/Third_Party/FatFs/src/ff.c **** 	return 1;
 1063              		.loc 1 1405 9 view .LVU317
 1064 0068 0120     		movs	r0, #1
 1065              	.LVL105:
 1066              		.loc 1 1405 9 view .LVU318
 1067 006a 04E0     		b	.L93
 1068              	.LVL106:
 1069              	.L98:
1393:Middlewares/Third_Party/FatFs/src/ff.c **** 			lfnbuf[i++] = wc = uc;			/* Store it */
 1070              		.loc 1 1393 30 view .LVU319
 1071 006c 0020     		movs	r0, #0
 1072              	.LVL107:
1393:Middlewares/Third_Party/FatFs/src/ff.c **** 			lfnbuf[i++] = wc = uc;			/* Store it */
ARM GAS  C:\Users\Admin\AppData\Local\Temp\cc3ZGI84.s 			page 46


 1073              		.loc 1 1393 30 view .LVU320
 1074 006e 02E0     		b	.L93
 1075              	.LVL108:
 1076              	.L99:
1396:Middlewares/Third_Party/FatFs/src/ff.c **** 		}
 1077              		.loc 1 1396 29 view .LVU321
 1078 0070 0020     		movs	r0, #0
 1079              	.LVL109:
1396:Middlewares/Third_Party/FatFs/src/ff.c **** 		}
 1080              		.loc 1 1396 29 view .LVU322
 1081 0072 00E0     		b	.L93
 1082              	.LVL110:
 1083              	.L100:
 1084              		.loc 1 1405 9 view .LVU323
 1085 0074 0120     		movs	r0, #1
 1086              	.LVL111:
 1087              	.L93:
1406:Middlewares/Third_Party/FatFs/src/ff.c **** }
 1088              		.loc 1 1406 1 view .LVU324
 1089 0076 30BD     		pop	{r4, r5, pc}
 1090              	.LVL112:
 1091              	.L101:
1401:Middlewares/Third_Party/FatFs/src/ff.c **** 		lfnbuf[i] = 0;
 1092              		.loc 1 1401 29 view .LVU325
 1093 0078 0020     		movs	r0, #0
 1094              	.LVL113:
1401:Middlewares/Third_Party/FatFs/src/ff.c **** 		lfnbuf[i] = 0;
 1095              		.loc 1 1401 29 view .LVU326
 1096 007a FCE7     		b	.L93
 1097              	.L105:
 1098              		.align	2
 1099              	.L104:
 1100 007c 00000000 		.word	.LANCHOR1
 1101              		.cfi_endproc
 1102              	.LFE89:
 1104              		.section	.text.fit_lfn,"ax",%progbits
 1105              		.align	1
 1106              		.syntax unified
 1107              		.thumb
 1108              		.thumb_func
 1110              	fit_lfn:
 1111              	.LVL114:
 1112              	.LFB90:
1407:Middlewares/Third_Party/FatFs/src/ff.c **** 
1408:Middlewares/Third_Party/FatFs/src/ff.c **** 
1409:Middlewares/Third_Party/FatFs/src/ff.c **** #if !_FS_READONLY
1410:Middlewares/Third_Party/FatFs/src/ff.c **** static
1411:Middlewares/Third_Party/FatFs/src/ff.c **** void fit_lfn (
1412:Middlewares/Third_Party/FatFs/src/ff.c **** 	const WCHAR* lfnbuf,	/* Pointer to the LFN buffer */
1413:Middlewares/Third_Party/FatFs/src/ff.c **** 	BYTE* dir,				/* Pointer to the directory entry */
1414:Middlewares/Third_Party/FatFs/src/ff.c **** 	BYTE ord,				/* LFN order (1-20) */
1415:Middlewares/Third_Party/FatFs/src/ff.c **** 	BYTE sum				/* SFN sum */
1416:Middlewares/Third_Party/FatFs/src/ff.c **** )
1417:Middlewares/Third_Party/FatFs/src/ff.c **** {
 1113              		.loc 1 1417 1 is_stmt 1 view -0
 1114              		.cfi_startproc
 1115              		@ args = 0, pretend = 0, frame = 0
ARM GAS  C:\Users\Admin\AppData\Local\Temp\cc3ZGI84.s 			page 47


 1116              		@ frame_needed = 0, uses_anonymous_args = 0
 1117              		.loc 1 1417 1 is_stmt 0 view .LVU328
 1118 0000 30B5     		push	{r4, r5, lr}
 1119              	.LCFI11:
 1120              		.cfi_def_cfa_offset 12
 1121              		.cfi_offset 4, -12
 1122              		.cfi_offset 5, -8
 1123              		.cfi_offset 14, -4
1418:Middlewares/Third_Party/FatFs/src/ff.c **** 	UINT i, s;
 1124              		.loc 1 1418 2 is_stmt 1 view .LVU329
1419:Middlewares/Third_Party/FatFs/src/ff.c **** 	WCHAR wc;
 1125              		.loc 1 1419 2 view .LVU330
1420:Middlewares/Third_Party/FatFs/src/ff.c **** 
1421:Middlewares/Third_Party/FatFs/src/ff.c **** 
1422:Middlewares/Third_Party/FatFs/src/ff.c **** 	dir[LDIR_Chksum] = sum;			/* Set check sum */
 1126              		.loc 1 1422 2 view .LVU331
 1127              		.loc 1 1422 19 is_stmt 0 view .LVU332
 1128 0002 4B73     		strb	r3, [r1, #13]
1423:Middlewares/Third_Party/FatFs/src/ff.c **** 	dir[LDIR_Attr] = AM_LFN;		/* Set attribute. LFN entry */
 1129              		.loc 1 1423 2 is_stmt 1 view .LVU333
 1130              		.loc 1 1423 17 is_stmt 0 view .LVU334
 1131 0004 0F23     		movs	r3, #15
 1132              	.LVL115:
 1133              		.loc 1 1423 17 view .LVU335
 1134 0006 CB72     		strb	r3, [r1, #11]
1424:Middlewares/Third_Party/FatFs/src/ff.c **** 	dir[LDIR_Type] = 0;
 1135              		.loc 1 1424 2 is_stmt 1 view .LVU336
 1136              		.loc 1 1424 17 is_stmt 0 view .LVU337
 1137 0008 4FF0000E 		mov	lr, #0
 1138 000c 81F80CE0 		strb	lr, [r1, #12]
1425:Middlewares/Third_Party/FatFs/src/ff.c **** 	ST_WORD(dir + LDIR_FstClusLO, 0);
 1139              		.loc 1 1425 2 is_stmt 1 view .LVU338
 1140 0010 81F81AE0 		strb	lr, [r1, #26]
 1141              		.loc 1 1425 2 view .LVU339
 1142 0014 81F81BE0 		strb	lr, [r1, #27]
1426:Middlewares/Third_Party/FatFs/src/ff.c **** 
1427:Middlewares/Third_Party/FatFs/src/ff.c **** 	i = (ord - 1) * 13;				/* Get offset in the LFN buffer */
 1143              		.loc 1 1427 2 view .LVU340
 1144              		.loc 1 1427 11 is_stmt 0 view .LVU341
 1145 0018 541E     		subs	r4, r2, #1
 1146              		.loc 1 1427 16 view .LVU342
 1147 001a 04EB4403 		add	r3, r4, r4, lsl #1
 1148              		.loc 1 1427 4 view .LVU343
 1149 001e 04EB8304 		add	r4, r4, r3, lsl #2
 1150              	.LVL116:
1428:Middlewares/Third_Party/FatFs/src/ff.c **** 	s = wc = 0;
 1151              		.loc 1 1428 2 is_stmt 1 view .LVU344
 1152              		.loc 1 1428 9 is_stmt 0 view .LVU345
 1153 0022 7346     		mov	r3, lr
 1154 0024 04E0     		b	.L109
 1155              	.LVL117:
 1156              	.L108:
1429:Middlewares/Third_Party/FatFs/src/ff.c **** 	do {
1430:Middlewares/Third_Party/FatFs/src/ff.c **** 		if (wc != 0xFFFF) wc = lfnbuf[i++];	/* Get an effective character */
1431:Middlewares/Third_Party/FatFs/src/ff.c **** 		ST_WORD(dir+LfnOfs[s], wc);	/* Put it */
1432:Middlewares/Third_Party/FatFs/src/ff.c **** 		if (!wc) wc = 0xFFFF;		/* Padding characters following last character */
1433:Middlewares/Third_Party/FatFs/src/ff.c **** 	} while (++s < 13);
ARM GAS  C:\Users\Admin\AppData\Local\Temp\cc3ZGI84.s 			page 48


 1157              		.loc 1 1433 10 is_stmt 1 view .LVU346
 1158              		.loc 1 1433 2 is_stmt 0 view .LVU347
 1159 0026 0EF1010E 		add	lr, lr, #1
 1160              	.LVL118:
 1161              		.loc 1 1433 2 view .LVU348
 1162 002a BEF10C0F 		cmp	lr, #12
 1163 002e 15D8     		bhi	.L114
 1164              	.LVL119:
 1165              	.L109:
1429:Middlewares/Third_Party/FatFs/src/ff.c **** 	do {
 1166              		.loc 1 1429 2 is_stmt 1 view .LVU349
1430:Middlewares/Third_Party/FatFs/src/ff.c **** 		ST_WORD(dir+LfnOfs[s], wc);	/* Put it */
 1167              		.loc 1 1430 3 view .LVU350
1430:Middlewares/Third_Party/FatFs/src/ff.c **** 		ST_WORD(dir+LfnOfs[s], wc);	/* Put it */
 1168              		.loc 1 1430 6 is_stmt 0 view .LVU351
 1169 0030 4FF6FF75 		movw	r5, #65535
 1170 0034 AB42     		cmp	r3, r5
 1171 0036 02D0     		beq	.L107
1430:Middlewares/Third_Party/FatFs/src/ff.c **** 		ST_WORD(dir+LfnOfs[s], wc);	/* Put it */
 1172              		.loc 1 1430 21 is_stmt 1 discriminator 1 view .LVU352
 1173              	.LVL120:
1430:Middlewares/Third_Party/FatFs/src/ff.c **** 		ST_WORD(dir+LfnOfs[s], wc);	/* Put it */
 1174              		.loc 1 1430 24 is_stmt 0 discriminator 1 view .LVU353
 1175 0038 30F81430 		ldrh	r3, [r0, r4, lsl #1]
 1176              	.LVL121:
1430:Middlewares/Third_Party/FatFs/src/ff.c **** 		ST_WORD(dir+LfnOfs[s], wc);	/* Put it */
 1177              		.loc 1 1430 34 discriminator 1 view .LVU354
 1178 003c 0134     		adds	r4, r4, #1
 1179              	.LVL122:
 1180              	.L107:
1431:Middlewares/Third_Party/FatFs/src/ff.c **** 		if (!wc) wc = 0xFFFF;		/* Padding characters following last character */
 1181              		.loc 1 1431 3 is_stmt 1 view .LVU355
 1182 003e 0D4D     		ldr	r5, .L115
 1183 0040 15F80EC0 		ldrb	ip, [r5, lr]	@ zero_extendqisi2
 1184 0044 01F80C30 		strb	r3, [r1, ip]
1431:Middlewares/Third_Party/FatFs/src/ff.c **** 		if (!wc) wc = 0xFFFF;		/* Padding characters following last character */
 1185              		.loc 1 1431 3 view .LVU356
 1186 0048 0CF1010C 		add	ip, ip, #1
 1187 004c 1D0A     		lsrs	r5, r3, #8
 1188 004e 01F80C50 		strb	r5, [r1, ip]
1432:Middlewares/Third_Party/FatFs/src/ff.c **** 	} while (++s < 13);
 1189              		.loc 1 1432 3 view .LVU357
1432:Middlewares/Third_Party/FatFs/src/ff.c **** 	} while (++s < 13);
 1190              		.loc 1 1432 6 is_stmt 0 view .LVU358
 1191 0052 002B     		cmp	r3, #0
 1192 0054 E7D1     		bne	.L108
1432:Middlewares/Third_Party/FatFs/src/ff.c **** 	} while (++s < 13);
 1193              		.loc 1 1432 15 view .LVU359
 1194 0056 4FF6FF73 		movw	r3, #65535
 1195              	.LVL123:
1432:Middlewares/Third_Party/FatFs/src/ff.c **** 	} while (++s < 13);
 1196              		.loc 1 1432 15 view .LVU360
 1197 005a E4E7     		b	.L108
 1198              	.LVL124:
 1199              	.L114:
1434:Middlewares/Third_Party/FatFs/src/ff.c **** 	if (wc == 0xFFFF || !lfnbuf[i]) ord |= LLEF;	/* Bottom LFN part is the start of LFN sequence */
 1200              		.loc 1 1434 2 is_stmt 1 view .LVU361
ARM GAS  C:\Users\Admin\AppData\Local\Temp\cc3ZGI84.s 			page 49


 1201              		.loc 1 1434 5 is_stmt 0 view .LVU362
 1202 005c 4FF6FF75 		movw	r5, #65535
 1203 0060 AB42     		cmp	r3, r5
 1204 0062 02D0     		beq	.L110
 1205              		.loc 1 1434 29 discriminator 2 view .LVU363
 1206 0064 30F81430 		ldrh	r3, [r0, r4, lsl #1]
 1207              	.LVL125:
 1208              		.loc 1 1434 19 discriminator 2 view .LVU364
 1209 0068 0BB9     		cbnz	r3, .L111
 1210              	.L110:
 1211              		.loc 1 1434 34 is_stmt 1 discriminator 3 view .LVU365
 1212              		.loc 1 1434 38 is_stmt 0 discriminator 3 view .LVU366
 1213 006a 42F04002 		orr	r2, r2, #64
 1214              	.LVL126:
 1215              	.L111:
1435:Middlewares/Third_Party/FatFs/src/ff.c **** 	dir[LDIR_Ord] = ord;			/* Set the LFN order */
 1216              		.loc 1 1435 2 is_stmt 1 view .LVU367
 1217              		.loc 1 1435 16 is_stmt 0 view .LVU368
 1218 006e 0A70     		strb	r2, [r1]
1436:Middlewares/Third_Party/FatFs/src/ff.c **** }
 1219              		.loc 1 1436 1 view .LVU369
 1220 0070 30BD     		pop	{r4, r5, pc}
 1221              	.LVL127:
 1222              	.L116:
 1223              		.loc 1 1436 1 view .LVU370
 1224 0072 00BF     		.align	2
 1225              	.L115:
 1226 0074 00000000 		.word	.LANCHOR1
 1227              		.cfi_endproc
 1228              	.LFE90:
 1230              		.section	.text.gen_numname,"ax",%progbits
 1231              		.align	1
 1232              		.syntax unified
 1233              		.thumb
 1234              		.thumb_func
 1236              	gen_numname:
 1237              	.LVL128:
 1238              	.LFB91:
1437:Middlewares/Third_Party/FatFs/src/ff.c **** 
1438:Middlewares/Third_Party/FatFs/src/ff.c **** #endif
1439:Middlewares/Third_Party/FatFs/src/ff.c **** #endif
1440:Middlewares/Third_Party/FatFs/src/ff.c **** 
1441:Middlewares/Third_Party/FatFs/src/ff.c **** 
1442:Middlewares/Third_Party/FatFs/src/ff.c **** 
1443:Middlewares/Third_Party/FatFs/src/ff.c **** 
1444:Middlewares/Third_Party/FatFs/src/ff.c **** /*-----------------------------------------------------------------------*/
1445:Middlewares/Third_Party/FatFs/src/ff.c **** /* Create numbered name                                                  */
1446:Middlewares/Third_Party/FatFs/src/ff.c **** /*-----------------------------------------------------------------------*/
1447:Middlewares/Third_Party/FatFs/src/ff.c **** #if _USE_LFN
1448:Middlewares/Third_Party/FatFs/src/ff.c **** static
1449:Middlewares/Third_Party/FatFs/src/ff.c **** void gen_numname (
1450:Middlewares/Third_Party/FatFs/src/ff.c **** 	BYTE* dst,			/* Pointer to the buffer to store numbered SFN */
1451:Middlewares/Third_Party/FatFs/src/ff.c **** 	const BYTE* src,	/* Pointer to SFN */
1452:Middlewares/Third_Party/FatFs/src/ff.c **** 	const WCHAR* lfn,	/* Pointer to LFN */
1453:Middlewares/Third_Party/FatFs/src/ff.c **** 	UINT seq			/* Sequence number */
1454:Middlewares/Third_Party/FatFs/src/ff.c **** )
1455:Middlewares/Third_Party/FatFs/src/ff.c **** {
ARM GAS  C:\Users\Admin\AppData\Local\Temp\cc3ZGI84.s 			page 50


 1239              		.loc 1 1455 1 is_stmt 1 view -0
 1240              		.cfi_startproc
 1241              		@ args = 0, pretend = 0, frame = 8
 1242              		@ frame_needed = 0, uses_anonymous_args = 0
 1243              		.loc 1 1455 1 is_stmt 0 view .LVU372
 1244 0000 70B5     		push	{r4, r5, r6, lr}
 1245              	.LCFI12:
 1246              		.cfi_def_cfa_offset 16
 1247              		.cfi_offset 4, -16
 1248              		.cfi_offset 5, -12
 1249              		.cfi_offset 6, -8
 1250              		.cfi_offset 14, -4
 1251 0002 82B0     		sub	sp, sp, #8
 1252              	.LCFI13:
 1253              		.cfi_def_cfa_offset 24
 1254 0004 0546     		mov	r5, r0
 1255 0006 1646     		mov	r6, r2
 1256 0008 1C46     		mov	r4, r3
1456:Middlewares/Third_Party/FatFs/src/ff.c **** 	BYTE ns[8], c;
 1257              		.loc 1 1456 2 is_stmt 1 view .LVU373
1457:Middlewares/Third_Party/FatFs/src/ff.c **** 	UINT i, j;
 1258              		.loc 1 1457 2 view .LVU374
1458:Middlewares/Third_Party/FatFs/src/ff.c **** 	WCHAR wc;
 1259              		.loc 1 1458 2 view .LVU375
1459:Middlewares/Third_Party/FatFs/src/ff.c **** 	DWORD sr;
 1260              		.loc 1 1459 2 view .LVU376
1460:Middlewares/Third_Party/FatFs/src/ff.c **** 
1461:Middlewares/Third_Party/FatFs/src/ff.c **** 
1462:Middlewares/Third_Party/FatFs/src/ff.c **** 	mem_cpy(dst, src, 11);
 1261              		.loc 1 1462 2 view .LVU377
 1262 000a 0B22     		movs	r2, #11
 1263              	.LVL129:
 1264              		.loc 1 1462 2 is_stmt 0 view .LVU378
 1265 000c FFF7FEFF 		bl	mem_cpy
 1266              	.LVL130:
1463:Middlewares/Third_Party/FatFs/src/ff.c **** 
1464:Middlewares/Third_Party/FatFs/src/ff.c **** 	if (seq > 5) {	/* On many collisions, generate a hash number instead of sequential number */
 1267              		.loc 1 1464 2 is_stmt 1 view .LVU379
 1268              		.loc 1 1464 5 is_stmt 0 view .LVU380
 1269 0010 052C     		cmp	r4, #5
 1270 0012 11D8     		bhi	.L118
 1271              	.LVL131:
 1272              	.L119:
1465:Middlewares/Third_Party/FatFs/src/ff.c **** 		sr = seq;
1466:Middlewares/Third_Party/FatFs/src/ff.c **** 		while (*lfn) {	/* Create a CRC */
1467:Middlewares/Third_Party/FatFs/src/ff.c **** 			wc = *lfn++;
1468:Middlewares/Third_Party/FatFs/src/ff.c **** 			for (i = 0; i < 16; i++) {
 1273              		.loc 1 1468 11 view .LVU381
 1274 0014 0723     		movs	r3, #7
 1275 0016 1FE0     		b	.L125
 1276              	.LVL132:
 1277              	.L121:
 1278              		.loc 1 1468 24 is_stmt 1 discriminator 2 view .LVU382
 1279              		.loc 1 1468 25 is_stmt 0 discriminator 2 view .LVU383
 1280 0018 0131     		adds	r1, r1, #1
 1281              	.LVL133:
 1282              	.L120:
ARM GAS  C:\Users\Admin\AppData\Local\Temp\cc3ZGI84.s 			page 51


 1283              		.loc 1 1468 16 is_stmt 1 discriminator 1 view .LVU384
 1284              		.loc 1 1468 4 is_stmt 0 discriminator 1 view .LVU385
 1285 001a 0F29     		cmp	r1, #15
 1286 001c 0CD8     		bhi	.L118
1469:Middlewares/Third_Party/FatFs/src/ff.c **** 				sr = (sr << 1) + (wc & 1);
 1287              		.loc 1 1469 5 is_stmt 1 view .LVU386
 1288              		.loc 1 1469 26 is_stmt 0 view .LVU387
 1289 001e 03F0010C 		and	ip, r3, #1
 1290              		.loc 1 1469 8 view .LVU388
 1291 0022 0CEB4404 		add	r4, ip, r4, lsl #1
 1292              	.LVL134:
1470:Middlewares/Third_Party/FatFs/src/ff.c **** 				wc >>= 1;
 1293              		.loc 1 1470 5 is_stmt 1 view .LVU389
 1294              		.loc 1 1470 8 is_stmt 0 view .LVU390
 1295 0026 5B08     		lsrs	r3, r3, #1
 1296              	.LVL135:
1471:Middlewares/Third_Party/FatFs/src/ff.c **** 				if (sr & 0x10000) sr ^= 0x11021;
 1297              		.loc 1 1471 5 is_stmt 1 view .LVU391
 1298              		.loc 1 1471 8 is_stmt 0 view .LVU392
 1299 0028 14F4803F 		tst	r4, #65536
 1300 002c F4D0     		beq	.L121
 1301              		.loc 1 1471 23 is_stmt 1 discriminator 1 view .LVU393
 1302              		.loc 1 1471 26 is_stmt 0 discriminator 1 view .LVU394
 1303 002e 84F48834 		eor	r4, r4, #69632
 1304              	.LVL136:
 1305              		.loc 1 1471 26 discriminator 1 view .LVU395
 1306 0032 84F02104 		eor	r4, r4, #33
 1307              	.LVL137:
 1308              		.loc 1 1471 26 discriminator 1 view .LVU396
 1309 0036 EFE7     		b	.L121
 1310              	.LVL138:
 1311              	.L118:
1466:Middlewares/Third_Party/FatFs/src/ff.c **** 			wc = *lfn++;
 1312              		.loc 1 1466 9 is_stmt 1 view .LVU397
1466:Middlewares/Third_Party/FatFs/src/ff.c **** 			wc = *lfn++;
 1313              		.loc 1 1466 10 is_stmt 0 view .LVU398
 1314 0038 3388     		ldrh	r3, [r6]
1466:Middlewares/Third_Party/FatFs/src/ff.c **** 			wc = *lfn++;
 1315              		.loc 1 1466 9 view .LVU399
 1316 003a 002B     		cmp	r3, #0
 1317 003c EAD0     		beq	.L119
1467:Middlewares/Third_Party/FatFs/src/ff.c **** 			for (i = 0; i < 16; i++) {
 1318              		.loc 1 1467 4 is_stmt 1 view .LVU400
1467:Middlewares/Third_Party/FatFs/src/ff.c **** 			for (i = 0; i < 16; i++) {
 1319              		.loc 1 1467 13 is_stmt 0 view .LVU401
 1320 003e 0236     		adds	r6, r6, #2
 1321              	.LVL139:
1468:Middlewares/Third_Party/FatFs/src/ff.c **** 				sr = (sr << 1) + (wc & 1);
 1322              		.loc 1 1468 4 is_stmt 1 view .LVU402
1468:Middlewares/Third_Party/FatFs/src/ff.c **** 				sr = (sr << 1) + (wc & 1);
 1323              		.loc 1 1468 11 is_stmt 0 view .LVU403
 1324 0040 0021     		movs	r1, #0
1468:Middlewares/Third_Party/FatFs/src/ff.c **** 				sr = (sr << 1) + (wc & 1);
 1325              		.loc 1 1468 4 view .LVU404
 1326 0042 EAE7     		b	.L120
 1327              	.LVL140:
 1328              	.L124:
ARM GAS  C:\Users\Admin\AppData\Local\Temp\cc3ZGI84.s 			page 52


1472:Middlewares/Third_Party/FatFs/src/ff.c **** 			}
1473:Middlewares/Third_Party/FatFs/src/ff.c **** 		}
1474:Middlewares/Third_Party/FatFs/src/ff.c **** 		seq = (UINT)sr;
1475:Middlewares/Third_Party/FatFs/src/ff.c **** 	}
1476:Middlewares/Third_Party/FatFs/src/ff.c **** 
1477:Middlewares/Third_Party/FatFs/src/ff.c **** 	/* itoa (hexdecimal) */
1478:Middlewares/Third_Party/FatFs/src/ff.c **** 	i = 7;
1479:Middlewares/Third_Party/FatFs/src/ff.c **** 	do {
1480:Middlewares/Third_Party/FatFs/src/ff.c **** 		c = (seq % 16) + '0';
1481:Middlewares/Third_Party/FatFs/src/ff.c **** 		if (c > '9') c += 7;
1482:Middlewares/Third_Party/FatFs/src/ff.c **** 		ns[i--] = c;
 1329              		.loc 1 1482 3 is_stmt 1 view .LVU405
 1330              		.loc 1 1482 7 is_stmt 0 view .LVU406
 1331 0044 5A1E     		subs	r2, r3, #1
 1332              	.LVL141:
 1333              		.loc 1 1482 11 view .LVU407
 1334 0046 0833     		adds	r3, r3, #8
 1335 0048 6B44     		add	r3, sp, r3
 1336 004a 03F8081C 		strb	r1, [r3, #-8]
1483:Middlewares/Third_Party/FatFs/src/ff.c **** 		seq /= 16;
 1337              		.loc 1 1483 3 is_stmt 1 view .LVU408
 1338              		.loc 1 1483 7 is_stmt 0 view .LVU409
 1339 004e 2109     		lsrs	r1, r4, #4
 1340              	.LVL142:
1484:Middlewares/Third_Party/FatFs/src/ff.c **** 	} while (seq);
 1341              		.loc 1 1484 10 is_stmt 1 view .LVU410
 1342              		.loc 1 1484 2 is_stmt 0 view .LVU411
 1343 0050 0F2C     		cmp	r4, #15
 1344 0052 0AD9     		bls	.L135
1482:Middlewares/Third_Party/FatFs/src/ff.c **** 		seq /= 16;
 1345              		.loc 1 1482 7 view .LVU412
 1346 0054 1346     		mov	r3, r2
 1347              	.LVL143:
1483:Middlewares/Third_Party/FatFs/src/ff.c **** 		seq /= 16;
 1348              		.loc 1 1483 7 view .LVU413
 1349 0056 0C46     		mov	r4, r1
 1350              	.LVL144:
 1351              	.L125:
1479:Middlewares/Third_Party/FatFs/src/ff.c **** 		c = (seq % 16) + '0';
 1352              		.loc 1 1479 2 is_stmt 1 view .LVU414
1480:Middlewares/Third_Party/FatFs/src/ff.c **** 		if (c > '9') c += 7;
 1353              		.loc 1 1480 3 view .LVU415
1480:Middlewares/Third_Party/FatFs/src/ff.c **** 		if (c > '9') c += 7;
 1354              		.loc 1 1480 12 is_stmt 0 view .LVU416
 1355 0058 04F00F02 		and	r2, r4, #15
1480:Middlewares/Third_Party/FatFs/src/ff.c **** 		if (c > '9') c += 7;
 1356              		.loc 1 1480 5 view .LVU417
 1357 005c 02F13001 		add	r1, r2, #48
 1358              	.LVL145:
1481:Middlewares/Third_Party/FatFs/src/ff.c **** 		ns[i--] = c;
 1359              		.loc 1 1481 3 is_stmt 1 view .LVU418
1481:Middlewares/Third_Party/FatFs/src/ff.c **** 		ns[i--] = c;
 1360              		.loc 1 1481 6 is_stmt 0 view .LVU419
 1361 0060 3929     		cmp	r1, #57
 1362 0062 EFD9     		bls	.L124
1481:Middlewares/Third_Party/FatFs/src/ff.c **** 		ns[i--] = c;
 1363              		.loc 1 1481 16 is_stmt 1 discriminator 1 view .LVU420
ARM GAS  C:\Users\Admin\AppData\Local\Temp\cc3ZGI84.s 			page 53


1481:Middlewares/Third_Party/FatFs/src/ff.c **** 		ns[i--] = c;
 1364              		.loc 1 1481 18 is_stmt 0 discriminator 1 view .LVU421
 1365 0064 02F13701 		add	r1, r2, #55
 1366              	.LVL146:
1481:Middlewares/Third_Party/FatFs/src/ff.c **** 		ns[i--] = c;
 1367              		.loc 1 1481 18 discriminator 1 view .LVU422
 1368 0068 ECE7     		b	.L124
 1369              	.LVL147:
 1370              	.L135:
1485:Middlewares/Third_Party/FatFs/src/ff.c **** 	ns[i] = '~';
 1371              		.loc 1 1485 2 is_stmt 1 view .LVU423
 1372              		.loc 1 1485 8 is_stmt 0 view .LVU424
 1373 006a 7E21     		movs	r1, #126
 1374              	.LVL148:
 1375              		.loc 1 1485 8 view .LVU425
 1376 006c 02F10803 		add	r3, r2, #8
 1377              	.LVL149:
 1378              		.loc 1 1485 8 view .LVU426
 1379 0070 6B44     		add	r3, sp, r3
 1380 0072 03F8081C 		strb	r1, [r3, #-8]
 1381              	.LVL150:
1486:Middlewares/Third_Party/FatFs/src/ff.c **** 
1487:Middlewares/Third_Party/FatFs/src/ff.c **** 	/* Append the number */
1488:Middlewares/Third_Party/FatFs/src/ff.c **** 	for (j = 0; j < i && dst[j] != ' '; j++) {
 1382              		.loc 1 1488 2 is_stmt 1 view .LVU427
 1383              		.loc 1 1488 9 is_stmt 0 view .LVU428
 1384 0076 0023     		movs	r3, #0
 1385              		.loc 1 1488 2 view .LVU429
 1386 0078 00E0     		b	.L126
 1387              	.LVL151:
 1388              	.L128:
1489:Middlewares/Third_Party/FatFs/src/ff.c **** 		if (IsDBCS1(dst[j])) {
 1389              		.loc 1 1489 3 is_stmt 1 discriminator 2 view .LVU430
1488:Middlewares/Third_Party/FatFs/src/ff.c **** 		if (IsDBCS1(dst[j])) {
 1390              		.loc 1 1488 38 discriminator 2 view .LVU431
1488:Middlewares/Third_Party/FatFs/src/ff.c **** 		if (IsDBCS1(dst[j])) {
 1391              		.loc 1 1488 39 is_stmt 0 discriminator 2 view .LVU432
 1392 007a 0133     		adds	r3, r3, #1
 1393              	.LVL152:
 1394              	.L126:
1488:Middlewares/Third_Party/FatFs/src/ff.c **** 		if (IsDBCS1(dst[j])) {
 1395              		.loc 1 1488 14 is_stmt 1 discriminator 1 view .LVU433
1488:Middlewares/Third_Party/FatFs/src/ff.c **** 		if (IsDBCS1(dst[j])) {
 1396              		.loc 1 1488 2 is_stmt 0 discriminator 1 view .LVU434
 1397 007c 9342     		cmp	r3, r2
 1398 007e 09D2     		bcs	.L130
1488:Middlewares/Third_Party/FatFs/src/ff.c **** 		if (IsDBCS1(dst[j])) {
 1399              		.loc 1 1488 26 discriminator 3 view .LVU435
 1400 0080 E95C     		ldrb	r1, [r5, r3]	@ zero_extendqisi2
1488:Middlewares/Third_Party/FatFs/src/ff.c **** 		if (IsDBCS1(dst[j])) {
 1401              		.loc 1 1488 20 discriminator 3 view .LVU436
 1402 0082 2029     		cmp	r1, #32
 1403 0084 F9D1     		bne	.L128
 1404 0086 05E0     		b	.L130
 1405              	.L132:
1490:Middlewares/Third_Party/FatFs/src/ff.c **** 			if (j == i - 1) break;
1491:Middlewares/Third_Party/FatFs/src/ff.c **** 			j++;
ARM GAS  C:\Users\Admin\AppData\Local\Temp\cc3ZGI84.s 			page 54


1492:Middlewares/Third_Party/FatFs/src/ff.c **** 		}
1493:Middlewares/Third_Party/FatFs/src/ff.c **** 	}
1494:Middlewares/Third_Party/FatFs/src/ff.c **** 	do {
1495:Middlewares/Third_Party/FatFs/src/ff.c **** 		dst[j++] = (i < 8) ? ns[i++] : ' ';
 1406              		.loc 1 1495 12 view .LVU437
 1407 0088 2020     		movs	r0, #32
 1408              	.L129:
 1409              		.loc 1 1495 8 discriminator 4 view .LVU438
 1410 008a 591C     		adds	r1, r3, #1
 1411              	.LVL153:
 1412              		.loc 1 1495 12 discriminator 4 view .LVU439
 1413 008c E854     		strb	r0, [r5, r3]
1496:Middlewares/Third_Party/FatFs/src/ff.c **** 	} while (j < 8);
 1414              		.loc 1 1496 10 is_stmt 1 discriminator 4 view .LVU440
 1415              		.loc 1 1496 2 is_stmt 0 discriminator 4 view .LVU441
 1416 008e 0729     		cmp	r1, #7
 1417 0090 09D8     		bhi	.L136
1495:Middlewares/Third_Party/FatFs/src/ff.c **** 	} while (j < 8);
 1418              		.loc 1 1495 8 view .LVU442
 1419 0092 0B46     		mov	r3, r1
 1420              	.LVL154:
 1421              	.L130:
1494:Middlewares/Third_Party/FatFs/src/ff.c **** 		dst[j++] = (i < 8) ? ns[i++] : ' ';
 1422              		.loc 1 1494 2 is_stmt 1 view .LVU443
1495:Middlewares/Third_Party/FatFs/src/ff.c **** 	} while (j < 8);
 1423              		.loc 1 1495 3 view .LVU444
1495:Middlewares/Third_Party/FatFs/src/ff.c **** 	} while (j < 8);
 1424              		.loc 1 1495 12 is_stmt 0 view .LVU445
 1425 0094 072A     		cmp	r2, #7
 1426 0096 F7D8     		bhi	.L132
 1427              	.LVL155:
1495:Middlewares/Third_Party/FatFs/src/ff.c **** 	} while (j < 8);
 1428              		.loc 1 1495 12 discriminator 1 view .LVU446
 1429 0098 02F10801 		add	r1, r2, #8
 1430 009c 6944     		add	r1, sp, r1
 1431 009e 11F8080C 		ldrb	r0, [r1, #-8]	@ zero_extendqisi2
1495:Middlewares/Third_Party/FatFs/src/ff.c **** 	} while (j < 8);
 1432              		.loc 1 1495 28 discriminator 1 view .LVU447
 1433 00a2 0132     		adds	r2, r2, #1
 1434              	.LVL156:
1495:Middlewares/Third_Party/FatFs/src/ff.c **** 	} while (j < 8);
 1435              		.loc 1 1495 28 discriminator 1 view .LVU448
 1436 00a4 F1E7     		b	.L129
 1437              	.LVL157:
 1438              	.L136:
1497:Middlewares/Third_Party/FatFs/src/ff.c **** }
 1439              		.loc 1 1497 1 view .LVU449
 1440 00a6 02B0     		add	sp, sp, #8
 1441              	.LCFI14:
 1442              		.cfi_def_cfa_offset 16
 1443              		@ sp needed
 1444 00a8 70BD     		pop	{r4, r5, r6, pc}
 1445              		.loc 1 1497 1 view .LVU450
 1446              		.cfi_endproc
 1447              	.LFE91:
 1449              		.section	.text.sum_sfn,"ax",%progbits
 1450              		.align	1
ARM GAS  C:\Users\Admin\AppData\Local\Temp\cc3ZGI84.s 			page 55


 1451              		.syntax unified
 1452              		.thumb
 1453              		.thumb_func
 1455              	sum_sfn:
 1456              	.LVL158:
 1457              	.LFB92:
1498:Middlewares/Third_Party/FatFs/src/ff.c **** #endif
1499:Middlewares/Third_Party/FatFs/src/ff.c **** 
1500:Middlewares/Third_Party/FatFs/src/ff.c **** 
1501:Middlewares/Third_Party/FatFs/src/ff.c **** 
1502:Middlewares/Third_Party/FatFs/src/ff.c **** 
1503:Middlewares/Third_Party/FatFs/src/ff.c **** /*-----------------------------------------------------------------------*/
1504:Middlewares/Third_Party/FatFs/src/ff.c **** /* Calculate sum of an SFN                                               */
1505:Middlewares/Third_Party/FatFs/src/ff.c **** /*-----------------------------------------------------------------------*/
1506:Middlewares/Third_Party/FatFs/src/ff.c **** #if _USE_LFN
1507:Middlewares/Third_Party/FatFs/src/ff.c **** static
1508:Middlewares/Third_Party/FatFs/src/ff.c **** BYTE sum_sfn (
1509:Middlewares/Third_Party/FatFs/src/ff.c **** 	const BYTE* dir		/* Pointer to the SFN entry */
1510:Middlewares/Third_Party/FatFs/src/ff.c **** )
1511:Middlewares/Third_Party/FatFs/src/ff.c **** {
 1458              		.loc 1 1511 1 is_stmt 1 view -0
 1459              		.cfi_startproc
 1460              		@ args = 0, pretend = 0, frame = 0
 1461              		@ frame_needed = 0, uses_anonymous_args = 0
 1462              		@ link register save eliminated.
 1463              		.loc 1 1511 1 is_stmt 0 view .LVU452
 1464 0000 0246     		mov	r2, r0
1512:Middlewares/Third_Party/FatFs/src/ff.c **** 	BYTE sum = 0;
 1465              		.loc 1 1512 2 is_stmt 1 view .LVU453
 1466              	.LVL159:
1513:Middlewares/Third_Party/FatFs/src/ff.c **** 	UINT n = 11;
 1467              		.loc 1 1513 2 view .LVU454
 1468              		.loc 1 1513 7 is_stmt 0 view .LVU455
 1469 0002 0B21     		movs	r1, #11
1512:Middlewares/Third_Party/FatFs/src/ff.c **** 	BYTE sum = 0;
 1470              		.loc 1 1512 7 view .LVU456
 1471 0004 0020     		movs	r0, #0
 1472              	.LVL160:
 1473              	.L138:
1514:Middlewares/Third_Party/FatFs/src/ff.c **** 
1515:Middlewares/Third_Party/FatFs/src/ff.c **** 	do sum = (sum >> 1) + (sum << 7) + *dir++; while (--n);
 1474              		.loc 1 1515 2 is_stmt 1 discriminator 1 view .LVU457
 1475              		.loc 1 1515 5 discriminator 1 view .LVU458
 1476              		.loc 1 1515 22 is_stmt 0 discriminator 1 view .LVU459
 1477 0006 C301     		lsls	r3, r0, #7
 1478 0008 43EA5000 		orr	r0, r3, r0, lsr #1
 1479              	.LVL161:
 1480              		.loc 1 1515 22 discriminator 1 view .LVU460
 1481 000c C0B2     		uxtb	r0, r0
 1482              		.loc 1 1515 37 discriminator 1 view .LVU461
 1483 000e 1378     		ldrb	r3, [r2]	@ zero_extendqisi2
 1484 0010 0132     		adds	r2, r2, #1
 1485              	.LVL162:
 1486              		.loc 1 1515 9 discriminator 1 view .LVU462
 1487 0012 1844     		add	r0, r0, r3
 1488 0014 C0B2     		uxtb	r0, r0
 1489              	.LVL163:
ARM GAS  C:\Users\Admin\AppData\Local\Temp\cc3ZGI84.s 			page 56


 1490              		.loc 1 1515 51 is_stmt 1 discriminator 1 view .LVU463
 1491              		.loc 1 1515 2 is_stmt 0 discriminator 1 view .LVU464
 1492 0016 0139     		subs	r1, r1, #1
 1493              	.LVL164:
 1494              		.loc 1 1515 2 discriminator 1 view .LVU465
 1495 0018 F5D1     		bne	.L138
1516:Middlewares/Third_Party/FatFs/src/ff.c **** 	return sum;
 1496              		.loc 1 1516 2 is_stmt 1 view .LVU466
1517:Middlewares/Third_Party/FatFs/src/ff.c **** }
 1497              		.loc 1 1517 1 is_stmt 0 view .LVU467
 1498 001a 7047     		bx	lr
 1499              		.cfi_endproc
 1500              	.LFE92:
 1502              		.section	.text.get_ldnumber,"ax",%progbits
 1503              		.align	1
 1504              		.syntax unified
 1505              		.thumb
 1506              		.thumb_func
 1508              	get_ldnumber:
 1509              	.LVL165:
 1510              	.LFB100:
1518:Middlewares/Third_Party/FatFs/src/ff.c **** #endif
1519:Middlewares/Third_Party/FatFs/src/ff.c **** 
1520:Middlewares/Third_Party/FatFs/src/ff.c **** 
1521:Middlewares/Third_Party/FatFs/src/ff.c **** 
1522:Middlewares/Third_Party/FatFs/src/ff.c **** 
1523:Middlewares/Third_Party/FatFs/src/ff.c **** /*-----------------------------------------------------------------------*/
1524:Middlewares/Third_Party/FatFs/src/ff.c **** /* Directory handling - Find an object in the directory                  */
1525:Middlewares/Third_Party/FatFs/src/ff.c **** /*-----------------------------------------------------------------------*/
1526:Middlewares/Third_Party/FatFs/src/ff.c **** 
1527:Middlewares/Third_Party/FatFs/src/ff.c **** static
1528:Middlewares/Third_Party/FatFs/src/ff.c **** FRESULT dir_find (
1529:Middlewares/Third_Party/FatFs/src/ff.c **** 	DIR* dp			/* Pointer to the directory object linked to the file name */
1530:Middlewares/Third_Party/FatFs/src/ff.c **** )
1531:Middlewares/Third_Party/FatFs/src/ff.c **** {
1532:Middlewares/Third_Party/FatFs/src/ff.c **** 	FRESULT res;
1533:Middlewares/Third_Party/FatFs/src/ff.c **** 	BYTE c, *dir;
1534:Middlewares/Third_Party/FatFs/src/ff.c **** #if _USE_LFN
1535:Middlewares/Third_Party/FatFs/src/ff.c **** 	BYTE a, ord, sum;
1536:Middlewares/Third_Party/FatFs/src/ff.c **** #endif
1537:Middlewares/Third_Party/FatFs/src/ff.c **** 
1538:Middlewares/Third_Party/FatFs/src/ff.c **** 	res = dir_sdi(dp, 0);			/* Rewind directory object */
1539:Middlewares/Third_Party/FatFs/src/ff.c **** 	if (res != FR_OK) return res;
1540:Middlewares/Third_Party/FatFs/src/ff.c **** 
1541:Middlewares/Third_Party/FatFs/src/ff.c **** #if _USE_LFN
1542:Middlewares/Third_Party/FatFs/src/ff.c **** 	ord = sum = 0xFF; dp->lfn_idx = 0xFFFF;	/* Reset LFN sequence */
1543:Middlewares/Third_Party/FatFs/src/ff.c **** #endif
1544:Middlewares/Third_Party/FatFs/src/ff.c **** 	do {
1545:Middlewares/Third_Party/FatFs/src/ff.c **** 		res = move_window(dp->fs, dp->sect);
1546:Middlewares/Third_Party/FatFs/src/ff.c **** 		if (res != FR_OK) break;
1547:Middlewares/Third_Party/FatFs/src/ff.c **** 		dir = dp->dir;					/* Ptr to the directory entry of current index */
1548:Middlewares/Third_Party/FatFs/src/ff.c **** 		c = dir[DIR_Name];
1549:Middlewares/Third_Party/FatFs/src/ff.c **** 		if (c == 0) { res = FR_NO_FILE; break; }	/* Reached to end of table */
1550:Middlewares/Third_Party/FatFs/src/ff.c **** #if _USE_LFN	/* LFN configuration */
1551:Middlewares/Third_Party/FatFs/src/ff.c **** 		a = dir[DIR_Attr] & AM_MASK;
1552:Middlewares/Third_Party/FatFs/src/ff.c **** 		if (c == DDEM || ((a & AM_VOL) && a != AM_LFN)) {	/* An entry without valid data */
1553:Middlewares/Third_Party/FatFs/src/ff.c **** 			ord = 0xFF; dp->lfn_idx = 0xFFFF;	/* Reset LFN sequence */
ARM GAS  C:\Users\Admin\AppData\Local\Temp\cc3ZGI84.s 			page 57


1554:Middlewares/Third_Party/FatFs/src/ff.c **** 		} else {
1555:Middlewares/Third_Party/FatFs/src/ff.c **** 			if (a == AM_LFN) {			/* An LFN entry is found */
1556:Middlewares/Third_Party/FatFs/src/ff.c **** 				if (dp->lfn) {
1557:Middlewares/Third_Party/FatFs/src/ff.c **** 					if (c & LLEF) {		/* Is it start of LFN sequence? */
1558:Middlewares/Third_Party/FatFs/src/ff.c **** 						sum = dir[LDIR_Chksum];
1559:Middlewares/Third_Party/FatFs/src/ff.c **** 						c &= ~LLEF; ord = c;	/* LFN start order */
1560:Middlewares/Third_Party/FatFs/src/ff.c **** 						dp->lfn_idx = dp->index;	/* Start index of LFN */
1561:Middlewares/Third_Party/FatFs/src/ff.c **** 					}
1562:Middlewares/Third_Party/FatFs/src/ff.c **** 					/* Check validity of the LFN entry and compare it with given name */
1563:Middlewares/Third_Party/FatFs/src/ff.c **** 					ord = (c == ord && sum == dir[LDIR_Chksum] && cmp_lfn(dp->lfn, dir)) ? ord - 1 : 0xFF;
1564:Middlewares/Third_Party/FatFs/src/ff.c **** 				}
1565:Middlewares/Third_Party/FatFs/src/ff.c **** 			} else {					/* An SFN entry is found */
1566:Middlewares/Third_Party/FatFs/src/ff.c **** 				if (!ord && sum == sum_sfn(dir)) break;	/* LFN matched? */
1567:Middlewares/Third_Party/FatFs/src/ff.c **** 				if (!(dp->fn[NSFLAG] & NS_LOSS) && !mem_cmp(dir, dp->fn, 11)) break;	/* SFN matched? */
1568:Middlewares/Third_Party/FatFs/src/ff.c **** 				ord = 0xFF; dp->lfn_idx = 0xFFFF;	/* Reset LFN sequence */
1569:Middlewares/Third_Party/FatFs/src/ff.c **** 			}
1570:Middlewares/Third_Party/FatFs/src/ff.c **** 		}
1571:Middlewares/Third_Party/FatFs/src/ff.c **** #else		/* Non LFN configuration */
1572:Middlewares/Third_Party/FatFs/src/ff.c **** 		if (!(dir[DIR_Attr] & AM_VOL) && !mem_cmp(dir, dp->fn, 11)) /* Is it a valid entry? */
1573:Middlewares/Third_Party/FatFs/src/ff.c **** 			break;
1574:Middlewares/Third_Party/FatFs/src/ff.c **** #endif
1575:Middlewares/Third_Party/FatFs/src/ff.c **** 		res = dir_next(dp, 0);		/* Next entry */
1576:Middlewares/Third_Party/FatFs/src/ff.c **** 	} while (res == FR_OK);
1577:Middlewares/Third_Party/FatFs/src/ff.c **** 
1578:Middlewares/Third_Party/FatFs/src/ff.c **** 	return res;
1579:Middlewares/Third_Party/FatFs/src/ff.c **** }
1580:Middlewares/Third_Party/FatFs/src/ff.c **** 
1581:Middlewares/Third_Party/FatFs/src/ff.c **** 
1582:Middlewares/Third_Party/FatFs/src/ff.c **** 
1583:Middlewares/Third_Party/FatFs/src/ff.c **** 
1584:Middlewares/Third_Party/FatFs/src/ff.c **** /*-----------------------------------------------------------------------*/
1585:Middlewares/Third_Party/FatFs/src/ff.c **** /* Read an object from the directory                                     */
1586:Middlewares/Third_Party/FatFs/src/ff.c **** /*-----------------------------------------------------------------------*/
1587:Middlewares/Third_Party/FatFs/src/ff.c **** #if _FS_MINIMIZE <= 1 || _USE_LABEL || _FS_RPATH >= 2
1588:Middlewares/Third_Party/FatFs/src/ff.c **** static
1589:Middlewares/Third_Party/FatFs/src/ff.c **** FRESULT dir_read (
1590:Middlewares/Third_Party/FatFs/src/ff.c **** 	DIR* dp,		/* Pointer to the directory object */
1591:Middlewares/Third_Party/FatFs/src/ff.c **** 	int vol			/* Filtered by 0:file/directory or 1:volume label */
1592:Middlewares/Third_Party/FatFs/src/ff.c **** )
1593:Middlewares/Third_Party/FatFs/src/ff.c **** {
1594:Middlewares/Third_Party/FatFs/src/ff.c **** 	FRESULT res;
1595:Middlewares/Third_Party/FatFs/src/ff.c **** 	BYTE a, c, *dir;
1596:Middlewares/Third_Party/FatFs/src/ff.c **** #if _USE_LFN
1597:Middlewares/Third_Party/FatFs/src/ff.c **** 	BYTE ord = 0xFF, sum = 0xFF;
1598:Middlewares/Third_Party/FatFs/src/ff.c **** #endif
1599:Middlewares/Third_Party/FatFs/src/ff.c **** 
1600:Middlewares/Third_Party/FatFs/src/ff.c **** 	res = FR_NO_FILE;
1601:Middlewares/Third_Party/FatFs/src/ff.c **** 	while (dp->sect) {
1602:Middlewares/Third_Party/FatFs/src/ff.c **** 		res = move_window(dp->fs, dp->sect);
1603:Middlewares/Third_Party/FatFs/src/ff.c **** 		if (res != FR_OK) break;
1604:Middlewares/Third_Party/FatFs/src/ff.c **** 		dir = dp->dir;					/* Ptr to the directory entry of current index */
1605:Middlewares/Third_Party/FatFs/src/ff.c **** 		c = dir[DIR_Name];
1606:Middlewares/Third_Party/FatFs/src/ff.c **** 		if (c == 0) { res = FR_NO_FILE; break; }	/* Reached to end of table */
1607:Middlewares/Third_Party/FatFs/src/ff.c **** 		a = dir[DIR_Attr] & AM_MASK;
1608:Middlewares/Third_Party/FatFs/src/ff.c **** #if _USE_LFN	/* LFN configuration */
1609:Middlewares/Third_Party/FatFs/src/ff.c **** 		if (c == DDEM || (!_FS_RPATH && c == '.') || (int)((a & ~AM_ARC) == AM_VOL) != vol) {	/* An entry
1610:Middlewares/Third_Party/FatFs/src/ff.c **** 			ord = 0xFF;
ARM GAS  C:\Users\Admin\AppData\Local\Temp\cc3ZGI84.s 			page 58


1611:Middlewares/Third_Party/FatFs/src/ff.c **** 		} else {
1612:Middlewares/Third_Party/FatFs/src/ff.c **** 			if (a == AM_LFN) {			/* An LFN entry is found */
1613:Middlewares/Third_Party/FatFs/src/ff.c **** 				if (c & LLEF) {			/* Is it start of LFN sequence? */
1614:Middlewares/Third_Party/FatFs/src/ff.c **** 					sum = dir[LDIR_Chksum];
1615:Middlewares/Third_Party/FatFs/src/ff.c **** 					c &= ~LLEF; ord = c;
1616:Middlewares/Third_Party/FatFs/src/ff.c **** 					dp->lfn_idx = dp->index;
1617:Middlewares/Third_Party/FatFs/src/ff.c **** 				}
1618:Middlewares/Third_Party/FatFs/src/ff.c **** 				/* Check LFN validity and capture it */
1619:Middlewares/Third_Party/FatFs/src/ff.c **** 				ord = (c == ord && sum == dir[LDIR_Chksum] && pick_lfn(dp->lfn, dir)) ? ord - 1 : 0xFF;
1620:Middlewares/Third_Party/FatFs/src/ff.c **** 			} else {					/* An SFN entry is found */
1621:Middlewares/Third_Party/FatFs/src/ff.c **** 				if (ord || sum != sum_sfn(dir))	/* Is there a valid LFN? */
1622:Middlewares/Third_Party/FatFs/src/ff.c **** 					dp->lfn_idx = 0xFFFF;		/* It has no LFN. */
1623:Middlewares/Third_Party/FatFs/src/ff.c **** 				break;
1624:Middlewares/Third_Party/FatFs/src/ff.c **** 			}
1625:Middlewares/Third_Party/FatFs/src/ff.c **** 		}
1626:Middlewares/Third_Party/FatFs/src/ff.c **** #else		/* Non LFN configuration */
1627:Middlewares/Third_Party/FatFs/src/ff.c **** 		if (c != DDEM && (_FS_RPATH || c != '.') && a != AM_LFN && (int)((a & ~AM_ARC) == AM_VOL) == vol)
1628:Middlewares/Third_Party/FatFs/src/ff.c **** 			break;
1629:Middlewares/Third_Party/FatFs/src/ff.c **** #endif
1630:Middlewares/Third_Party/FatFs/src/ff.c **** 		res = dir_next(dp, 0);				/* Next entry */
1631:Middlewares/Third_Party/FatFs/src/ff.c **** 		if (res != FR_OK) break;
1632:Middlewares/Third_Party/FatFs/src/ff.c **** 	}
1633:Middlewares/Third_Party/FatFs/src/ff.c **** 
1634:Middlewares/Third_Party/FatFs/src/ff.c **** 	if (res != FR_OK) dp->sect = 0;
1635:Middlewares/Third_Party/FatFs/src/ff.c **** 
1636:Middlewares/Third_Party/FatFs/src/ff.c **** 	return res;
1637:Middlewares/Third_Party/FatFs/src/ff.c **** }
1638:Middlewares/Third_Party/FatFs/src/ff.c **** #endif	/* _FS_MINIMIZE <= 1 || _USE_LABEL || _FS_RPATH >= 2 */
1639:Middlewares/Third_Party/FatFs/src/ff.c **** 
1640:Middlewares/Third_Party/FatFs/src/ff.c **** 
1641:Middlewares/Third_Party/FatFs/src/ff.c **** 
1642:Middlewares/Third_Party/FatFs/src/ff.c **** 
1643:Middlewares/Third_Party/FatFs/src/ff.c **** /*-----------------------------------------------------------------------*/
1644:Middlewares/Third_Party/FatFs/src/ff.c **** /* Register an object to the directory                                   */
1645:Middlewares/Third_Party/FatFs/src/ff.c **** /*-----------------------------------------------------------------------*/
1646:Middlewares/Third_Party/FatFs/src/ff.c **** #if !_FS_READONLY
1647:Middlewares/Third_Party/FatFs/src/ff.c **** static
1648:Middlewares/Third_Party/FatFs/src/ff.c **** FRESULT dir_register (	/* FR_OK:Successful, FR_DENIED:No free entry or too many SFN collision, FR_D
1649:Middlewares/Third_Party/FatFs/src/ff.c **** 	DIR* dp				/* Target directory with object name to be created */
1650:Middlewares/Third_Party/FatFs/src/ff.c **** )
1651:Middlewares/Third_Party/FatFs/src/ff.c **** {
1652:Middlewares/Third_Party/FatFs/src/ff.c **** 	FRESULT res;
1653:Middlewares/Third_Party/FatFs/src/ff.c **** #if _USE_LFN	/* LFN configuration */
1654:Middlewares/Third_Party/FatFs/src/ff.c **** 	UINT n, nent;
1655:Middlewares/Third_Party/FatFs/src/ff.c **** 	BYTE sn[12], *fn, sum;
1656:Middlewares/Third_Party/FatFs/src/ff.c **** 	WCHAR *lfn;
1657:Middlewares/Third_Party/FatFs/src/ff.c **** 
1658:Middlewares/Third_Party/FatFs/src/ff.c **** 
1659:Middlewares/Third_Party/FatFs/src/ff.c **** 	fn = dp->fn; lfn = dp->lfn;
1660:Middlewares/Third_Party/FatFs/src/ff.c **** 	mem_cpy(sn, fn, 12);
1661:Middlewares/Third_Party/FatFs/src/ff.c **** 
1662:Middlewares/Third_Party/FatFs/src/ff.c **** 	if (_FS_RPATH && (sn[NSFLAG] & NS_DOT))		/* Cannot create dot entry */
1663:Middlewares/Third_Party/FatFs/src/ff.c **** 		return FR_INVALID_NAME;
1664:Middlewares/Third_Party/FatFs/src/ff.c **** 
1665:Middlewares/Third_Party/FatFs/src/ff.c **** 	if (sn[NSFLAG] & NS_LOSS) {			/* When LFN is out of 8.3 format, generate a numbered name */
1666:Middlewares/Third_Party/FatFs/src/ff.c **** 		fn[NSFLAG] = 0; dp->lfn = 0;			/* Find only SFN */
1667:Middlewares/Third_Party/FatFs/src/ff.c **** 		for (n = 1; n < 100; n++) {
ARM GAS  C:\Users\Admin\AppData\Local\Temp\cc3ZGI84.s 			page 59


1668:Middlewares/Third_Party/FatFs/src/ff.c **** 			gen_numname(fn, sn, lfn, n);	/* Generate a numbered name */
1669:Middlewares/Third_Party/FatFs/src/ff.c **** 			res = dir_find(dp);				/* Check if the name collides with existing SFN */
1670:Middlewares/Third_Party/FatFs/src/ff.c **** 			if (res != FR_OK) break;
1671:Middlewares/Third_Party/FatFs/src/ff.c **** 		}
1672:Middlewares/Third_Party/FatFs/src/ff.c **** 		if (n == 100) return FR_DENIED;		/* Abort if too many collisions */
1673:Middlewares/Third_Party/FatFs/src/ff.c **** 		if (res != FR_NO_FILE) return res;	/* Abort if the result is other than 'not collided' */
1674:Middlewares/Third_Party/FatFs/src/ff.c **** 		fn[NSFLAG] = sn[NSFLAG]; dp->lfn = lfn;
1675:Middlewares/Third_Party/FatFs/src/ff.c **** 	}
1676:Middlewares/Third_Party/FatFs/src/ff.c **** 
1677:Middlewares/Third_Party/FatFs/src/ff.c **** 	if (sn[NSFLAG] & NS_LFN) {			/* When LFN is to be created, allocate entries for an SFN + LFNs. */
1678:Middlewares/Third_Party/FatFs/src/ff.c **** 		for (n = 0; lfn[n]; n++) ;
1679:Middlewares/Third_Party/FatFs/src/ff.c **** 		nent = (n + 25) / 13;
1680:Middlewares/Third_Party/FatFs/src/ff.c **** 	} else {						/* Otherwise allocate an entry for an SFN  */
1681:Middlewares/Third_Party/FatFs/src/ff.c **** 		nent = 1;
1682:Middlewares/Third_Party/FatFs/src/ff.c **** 	}
1683:Middlewares/Third_Party/FatFs/src/ff.c **** 	res = dir_alloc(dp, nent);		/* Allocate entries */
1684:Middlewares/Third_Party/FatFs/src/ff.c **** 
1685:Middlewares/Third_Party/FatFs/src/ff.c **** 	if (res == FR_OK && --nent) {	/* Set LFN entry if needed */
1686:Middlewares/Third_Party/FatFs/src/ff.c **** 		res = dir_sdi(dp, dp->index - nent);
1687:Middlewares/Third_Party/FatFs/src/ff.c **** 		if (res == FR_OK) {
1688:Middlewares/Third_Party/FatFs/src/ff.c **** 			sum = sum_sfn(dp->fn);	/* Sum value of the SFN tied to the LFN */
1689:Middlewares/Third_Party/FatFs/src/ff.c **** 			do {					/* Store LFN entries in bottom first */
1690:Middlewares/Third_Party/FatFs/src/ff.c **** 				res = move_window(dp->fs, dp->sect);
1691:Middlewares/Third_Party/FatFs/src/ff.c **** 				if (res != FR_OK) break;
1692:Middlewares/Third_Party/FatFs/src/ff.c **** 				fit_lfn(dp->lfn, dp->dir, (BYTE)nent, sum);
1693:Middlewares/Third_Party/FatFs/src/ff.c **** 				dp->fs->wflag = 1;
1694:Middlewares/Third_Party/FatFs/src/ff.c **** 				res = dir_next(dp, 0);	/* Next entry */
1695:Middlewares/Third_Party/FatFs/src/ff.c **** 			} while (res == FR_OK && --nent);
1696:Middlewares/Third_Party/FatFs/src/ff.c **** 		}
1697:Middlewares/Third_Party/FatFs/src/ff.c **** 	}
1698:Middlewares/Third_Party/FatFs/src/ff.c **** #else	/* Non LFN configuration */
1699:Middlewares/Third_Party/FatFs/src/ff.c **** 	res = dir_alloc(dp, 1);		/* Allocate an entry for SFN */
1700:Middlewares/Third_Party/FatFs/src/ff.c **** #endif
1701:Middlewares/Third_Party/FatFs/src/ff.c **** 
1702:Middlewares/Third_Party/FatFs/src/ff.c **** 	if (res == FR_OK) {				/* Set SFN entry */
1703:Middlewares/Third_Party/FatFs/src/ff.c **** 		res = move_window(dp->fs, dp->sect);
1704:Middlewares/Third_Party/FatFs/src/ff.c **** 		if (res == FR_OK) {
1705:Middlewares/Third_Party/FatFs/src/ff.c **** 			mem_set(dp->dir, 0, SZ_DIRE);	/* Clean the entry */
1706:Middlewares/Third_Party/FatFs/src/ff.c **** 			mem_cpy(dp->dir, dp->fn, 11);	/* Put SFN */
1707:Middlewares/Third_Party/FatFs/src/ff.c **** #if _USE_LFN
1708:Middlewares/Third_Party/FatFs/src/ff.c **** 			dp->dir[DIR_NTres] = dp->fn[NSFLAG] & (NS_BODY | NS_EXT);	/* Put NT flag */
1709:Middlewares/Third_Party/FatFs/src/ff.c **** #endif
1710:Middlewares/Third_Party/FatFs/src/ff.c **** 			dp->fs->wflag = 1;
1711:Middlewares/Third_Party/FatFs/src/ff.c **** 		}
1712:Middlewares/Third_Party/FatFs/src/ff.c **** 	}
1713:Middlewares/Third_Party/FatFs/src/ff.c **** 
1714:Middlewares/Third_Party/FatFs/src/ff.c **** 	return res;
1715:Middlewares/Third_Party/FatFs/src/ff.c **** }
1716:Middlewares/Third_Party/FatFs/src/ff.c **** #endif /* !_FS_READONLY */
1717:Middlewares/Third_Party/FatFs/src/ff.c **** 
1718:Middlewares/Third_Party/FatFs/src/ff.c **** 
1719:Middlewares/Third_Party/FatFs/src/ff.c **** 
1720:Middlewares/Third_Party/FatFs/src/ff.c **** 
1721:Middlewares/Third_Party/FatFs/src/ff.c **** /*-----------------------------------------------------------------------*/
1722:Middlewares/Third_Party/FatFs/src/ff.c **** /* Remove an object from the directory                                   */
1723:Middlewares/Third_Party/FatFs/src/ff.c **** /*-----------------------------------------------------------------------*/
1724:Middlewares/Third_Party/FatFs/src/ff.c **** #if !_FS_READONLY && !_FS_MINIMIZE
ARM GAS  C:\Users\Admin\AppData\Local\Temp\cc3ZGI84.s 			page 60


1725:Middlewares/Third_Party/FatFs/src/ff.c **** static
1726:Middlewares/Third_Party/FatFs/src/ff.c **** FRESULT dir_remove (	/* FR_OK: Successful, FR_DISK_ERR: A disk error */
1727:Middlewares/Third_Party/FatFs/src/ff.c **** 	DIR* dp				/* Directory object pointing the entry to be removed */
1728:Middlewares/Third_Party/FatFs/src/ff.c **** )
1729:Middlewares/Third_Party/FatFs/src/ff.c **** {
1730:Middlewares/Third_Party/FatFs/src/ff.c **** 	FRESULT res;
1731:Middlewares/Third_Party/FatFs/src/ff.c **** #if _USE_LFN	/* LFN configuration */
1732:Middlewares/Third_Party/FatFs/src/ff.c **** 	UINT i;
1733:Middlewares/Third_Party/FatFs/src/ff.c **** 
1734:Middlewares/Third_Party/FatFs/src/ff.c **** 	i = dp->index;	/* SFN index */
1735:Middlewares/Third_Party/FatFs/src/ff.c **** 	res = dir_sdi(dp, (dp->lfn_idx == 0xFFFF) ? i : dp->lfn_idx);	/* Goto the SFN or top of the LFN en
1736:Middlewares/Third_Party/FatFs/src/ff.c **** 	if (res == FR_OK) {
1737:Middlewares/Third_Party/FatFs/src/ff.c **** 		do {
1738:Middlewares/Third_Party/FatFs/src/ff.c **** 			res = move_window(dp->fs, dp->sect);
1739:Middlewares/Third_Party/FatFs/src/ff.c **** 			if (res != FR_OK) break;
1740:Middlewares/Third_Party/FatFs/src/ff.c **** 			mem_set(dp->dir, 0, SZ_DIRE);	/* Clear and mark the entry "deleted" */
1741:Middlewares/Third_Party/FatFs/src/ff.c **** 			*dp->dir = DDEM;
1742:Middlewares/Third_Party/FatFs/src/ff.c **** 			dp->fs->wflag = 1;
1743:Middlewares/Third_Party/FatFs/src/ff.c **** 			if (dp->index >= i) break;	/* When reached SFN, all entries of the object has been deleted. */
1744:Middlewares/Third_Party/FatFs/src/ff.c **** 			res = dir_next(dp, 0);		/* Next entry */
1745:Middlewares/Third_Party/FatFs/src/ff.c **** 		} while (res == FR_OK);
1746:Middlewares/Third_Party/FatFs/src/ff.c **** 		if (res == FR_NO_FILE) res = FR_INT_ERR;
1747:Middlewares/Third_Party/FatFs/src/ff.c **** 	}
1748:Middlewares/Third_Party/FatFs/src/ff.c **** 
1749:Middlewares/Third_Party/FatFs/src/ff.c **** #else			/* Non LFN configuration */
1750:Middlewares/Third_Party/FatFs/src/ff.c **** 	res = dir_sdi(dp, dp->index);
1751:Middlewares/Third_Party/FatFs/src/ff.c **** 	if (res == FR_OK) {
1752:Middlewares/Third_Party/FatFs/src/ff.c **** 		res = move_window(dp->fs, dp->sect);
1753:Middlewares/Third_Party/FatFs/src/ff.c **** 		if (res == FR_OK) {
1754:Middlewares/Third_Party/FatFs/src/ff.c **** 			mem_set(dp->dir, 0, SZ_DIRE);	/* Clear and mark the entry "deleted" */
1755:Middlewares/Third_Party/FatFs/src/ff.c **** 			*dp->dir = DDEM;
1756:Middlewares/Third_Party/FatFs/src/ff.c **** 			dp->fs->wflag = 1;
1757:Middlewares/Third_Party/FatFs/src/ff.c **** 		}
1758:Middlewares/Third_Party/FatFs/src/ff.c **** 	}
1759:Middlewares/Third_Party/FatFs/src/ff.c **** #endif
1760:Middlewares/Third_Party/FatFs/src/ff.c **** 
1761:Middlewares/Third_Party/FatFs/src/ff.c **** 	return res;
1762:Middlewares/Third_Party/FatFs/src/ff.c **** }
1763:Middlewares/Third_Party/FatFs/src/ff.c **** #endif /* !_FS_READONLY */
1764:Middlewares/Third_Party/FatFs/src/ff.c **** 
1765:Middlewares/Third_Party/FatFs/src/ff.c **** 
1766:Middlewares/Third_Party/FatFs/src/ff.c **** 
1767:Middlewares/Third_Party/FatFs/src/ff.c **** 
1768:Middlewares/Third_Party/FatFs/src/ff.c **** /*-----------------------------------------------------------------------*/
1769:Middlewares/Third_Party/FatFs/src/ff.c **** /* Get file information from directory entry                             */
1770:Middlewares/Third_Party/FatFs/src/ff.c **** /*-----------------------------------------------------------------------*/
1771:Middlewares/Third_Party/FatFs/src/ff.c **** #if _FS_MINIMIZE <= 1 || _FS_RPATH >= 2
1772:Middlewares/Third_Party/FatFs/src/ff.c **** static
1773:Middlewares/Third_Party/FatFs/src/ff.c **** void get_fileinfo (		/* No return code */
1774:Middlewares/Third_Party/FatFs/src/ff.c **** 	DIR* dp,			/* Pointer to the directory object */
1775:Middlewares/Third_Party/FatFs/src/ff.c **** 	FILINFO* fno	 	/* Pointer to the file information to be filled */
1776:Middlewares/Third_Party/FatFs/src/ff.c **** )
1777:Middlewares/Third_Party/FatFs/src/ff.c **** {
1778:Middlewares/Third_Party/FatFs/src/ff.c **** 	UINT i;
1779:Middlewares/Third_Party/FatFs/src/ff.c **** 	TCHAR *p, c;
1780:Middlewares/Third_Party/FatFs/src/ff.c **** 	BYTE *dir;
1781:Middlewares/Third_Party/FatFs/src/ff.c **** #if _USE_LFN
ARM GAS  C:\Users\Admin\AppData\Local\Temp\cc3ZGI84.s 			page 61


1782:Middlewares/Third_Party/FatFs/src/ff.c **** 	WCHAR w, *lfn;
1783:Middlewares/Third_Party/FatFs/src/ff.c **** #endif
1784:Middlewares/Third_Party/FatFs/src/ff.c **** 
1785:Middlewares/Third_Party/FatFs/src/ff.c **** 	p = fno->fname;
1786:Middlewares/Third_Party/FatFs/src/ff.c **** 	if (dp->sect) {		/* Get SFN */
1787:Middlewares/Third_Party/FatFs/src/ff.c **** 		dir = dp->dir;
1788:Middlewares/Third_Party/FatFs/src/ff.c **** 		i = 0;
1789:Middlewares/Third_Party/FatFs/src/ff.c **** 		while (i < 11) {		/* Copy name body and extension */
1790:Middlewares/Third_Party/FatFs/src/ff.c **** 			c = (TCHAR)dir[i++];
1791:Middlewares/Third_Party/FatFs/src/ff.c **** 			if (c == ' ') continue;				/* Skip padding spaces */
1792:Middlewares/Third_Party/FatFs/src/ff.c **** 			if (c == RDDEM) c = (TCHAR)DDEM;	/* Restore replaced DDEM character */
1793:Middlewares/Third_Party/FatFs/src/ff.c **** 			if (i == 9) *p++ = '.';				/* Insert a . if extension is exist */
1794:Middlewares/Third_Party/FatFs/src/ff.c **** #if _USE_LFN
1795:Middlewares/Third_Party/FatFs/src/ff.c **** 			if (IsUpper(c) && (dir[DIR_NTres] & (i >= 9 ? NS_EXT : NS_BODY)))
1796:Middlewares/Third_Party/FatFs/src/ff.c **** 				c += 0x20;			/* To lower */
1797:Middlewares/Third_Party/FatFs/src/ff.c **** #if _LFN_UNICODE
1798:Middlewares/Third_Party/FatFs/src/ff.c **** 			if (IsDBCS1(c) && i != 8 && i != 11 && IsDBCS2(dir[i]))
1799:Middlewares/Third_Party/FatFs/src/ff.c **** 				c = c << 8 | dir[i++];
1800:Middlewares/Third_Party/FatFs/src/ff.c **** 			c = ff_convert(c, 1);	/* OEM -> Unicode */
1801:Middlewares/Third_Party/FatFs/src/ff.c **** 			if (!c) c = '?';
1802:Middlewares/Third_Party/FatFs/src/ff.c **** #endif
1803:Middlewares/Third_Party/FatFs/src/ff.c **** #endif
1804:Middlewares/Third_Party/FatFs/src/ff.c **** 			*p++ = c;
1805:Middlewares/Third_Party/FatFs/src/ff.c **** 		}
1806:Middlewares/Third_Party/FatFs/src/ff.c **** 		fno->fattrib = dir[DIR_Attr];				/* Attribute */
1807:Middlewares/Third_Party/FatFs/src/ff.c **** 		fno->fsize = LD_DWORD(dir + DIR_FileSize);	/* Size */
1808:Middlewares/Third_Party/FatFs/src/ff.c **** 		fno->fdate = LD_WORD(dir + DIR_WrtDate);	/* Date */
1809:Middlewares/Third_Party/FatFs/src/ff.c **** 		fno->ftime = LD_WORD(dir + DIR_WrtTime);	/* Time */
1810:Middlewares/Third_Party/FatFs/src/ff.c **** 	}
1811:Middlewares/Third_Party/FatFs/src/ff.c **** 	*p = 0;		/* Terminate SFN string by a \0 */
1812:Middlewares/Third_Party/FatFs/src/ff.c **** 
1813:Middlewares/Third_Party/FatFs/src/ff.c **** #if _USE_LFN
1814:Middlewares/Third_Party/FatFs/src/ff.c **** 	if (fno->lfname) {
1815:Middlewares/Third_Party/FatFs/src/ff.c **** 		i = 0; p = fno->lfname;
1816:Middlewares/Third_Party/FatFs/src/ff.c **** 		if (dp->sect && fno->lfsize && dp->lfn_idx != 0xFFFF) {	/* Get LFN if available */
1817:Middlewares/Third_Party/FatFs/src/ff.c **** 			lfn = dp->lfn;
1818:Middlewares/Third_Party/FatFs/src/ff.c **** 			while ((w = *lfn++) != 0) {		/* Get an LFN character */
1819:Middlewares/Third_Party/FatFs/src/ff.c **** #if !_LFN_UNICODE
1820:Middlewares/Third_Party/FatFs/src/ff.c **** 				w = ff_convert(w, 0);		/* Unicode -> OEM */
1821:Middlewares/Third_Party/FatFs/src/ff.c **** 				if (!w) { i = 0; break; }	/* No LFN if it could not be converted */
1822:Middlewares/Third_Party/FatFs/src/ff.c **** 				if (_DF1S && w >= 0x100)	/* Put 1st byte if it is a DBC (always false on SBCS cfg) */
1823:Middlewares/Third_Party/FatFs/src/ff.c **** 					p[i++] = (TCHAR)(w >> 8);
1824:Middlewares/Third_Party/FatFs/src/ff.c **** #endif
1825:Middlewares/Third_Party/FatFs/src/ff.c **** 				if (i >= fno->lfsize - 1) { i = 0; break; }	/* No LFN if buffer overflow */
1826:Middlewares/Third_Party/FatFs/src/ff.c **** 				p[i++] = (TCHAR)w;
1827:Middlewares/Third_Party/FatFs/src/ff.c **** 			}
1828:Middlewares/Third_Party/FatFs/src/ff.c **** 		}
1829:Middlewares/Third_Party/FatFs/src/ff.c **** 		p[i] = 0;	/* Terminate LFN string by a \0 */
1830:Middlewares/Third_Party/FatFs/src/ff.c **** 	}
1831:Middlewares/Third_Party/FatFs/src/ff.c **** #endif
1832:Middlewares/Third_Party/FatFs/src/ff.c **** }
1833:Middlewares/Third_Party/FatFs/src/ff.c **** #endif /* _FS_MINIMIZE <= 1 || _FS_RPATH >= 2 */
1834:Middlewares/Third_Party/FatFs/src/ff.c **** 
1835:Middlewares/Third_Party/FatFs/src/ff.c **** 
1836:Middlewares/Third_Party/FatFs/src/ff.c **** 
1837:Middlewares/Third_Party/FatFs/src/ff.c **** 
1838:Middlewares/Third_Party/FatFs/src/ff.c **** /*-----------------------------------------------------------------------*/
ARM GAS  C:\Users\Admin\AppData\Local\Temp\cc3ZGI84.s 			page 62


1839:Middlewares/Third_Party/FatFs/src/ff.c **** /* Pattern matching                                                      */
1840:Middlewares/Third_Party/FatFs/src/ff.c **** /*-----------------------------------------------------------------------*/
1841:Middlewares/Third_Party/FatFs/src/ff.c **** #if _USE_FIND && _FS_MINIMIZE <= 1
1842:Middlewares/Third_Party/FatFs/src/ff.c **** static
1843:Middlewares/Third_Party/FatFs/src/ff.c **** WCHAR get_achar (		/* Get a character and advances ptr 1 or 2 */
1844:Middlewares/Third_Party/FatFs/src/ff.c **** 	const TCHAR** ptr	/* Pointer to pointer to the SBCS/DBCS/Unicode string */
1845:Middlewares/Third_Party/FatFs/src/ff.c **** )
1846:Middlewares/Third_Party/FatFs/src/ff.c **** {
1847:Middlewares/Third_Party/FatFs/src/ff.c **** 	WCHAR chr;
1848:Middlewares/Third_Party/FatFs/src/ff.c **** 
1849:Middlewares/Third_Party/FatFs/src/ff.c **** #if !_LFN_UNICODE
1850:Middlewares/Third_Party/FatFs/src/ff.c **** 	chr = (BYTE)*(*ptr)++;					/* Get a byte */
1851:Middlewares/Third_Party/FatFs/src/ff.c **** 	if (IsLower(chr)) chr -= 0x20;			/* To upper ASCII char */
1852:Middlewares/Third_Party/FatFs/src/ff.c **** 	if (IsDBCS1(chr) && IsDBCS2(**ptr))		/* Get DBC 2nd byte if needed */
1853:Middlewares/Third_Party/FatFs/src/ff.c **** 		chr = chr << 8 | (BYTE)*(*ptr)++;
1854:Middlewares/Third_Party/FatFs/src/ff.c **** #ifdef _EXCVT
1855:Middlewares/Third_Party/FatFs/src/ff.c **** 	if (chr >= 0x80) chr = ExCvt[chr - 0x80];	/* To upper SBCS extended char */
1856:Middlewares/Third_Party/FatFs/src/ff.c **** #endif
1857:Middlewares/Third_Party/FatFs/src/ff.c **** #else
1858:Middlewares/Third_Party/FatFs/src/ff.c **** 	chr = ff_wtoupper(*(*ptr)++);			/* Get a word and to upper */
1859:Middlewares/Third_Party/FatFs/src/ff.c **** #endif
1860:Middlewares/Third_Party/FatFs/src/ff.c **** 	return chr;
1861:Middlewares/Third_Party/FatFs/src/ff.c **** }
1862:Middlewares/Third_Party/FatFs/src/ff.c **** 
1863:Middlewares/Third_Party/FatFs/src/ff.c **** 
1864:Middlewares/Third_Party/FatFs/src/ff.c **** static
1865:Middlewares/Third_Party/FatFs/src/ff.c **** int pattern_matching (	/* Return value: 0:mismatched, 1:matched */
1866:Middlewares/Third_Party/FatFs/src/ff.c **** 	const TCHAR* pat,	/* Matching pattern */
1867:Middlewares/Third_Party/FatFs/src/ff.c **** 	const TCHAR* nam,	/* String to be tested */
1868:Middlewares/Third_Party/FatFs/src/ff.c **** 	int skip,			/* Number of pre-skip chars (number of ?s) */
1869:Middlewares/Third_Party/FatFs/src/ff.c **** 	int inf				/* Infinite search (* specified) */
1870:Middlewares/Third_Party/FatFs/src/ff.c **** )
1871:Middlewares/Third_Party/FatFs/src/ff.c **** {
1872:Middlewares/Third_Party/FatFs/src/ff.c **** 	const TCHAR *pp, *np;
1873:Middlewares/Third_Party/FatFs/src/ff.c **** 	WCHAR pc, nc;
1874:Middlewares/Third_Party/FatFs/src/ff.c **** 	int nm, nx;
1875:Middlewares/Third_Party/FatFs/src/ff.c **** 
1876:Middlewares/Third_Party/FatFs/src/ff.c **** 
1877:Middlewares/Third_Party/FatFs/src/ff.c **** 	while (skip--) {				/* Pre-skip name chars */
1878:Middlewares/Third_Party/FatFs/src/ff.c **** 		if (!get_achar(&nam)) return 0;	/* Branch mismatched if less name chars */
1879:Middlewares/Third_Party/FatFs/src/ff.c **** 	}
1880:Middlewares/Third_Party/FatFs/src/ff.c **** 	if (!*pat && inf) return 1;		/* (short circuit) */
1881:Middlewares/Third_Party/FatFs/src/ff.c **** 
1882:Middlewares/Third_Party/FatFs/src/ff.c **** 	do {
1883:Middlewares/Third_Party/FatFs/src/ff.c **** 		pp = pat; np = nam;			/* Top of pattern and name to match */
1884:Middlewares/Third_Party/FatFs/src/ff.c **** 		for (;;) {
1885:Middlewares/Third_Party/FatFs/src/ff.c **** 			if (*pp == '?' || *pp == '*') {	/* Wildcard? */
1886:Middlewares/Third_Party/FatFs/src/ff.c **** 				nm = nx = 0;
1887:Middlewares/Third_Party/FatFs/src/ff.c **** 				do {				/* Analyze the wildcard chars */
1888:Middlewares/Third_Party/FatFs/src/ff.c **** 					if (*pp++ == '?') nm++; else nx = 1;
1889:Middlewares/Third_Party/FatFs/src/ff.c **** 				} while (*pp == '?' || *pp == '*');
1890:Middlewares/Third_Party/FatFs/src/ff.c **** 				if (pattern_matching(pp, np, nm, nx)) return 1;	/* Test new branch (recurs upto number of wildc
1891:Middlewares/Third_Party/FatFs/src/ff.c **** 				nc = *np; break;	/* Branch mismatched */
1892:Middlewares/Third_Party/FatFs/src/ff.c **** 			}
1893:Middlewares/Third_Party/FatFs/src/ff.c **** 			pc = get_achar(&pp);	/* Get a pattern char */
1894:Middlewares/Third_Party/FatFs/src/ff.c **** 			nc = get_achar(&np);	/* Get a name char */
1895:Middlewares/Third_Party/FatFs/src/ff.c **** 			if (pc != nc) break;	/* Branch mismatched? */
ARM GAS  C:\Users\Admin\AppData\Local\Temp\cc3ZGI84.s 			page 63


1896:Middlewares/Third_Party/FatFs/src/ff.c **** 			if (!pc) return 1;		/* Branch matched? (matched at end of both strings) */
1897:Middlewares/Third_Party/FatFs/src/ff.c **** 		}
1898:Middlewares/Third_Party/FatFs/src/ff.c **** 		get_achar(&nam);			/* nam++ */
1899:Middlewares/Third_Party/FatFs/src/ff.c **** 	} while (inf && nc);			/* Retry until end of name if infinite search is specified */
1900:Middlewares/Third_Party/FatFs/src/ff.c **** 
1901:Middlewares/Third_Party/FatFs/src/ff.c **** 	return 0;
1902:Middlewares/Third_Party/FatFs/src/ff.c **** }
1903:Middlewares/Third_Party/FatFs/src/ff.c **** #endif /* _USE_FIND && _FS_MINIMIZE <= 1 */
1904:Middlewares/Third_Party/FatFs/src/ff.c **** 
1905:Middlewares/Third_Party/FatFs/src/ff.c **** 
1906:Middlewares/Third_Party/FatFs/src/ff.c **** 
1907:Middlewares/Third_Party/FatFs/src/ff.c **** 
1908:Middlewares/Third_Party/FatFs/src/ff.c **** /*-----------------------------------------------------------------------*/
1909:Middlewares/Third_Party/FatFs/src/ff.c **** /* Pick a segment and create the object name in directory form           */
1910:Middlewares/Third_Party/FatFs/src/ff.c **** /*-----------------------------------------------------------------------*/
1911:Middlewares/Third_Party/FatFs/src/ff.c **** 
1912:Middlewares/Third_Party/FatFs/src/ff.c **** static
1913:Middlewares/Third_Party/FatFs/src/ff.c **** FRESULT create_name (
1914:Middlewares/Third_Party/FatFs/src/ff.c **** 	DIR* dp,			/* Pointer to the directory object */
1915:Middlewares/Third_Party/FatFs/src/ff.c **** 	const TCHAR** path	/* Pointer to pointer to the segment in the path string */
1916:Middlewares/Third_Party/FatFs/src/ff.c **** )
1917:Middlewares/Third_Party/FatFs/src/ff.c **** {
1918:Middlewares/Third_Party/FatFs/src/ff.c **** #if _USE_LFN	/* LFN configuration */
1919:Middlewares/Third_Party/FatFs/src/ff.c **** 	BYTE b, cf;
1920:Middlewares/Third_Party/FatFs/src/ff.c **** 	WCHAR w, *lfn;
1921:Middlewares/Third_Party/FatFs/src/ff.c **** 	UINT i, ni, si, di;
1922:Middlewares/Third_Party/FatFs/src/ff.c **** 	const TCHAR *p;
1923:Middlewares/Third_Party/FatFs/src/ff.c **** 
1924:Middlewares/Third_Party/FatFs/src/ff.c **** 	/* Create LFN in Unicode */
1925:Middlewares/Third_Party/FatFs/src/ff.c **** 	for (p = *path; *p == '/' || *p == '\\'; p++) ;	/* Strip duplicated separator */
1926:Middlewares/Third_Party/FatFs/src/ff.c **** 	lfn = dp->lfn;
1927:Middlewares/Third_Party/FatFs/src/ff.c **** 	si = di = 0;
1928:Middlewares/Third_Party/FatFs/src/ff.c **** 	for (;;) {
1929:Middlewares/Third_Party/FatFs/src/ff.c **** 		w = p[si++];					/* Get a character */
1930:Middlewares/Third_Party/FatFs/src/ff.c **** 		if (w < ' ' || w == '/' || w == '\\') break;	/* Break on end of segment */
1931:Middlewares/Third_Party/FatFs/src/ff.c **** 		if (di >= _MAX_LFN)				/* Reject too long name */
1932:Middlewares/Third_Party/FatFs/src/ff.c **** 			return FR_INVALID_NAME;
1933:Middlewares/Third_Party/FatFs/src/ff.c **** #if !_LFN_UNICODE
1934:Middlewares/Third_Party/FatFs/src/ff.c **** 		w &= 0xFF;
1935:Middlewares/Third_Party/FatFs/src/ff.c **** 		if (IsDBCS1(w)) {				/* Check if it is a DBC 1st byte (always false on SBCS cfg) */
1936:Middlewares/Third_Party/FatFs/src/ff.c **** #if _DF1S
1937:Middlewares/Third_Party/FatFs/src/ff.c **** 			b = (BYTE)p[si++];			/* Get 2nd byte */
1938:Middlewares/Third_Party/FatFs/src/ff.c **** 			w = (w << 8) + b;			/* Create a DBC */
1939:Middlewares/Third_Party/FatFs/src/ff.c **** 			if (!IsDBCS2(b))
1940:Middlewares/Third_Party/FatFs/src/ff.c **** 				return FR_INVALID_NAME;	/* Reject invalid sequence */
1941:Middlewares/Third_Party/FatFs/src/ff.c **** #endif
1942:Middlewares/Third_Party/FatFs/src/ff.c **** 		}
1943:Middlewares/Third_Party/FatFs/src/ff.c **** 		w = ff_convert(w, 1);			/* Convert ANSI/OEM to Unicode */
1944:Middlewares/Third_Party/FatFs/src/ff.c **** 		if (!w) return FR_INVALID_NAME;	/* Reject invalid code */
1945:Middlewares/Third_Party/FatFs/src/ff.c **** #endif
1946:Middlewares/Third_Party/FatFs/src/ff.c **** 		if (w < 0x80 && chk_chr("\"*:<>\?|\x7F", w)) /* Reject illegal characters for LFN */
1947:Middlewares/Third_Party/FatFs/src/ff.c **** 			return FR_INVALID_NAME;
1948:Middlewares/Third_Party/FatFs/src/ff.c **** 		lfn[di++] = w;					/* Store the Unicode character */
1949:Middlewares/Third_Party/FatFs/src/ff.c **** 	}
1950:Middlewares/Third_Party/FatFs/src/ff.c **** 	*path = &p[si];						/* Return pointer to the next segment */
1951:Middlewares/Third_Party/FatFs/src/ff.c **** 	cf = (w < ' ') ? NS_LAST : 0;		/* Set last segment flag if end of path */
1952:Middlewares/Third_Party/FatFs/src/ff.c **** #if _FS_RPATH
ARM GAS  C:\Users\Admin\AppData\Local\Temp\cc3ZGI84.s 			page 64


1953:Middlewares/Third_Party/FatFs/src/ff.c **** 	if ((di == 1 && lfn[di - 1] == '.') || /* Is this a dot entry? */
1954:Middlewares/Third_Party/FatFs/src/ff.c **** 		(di == 2 && lfn[di - 1] == '.' && lfn[di - 2] == '.')) {
1955:Middlewares/Third_Party/FatFs/src/ff.c **** 		lfn[di] = 0;
1956:Middlewares/Third_Party/FatFs/src/ff.c **** 		for (i = 0; i < 11; i++)
1957:Middlewares/Third_Party/FatFs/src/ff.c **** 			dp->fn[i] = (i < di) ? '.' : ' ';
1958:Middlewares/Third_Party/FatFs/src/ff.c **** 		dp->fn[i] = cf | NS_DOT;		/* This is a dot entry */
1959:Middlewares/Third_Party/FatFs/src/ff.c **** 		return FR_OK;
1960:Middlewares/Third_Party/FatFs/src/ff.c **** 	}
1961:Middlewares/Third_Party/FatFs/src/ff.c **** #endif
1962:Middlewares/Third_Party/FatFs/src/ff.c **** 	while (di) {						/* Strip trailing spaces and dots */
1963:Middlewares/Third_Party/FatFs/src/ff.c **** 		w = lfn[di - 1];
1964:Middlewares/Third_Party/FatFs/src/ff.c **** 		if (w != ' ' && w != '.') break;
1965:Middlewares/Third_Party/FatFs/src/ff.c **** 		di--;
1966:Middlewares/Third_Party/FatFs/src/ff.c **** 	}
1967:Middlewares/Third_Party/FatFs/src/ff.c **** 	if (!di) return FR_INVALID_NAME;	/* Reject nul string */
1968:Middlewares/Third_Party/FatFs/src/ff.c **** 
1969:Middlewares/Third_Party/FatFs/src/ff.c **** 	lfn[di] = 0;						/* LFN is created */
1970:Middlewares/Third_Party/FatFs/src/ff.c **** 
1971:Middlewares/Third_Party/FatFs/src/ff.c **** 	/* Create SFN in directory form */
1972:Middlewares/Third_Party/FatFs/src/ff.c **** 	mem_set(dp->fn, ' ', 11);
1973:Middlewares/Third_Party/FatFs/src/ff.c **** 	for (si = 0; lfn[si] == ' ' || lfn[si] == '.'; si++) ;	/* Strip leading spaces and dots */
1974:Middlewares/Third_Party/FatFs/src/ff.c **** 	if (si) cf |= NS_LOSS | NS_LFN;
1975:Middlewares/Third_Party/FatFs/src/ff.c **** 	while (di && lfn[di - 1] != '.') di--;	/* Find extension (di<=si: no extension) */
1976:Middlewares/Third_Party/FatFs/src/ff.c **** 
1977:Middlewares/Third_Party/FatFs/src/ff.c **** 	b = i = 0; ni = 8;
1978:Middlewares/Third_Party/FatFs/src/ff.c **** 	for (;;) {
1979:Middlewares/Third_Party/FatFs/src/ff.c **** 		w = lfn[si++];					/* Get an LFN character */
1980:Middlewares/Third_Party/FatFs/src/ff.c **** 		if (!w) break;					/* Break on end of the LFN */
1981:Middlewares/Third_Party/FatFs/src/ff.c **** 		if (w == ' ' || (w == '.' && si != di)) {	/* Remove spaces and dots */
1982:Middlewares/Third_Party/FatFs/src/ff.c **** 			cf |= NS_LOSS | NS_LFN; continue;
1983:Middlewares/Third_Party/FatFs/src/ff.c **** 		}
1984:Middlewares/Third_Party/FatFs/src/ff.c **** 
1985:Middlewares/Third_Party/FatFs/src/ff.c **** 		if (i >= ni || si == di) {		/* Extension or end of SFN */
1986:Middlewares/Third_Party/FatFs/src/ff.c **** 			if (ni == 11) {				/* Long extension */
1987:Middlewares/Third_Party/FatFs/src/ff.c **** 				cf |= NS_LOSS | NS_LFN; break;
1988:Middlewares/Third_Party/FatFs/src/ff.c **** 			}
1989:Middlewares/Third_Party/FatFs/src/ff.c **** 			if (si != di) cf |= NS_LOSS | NS_LFN;	/* Out of 8.3 format */
1990:Middlewares/Third_Party/FatFs/src/ff.c **** 			if (si > di) break;			/* No extension */
1991:Middlewares/Third_Party/FatFs/src/ff.c **** 			si = di; i = 8; ni = 11;	/* Enter extension section */
1992:Middlewares/Third_Party/FatFs/src/ff.c **** 			b <<= 2; continue;
1993:Middlewares/Third_Party/FatFs/src/ff.c **** 		}
1994:Middlewares/Third_Party/FatFs/src/ff.c **** 
1995:Middlewares/Third_Party/FatFs/src/ff.c **** 		if (w >= 0x80) {				/* Non ASCII character */
1996:Middlewares/Third_Party/FatFs/src/ff.c **** #ifdef _EXCVT
1997:Middlewares/Third_Party/FatFs/src/ff.c **** 			w = ff_convert(w, 0);		/* Unicode -> OEM code */
1998:Middlewares/Third_Party/FatFs/src/ff.c **** 			if (w) w = ExCvt[w - 0x80];	/* Convert extended character to upper (SBCS) */
1999:Middlewares/Third_Party/FatFs/src/ff.c **** #else
2000:Middlewares/Third_Party/FatFs/src/ff.c **** 			w = ff_convert(ff_wtoupper(w), 0);	/* Upper converted Unicode -> OEM code */
2001:Middlewares/Third_Party/FatFs/src/ff.c **** #endif
2002:Middlewares/Third_Party/FatFs/src/ff.c **** 			cf |= NS_LFN;				/* Force create LFN entry */
2003:Middlewares/Third_Party/FatFs/src/ff.c **** 		}
2004:Middlewares/Third_Party/FatFs/src/ff.c **** 
2005:Middlewares/Third_Party/FatFs/src/ff.c **** 		if (_DF1S && w >= 0x100) {		/* DBC (always false at SBCS cfg) */
2006:Middlewares/Third_Party/FatFs/src/ff.c **** 			if (i >= ni - 1) {
2007:Middlewares/Third_Party/FatFs/src/ff.c **** 				cf |= NS_LOSS | NS_LFN; i = ni; continue;
2008:Middlewares/Third_Party/FatFs/src/ff.c **** 			}
2009:Middlewares/Third_Party/FatFs/src/ff.c **** 			dp->fn[i++] = (BYTE)(w >> 8);
ARM GAS  C:\Users\Admin\AppData\Local\Temp\cc3ZGI84.s 			page 65


2010:Middlewares/Third_Party/FatFs/src/ff.c **** 		} else {						/* SBC */
2011:Middlewares/Third_Party/FatFs/src/ff.c **** 			if (!w || chk_chr("+,;=[]", w)) {	/* Replace illegal characters for SFN */
2012:Middlewares/Third_Party/FatFs/src/ff.c **** 				w = '_'; cf |= NS_LOSS | NS_LFN;/* Lossy conversion */
2013:Middlewares/Third_Party/FatFs/src/ff.c **** 			} else {
2014:Middlewares/Third_Party/FatFs/src/ff.c **** 				if (IsUpper(w)) {		/* ASCII large capital */
2015:Middlewares/Third_Party/FatFs/src/ff.c **** 					b |= 2;
2016:Middlewares/Third_Party/FatFs/src/ff.c **** 				} else {
2017:Middlewares/Third_Party/FatFs/src/ff.c **** 					if (IsLower(w)) {	/* ASCII small capital */
2018:Middlewares/Third_Party/FatFs/src/ff.c **** 						b |= 1; w -= 0x20;
2019:Middlewares/Third_Party/FatFs/src/ff.c **** 					}
2020:Middlewares/Third_Party/FatFs/src/ff.c **** 				}
2021:Middlewares/Third_Party/FatFs/src/ff.c **** 			}
2022:Middlewares/Third_Party/FatFs/src/ff.c **** 		}
2023:Middlewares/Third_Party/FatFs/src/ff.c **** 		dp->fn[i++] = (BYTE)w;
2024:Middlewares/Third_Party/FatFs/src/ff.c **** 	}
2025:Middlewares/Third_Party/FatFs/src/ff.c **** 
2026:Middlewares/Third_Party/FatFs/src/ff.c **** 	if (dp->fn[0] == DDEM) dp->fn[0] = RDDEM;	/* If the first character collides with deleted mark, re
2027:Middlewares/Third_Party/FatFs/src/ff.c **** 
2028:Middlewares/Third_Party/FatFs/src/ff.c **** 	if (ni == 8) b <<= 2;
2029:Middlewares/Third_Party/FatFs/src/ff.c **** 	if ((b & 0x0C) == 0x0C || (b & 0x03) == 0x03)	/* Create LFN entry when there are composite capital
2030:Middlewares/Third_Party/FatFs/src/ff.c **** 		cf |= NS_LFN;
2031:Middlewares/Third_Party/FatFs/src/ff.c **** 	if (!(cf & NS_LFN)) {						/* When LFN is in 8.3 format without extended character, NT flags are c
2032:Middlewares/Third_Party/FatFs/src/ff.c **** 		if ((b & 0x03) == 0x01) cf |= NS_EXT;	/* NT flag (Extension has only small capital) */
2033:Middlewares/Third_Party/FatFs/src/ff.c **** 		if ((b & 0x0C) == 0x04) cf |= NS_BODY;	/* NT flag (Filename has only small capital) */
2034:Middlewares/Third_Party/FatFs/src/ff.c **** 	}
2035:Middlewares/Third_Party/FatFs/src/ff.c **** 
2036:Middlewares/Third_Party/FatFs/src/ff.c **** 	dp->fn[NSFLAG] = cf;	/* SFN is created */
2037:Middlewares/Third_Party/FatFs/src/ff.c **** 
2038:Middlewares/Third_Party/FatFs/src/ff.c **** 	return FR_OK;
2039:Middlewares/Third_Party/FatFs/src/ff.c **** 
2040:Middlewares/Third_Party/FatFs/src/ff.c **** 
2041:Middlewares/Third_Party/FatFs/src/ff.c **** #else	/* Non-LFN configuration */
2042:Middlewares/Third_Party/FatFs/src/ff.c **** 	BYTE b, c, d, *sfn;
2043:Middlewares/Third_Party/FatFs/src/ff.c **** 	UINT ni, si, i;
2044:Middlewares/Third_Party/FatFs/src/ff.c **** 	const char *p;
2045:Middlewares/Third_Party/FatFs/src/ff.c **** 
2046:Middlewares/Third_Party/FatFs/src/ff.c **** 	/* Create file name in directory form */
2047:Middlewares/Third_Party/FatFs/src/ff.c **** 	for (p = *path; *p == '/' || *p == '\\'; p++) ;	/* Strip duplicated separator */
2048:Middlewares/Third_Party/FatFs/src/ff.c **** 	sfn = dp->fn;
2049:Middlewares/Third_Party/FatFs/src/ff.c **** 	mem_set(sfn, ' ', 11);
2050:Middlewares/Third_Party/FatFs/src/ff.c **** 	si = i = b = 0; ni = 8;
2051:Middlewares/Third_Party/FatFs/src/ff.c **** #if _FS_RPATH
2052:Middlewares/Third_Party/FatFs/src/ff.c **** 	if (p[si] == '.') { /* Is this a dot entry? */
2053:Middlewares/Third_Party/FatFs/src/ff.c **** 		for (;;) {
2054:Middlewares/Third_Party/FatFs/src/ff.c **** 			c = (BYTE)p[si++];
2055:Middlewares/Third_Party/FatFs/src/ff.c **** 			if (c != '.' || si >= 3) break;
2056:Middlewares/Third_Party/FatFs/src/ff.c **** 			sfn[i++] = c;
2057:Middlewares/Third_Party/FatFs/src/ff.c **** 		}
2058:Middlewares/Third_Party/FatFs/src/ff.c **** 		if (c != '/' && c != '\\' && c > ' ') return FR_INVALID_NAME;
