ARM GAS  C:\Users\Admin\AppData\Local\Temp\ccE7ElAa.s 			page 1


   1              		.cpu cortex-m3
   2              		.arch armv7-m
   3              		.fpu softvfp
   4              		.eabi_attribute 20, 1
   5              		.eabi_attribute 21, 1
   6              		.eabi_attribute 23, 3
   7              		.eabi_attribute 24, 1
   8              		.eabi_attribute 25, 1
   9              		.eabi_attribute 26, 1
  10              		.eabi_attribute 30, 1
  11              		.eabi_attribute 34, 1
  12              		.eabi_attribute 18, 4
  13              		.file	"main.c"
  14              		.text
  15              	.Ltext0:
  16              		.cfi_sections	.debug_frame
  17              		.section	.text.rs232_logdata,"ax",%progbits
  18              		.align	1
  19              		.global	rs232_logdata
  20              		.syntax unified
  21              		.thumb
  22              		.thumb_func
  24              	rs232_logdata:
  25              	.LVL0:
  26              	.LFB68:
  27              		.file 1 "Core/Src/main.c"
   1:Core/Src/main.c **** /* USER CODE BEGIN Header */
   2:Core/Src/main.c **** /**
   3:Core/Src/main.c ****   ******************************************************************************
   4:Core/Src/main.c ****   * @file           : main.c
   5:Core/Src/main.c ****   * @brief          : Main program body
   6:Core/Src/main.c ****   ******************************************************************************
   7:Core/Src/main.c ****   * @attention
   8:Core/Src/main.c ****   *
   9:Core/Src/main.c ****   * Copyright (c) 2023 STMicroelectronics.
  10:Core/Src/main.c ****   * All rights reserved.
  11:Core/Src/main.c ****   *
  12:Core/Src/main.c ****   * This software is licensed under terms that can be found in the LICENSE file
  13:Core/Src/main.c ****   * in the root directory of this software component.
  14:Core/Src/main.c ****   * If no LICENSE file comes with this software, it is provided AS-IS.
  15:Core/Src/main.c ****   *
  16:Core/Src/main.c ****   ******************************************************************************
  17:Core/Src/main.c ****   SIM   ------> UART1 115200
  18:Core/Src/main.c ****   RS232 ------> UART2 9600
  19:Core/Src/main.c ****   GNSS  ------> UART4 9600
  20:Core/Src/main.c ****   DEBUG ------> UART5 115200
  21:Core/Src/main.c **** 
  22:Core/Src/main.c ****   RFID  ------> SPI1  18Mb/s
  23:Core/Src/main.c ****   SDCAD ------> SPI3
  24:Core/Src/main.c ****   FLASH ------> SPI2
  25:Core/Src/main.c **** 
  26:Core/Src/main.c ****   SENSOR -----> TIM1
  27:Core/Src/main.c ****   RFID      --> TIM2
  28:Core/Src/main.c ****   Task     ---> TIM3
  29:Core/Src/main.c ****   */
  30:Core/Src/main.c **** /* USER CODE END Header */
  31:Core/Src/main.c **** /* Includes ------------------------------------------------------------------*/
ARM GAS  C:\Users\Admin\AppData\Local\Temp\ccE7ElAa.s 			page 2


  32:Core/Src/main.c **** #include "main.h"
  33:Core/Src/main.c **** #include "adc.h"
  34:Core/Src/main.c **** #include "fatfs.h"
  35:Core/Src/main.c **** #include "i2c.h"
  36:Core/Src/main.c **** #include "rtc.h"
  37:Core/Src/main.c **** #include "spi.h"
  38:Core/Src/main.c **** #include "tim.h"
  39:Core/Src/main.c **** #include "usart.h"
  40:Core/Src/main.c **** #include "gpio.h"
  41:Core/Src/main.c **** 
  42:Core/Src/main.c **** /* Private includes ----------------------------------------------------------*/
  43:Core/Src/main.c **** /* USER CODE BEGIN Includes */
  44:Core/Src/main.c **** #include "sensors.h"
  45:Core/Src/main.c **** #include "rc522.h"
  46:Core/Src/main.c **** #include "debug.h"
  47:Core/Src/main.c **** #include "sim4g_lte.h"
  48:Core/Src/main.c **** #include "gnss.h"
  49:Core/Src/main.c **** #include "fatfs_sd.h"
  50:Core/Src/main.c **** #include "mqtt.h"
  51:Core/Src/main.c **** #include "flash.h"
  52:Core/Src/main.c **** #include "ssd1306.h"
  53:Core/Src/main.c **** #include "bitmap.h"
  54:Core/Src/main.c **** 
  55:Core/Src/main.c **** #include <stdio.h>
  56:Core/Src/main.c **** #include <stdint.h>
  57:Core/Src/main.c **** #include <string.h>
  58:Core/Src/main.c **** /* USER CODE END Includes */
  59:Core/Src/main.c **** 
  60:Core/Src/main.c **** /* Private typedef -----------------------------------------------------------*/
  61:Core/Src/main.c **** /* USER CODE BEGIN PTD */
  62:Core/Src/main.c **** 
  63:Core/Src/main.c **** /* USER CODE END PTD */
  64:Core/Src/main.c **** 
  65:Core/Src/main.c **** /* Private define ------------------------------------------------------------*/
  66:Core/Src/main.c **** /* USER CODE BEGIN PD */
  67:Core/Src/main.c **** 
  68:Core/Src/main.c **** /* USER CODE END PD */
  69:Core/Src/main.c **** 
  70:Core/Src/main.c **** /* Private macro -------------------------------------------------------------*/
  71:Core/Src/main.c **** /* USER CODE BEGIN PM */
  72:Core/Src/main.c **** 
  73:Core/Src/main.c **** /* USER CODE END PM */
  74:Core/Src/main.c **** 
  75:Core/Src/main.c **** /* Private variables ---------------------------------------------------------*/
  76:Core/Src/main.c **** 
  77:Core/Src/main.c **** /* USER CODE BEGIN PV */
  78:Core/Src/main.c **** /************************************RFID*********************/
  79:Core/Src/main.c **** uint8_t CardID[5];
  80:Core/Src/main.c **** char szBuff[20];
  81:Core/Src/main.c **** volatile bool waiting4LogOut = false;
  82:Core/Src/main.c **** volatile bool Logout = false;
  83:Core/Src/main.c **** enum check
  84:Core/Src/main.c **** {
  85:Core/Src/main.c ****   CHANGE,
  86:Core/Src/main.c ****   NOT_CHANGE
  87:Core/Src/main.c **** };
  88:Core/Src/main.c **** 
ARM GAS  C:\Users\Admin\AppData\Local\Temp\ccE7ElAa.s 			page 3


  89:Core/Src/main.c **** volatile int npn_flag_check = NOT_CHANGE;
  90:Core/Src/main.c **** int npn_count = 0;
  91:Core/Src/main.c **** 
  92:Core/Src/main.c **** enum State
  93:Core/Src/main.c **** {
  94:Core/Src/main.c ****   Stop,
  95:Core/Src/main.c ****   Move
  96:Core/Src/main.c **** };
  97:Core/Src/main.c **** 
  98:Core/Src/main.c **** int Vehical_State;
  99:Core/Src/main.c **** 
 100:Core/Src/main.c **** float current_time, last_time;
 101:Core/Src/main.c **** float Vehical_veloc;
 102:Core/Src/main.c **** 
 103:Core/Src/main.c **** /************************************RTC************************/
 104:Core/Src/main.c **** RTC_TimeTypeDef current_sTime = {0};
 105:Core/Src/main.c **** RTC_DateTypeDef current_sDate = {0};
 106:Core/Src/main.c **** RTC_TimeTypeDef last_sTime = {0};
 107:Core/Src/main.c **** RTC_DateTypeDef last_sDate = {0};
 108:Core/Src/main.c **** RTC_AlarmTypeDef sAlarm = {0};
 109:Core/Src/main.c **** uint8_t sencond = 0;
 110:Core/Src/main.c **** uint8_t minute = 0;
 111:Core/Src/main.c **** uint8_t hour = 0;
 112:Core/Src/main.c **** uint8_t date = 0;
 113:Core/Src/main.c **** uint8_t day = 0;
 114:Core/Src/main.c **** uint8_t month = 0;
 115:Core/Src/main.c **** uint8_t year = 0;
 116:Core/Src/main.c **** char time_buff[20];
 117:Core/Src/main.c **** char date_buff[20];
 118:Core/Src/main.c **** volatile int check = 0;
 119:Core/Src/main.c **** 
 120:Core/Src/main.c **** uint16_t totalMinute_OperateTime;
 121:Core/Src/main.c **** int time_hour;
 122:Core/Src/main.c **** int time_minute;
 123:Core/Src/main.c **** char totalMinute_OperateTime_buff[30] = {0};
 124:Core/Src/main.c **** 
 125:Core/Src/main.c **** int numCheck_time = 0;
 126:Core/Src/main.c **** char utctime_buff[10]={0};
 127:Core/Src/main.c **** /*********************************** GPS************************/
 128:Core/Src/main.c **** #define GPS 0
 129:Core/Src/main.c **** char *GPSResponse;
 130:Core/Src/main.c **** char latData[15] = {0};
 131:Core/Src/main.c **** char longData[15] = {0};
 132:Core/Src/main.c **** char simMessage[200] = {0};
 133:Core/Src/main.c **** 
 134:Core/Src/main.c **** char l70Data1;
 135:Core/Src/main.c **** char gnss_str[100] = {0};
 136:Core/Src/main.c **** extern l70Data_t l70DataAfterHadler;
 137:Core/Src/main.c **** 
 138:Core/Src/main.c **** /************************************* SDCARD*******************/
 139:Core/Src/main.c **** #define SDCard 0
 140:Core/Src/main.c **** FATFS fs;                      // file system
 141:Core/Src/main.c **** FIL fil;                       // file
 142:Core/Src/main.c **** FRESULT fresult;               // store the result
 143:Core/Src/main.c **** char SD_buffer_w[1024] = {0};  // write data
 144:Core/Src/main.c **** char SD_buffer_r[10224] = {0}; // read data
 145:Core/Src/main.c **** char SD_file_name[50] = {0};
ARM GAS  C:\Users\Admin\AppData\Local\Temp\ccE7ElAa.s 			page 4


 146:Core/Src/main.c **** UINT br, bw; // file read.write count
 147:Core/Src/main.c **** 
 148:Core/Src/main.c **** FATFS *pfs;
 149:Core/Src/main.c **** DWORD fre_clust;
 150:Core/Src/main.c **** uint32_t total, free_space;
 151:Core/Src/main.c **** char SD_read[256];
 152:Core/Src/main.c **** 
 153:Core/Src/main.c **** /**************************************SIM 4G***************************/
 154:Core/Src/main.c **** #define SIM 0
 155:Core/Src/main.c **** // typedef struct
 156:Core/Src/main.c **** // {
 157:Core/Src/main.c **** //   char online[2];
 158:Core/Src/main.c **** //   char offline[2];
 159:Core/Src/main.c **** //   char sleep[2];
 160:Core/Src/main.c **** //   char deviceID[20];
 161:Core/Src/main.c **** //   char license[20];
 162:Core/Src/main.c **** //   char name[50];
 163:Core/Src/main.c **** //   char phone[20];
 164:Core/Src/main.c **** //   char signal[20];
 165:Core/Src/main.c **** // } dataPubTB_t;
 166:Core/Src/main.c **** typedef struct
 167:Core/Src/main.c **** {
 168:Core/Src/main.c ****   char online[2];
 169:Core/Src/main.c ****   char offline[2];
 170:Core/Src/main.c ****   char sleep[2];
 171:Core/Src/main.c ****   char signal[5];
 172:Core/Src/main.c **** } stateDevice_t;
 173:Core/Src/main.c **** stateDevice_t stateDevice;
 174:Core/Src/main.c **** char Json_Data[500] = {0};
 175:Core/Src/main.c **** /**************************************RFID*****************************/
 176:Core/Src/main.c **** uint8_t CardID[5] = {0};
 177:Core/Src/main.c **** char Card_Startbuff[20] = {0};
 178:Core/Src/main.c **** char Card_Endbuff[20] = {0};
 179:Core/Src/main.c **** char *id_ref = "";
 180:Core/Src/main.c **** typedef struct
 181:Core/Src/main.c **** {
 182:Core/Src/main.c ****   char ID[20];      // id     64C43951
 183:Core/Src/main.c ****   char name[20];    // ABC
 184:Core/Src/main.c ****   char license[10]; // A1 A2...
 185:Core/Src/main.c ****   char phoneNum[20];
 186:Core/Src/main.c ****   char deviceID[20]; // plates license
 187:Core/Src/main.c **** } infoRFID_t;
 188:Core/Src/main.c **** infoRFID_t infoUser, infoUser1, infoUser2;
 189:Core/Src/main.c **** 
 190:Core/Src/main.c **** /***************************************TASK**************************/
 191:Core/Src/main.c **** enum
 192:Core/Src/main.c **** {
 193:Core/Src/main.c ****   Task_Sensors,
 194:Core/Src/main.c ****   Task_GNSS,
 195:Core/Src/main.c ****   Task_SIM,
 196:Core/Src/main.c ****   Task_Store,
 197:Core/Src/main.c ****   Task_Display,
 198:Core/Src/main.c ****   Task_LogoutOrRS232
 199:Core/Src/main.c **** };
 200:Core/Src/main.c **** volatile int Type_Task = Task_Display;
 201:Core/Src/main.c **** typedef struct
 202:Core/Src/main.c **** {
ARM GAS  C:\Users\Admin\AppData\Local\Temp\ccE7ElAa.s 			page 5


 203:Core/Src/main.c ****   volatile bool TaskSensors;
 204:Core/Src/main.c ****   volatile bool TaskGNSS;
 205:Core/Src/main.c ****   volatile bool TaskSIM;
 206:Core/Src/main.c ****   volatile bool TaskStore;
 207:Core/Src/main.c ****   volatile bool TaskDisplay;
 208:Core/Src/main.c **** } TaskPerform_t;
 209:Core/Src/main.c **** 
 210:Core/Src/main.c **** TaskPerform_t Taskperform = {
 211:Core/Src/main.c ****     .TaskSensors = false,
 212:Core/Src/main.c ****     .TaskGNSS = false,
 213:Core/Src/main.c ****     .TaskSIM = false,
 214:Core/Src/main.c ****     .TaskStore = false,
 215:Core/Src/main.c ****     .TaskDisplay = false,
 216:Core/Src/main.c **** };
 217:Core/Src/main.c **** #define SWITCH_CASE 1
 218:Core/Src/main.c **** #define IF_SIUTATION 0
 219:Core/Src/main.c **** enum
 220:Core/Src/main.c **** {
 221:Core/Src/main.c ****   Normal_Mode,
 222:Core/Src/main.c ****   IRQ_Mode
 223:Core/Src/main.c **** };
 224:Core/Src/main.c **** volatile int Task_Mode = Normal_Mode;
 225:Core/Src/main.c **** /*****************************************SENSOR*************************/
 226:Core/Src/main.c **** int ds18_temp;
 227:Core/Src/main.c **** float dht_temp;
 228:Core/Src/main.c **** float dht_hum;
 229:Core/Src/main.c **** 
 230:Core/Src/main.c **** typedef struct
 231:Core/Src/main.c **** {
 232:Core/Src/main.c ****   char ds18_buff[5];
 233:Core/Src/main.c ****   char dhtTemp_buff[50];
 234:Core/Src/main.c ****   char dhtHum_buff[50];
 235:Core/Src/main.c ****   char fuel[5];
 236:Core/Src/main.c **** } sensors_t;
 237:Core/Src/main.c **** sensors_t sensors;
 238:Core/Src/main.c **** /*******************************************FLASH***********************/
 239:Core/Src/main.c **** #define FLASH_ADDRESS_BASE 0x00000000
 240:Core/Src/main.c **** uint8_t flash_Readbuff[1024] = {0};
 241:Core/Src/main.c **** /******************************************RS232************************/
 242:Core/Src/main.c **** char rs232_data;
 243:Core/Src/main.c **** char rs232_buff[50] = {0};
 244:Core/Src/main.c **** int rs232_index = 0;
 245:Core/Src/main.c **** volatile bool rs232_flag = false;
 246:Core/Src/main.c **** /* USER CODE END PV */
 247:Core/Src/main.c **** 
 248:Core/Src/main.c **** /* Private function prototypes -----------------------------------------------*/
 249:Core/Src/main.c **** void SystemClock_Config(void);
 250:Core/Src/main.c **** /* USER CODE BEGIN PFP */
 251:Core/Src/main.c **** 
 252:Core/Src/main.c **** /* USER CODE END PFP */
 253:Core/Src/main.c **** 
 254:Core/Src/main.c **** /* Private user code ---------------------------------------------------------*/
 255:Core/Src/main.c **** /* USER CODE BEGIN 0 */
 256:Core/Src/main.c **** void rs232_logdata(char *str)
 257:Core/Src/main.c **** {
  28              		.loc 1 257 1 view -0
  29              		.cfi_startproc
ARM GAS  C:\Users\Admin\AppData\Local\Temp\ccE7ElAa.s 			page 6


  30              		@ args = 0, pretend = 0, frame = 0
  31              		@ frame_needed = 0, uses_anonymous_args = 0
  32              		.loc 1 257 1 is_stmt 0 view .LVU1
  33 0000 10B5     		push	{r4, lr}
  34              	.LCFI0:
  35              		.cfi_def_cfa_offset 8
  36              		.cfi_offset 4, -8
  37              		.cfi_offset 14, -4
  38 0002 0446     		mov	r4, r0
 258:Core/Src/main.c ****   HAL_UART_Transmit(&huart2, (uint8_t *)str, strlen(str), 5000);
  39              		.loc 1 258 3 is_stmt 1 view .LVU2
  40              		.loc 1 258 46 is_stmt 0 view .LVU3
  41 0004 FFF7FEFF 		bl	strlen
  42              	.LVL1:
  43              		.loc 1 258 3 view .LVU4
  44 0008 41F28833 		movw	r3, #5000
  45 000c 82B2     		uxth	r2, r0
  46 000e 2146     		mov	r1, r4
  47 0010 0148     		ldr	r0, .L3
  48 0012 FFF7FEFF 		bl	HAL_UART_Transmit
  49              	.LVL2:
 259:Core/Src/main.c **** }
  50              		.loc 1 259 1 view .LVU5
  51 0016 10BD     		pop	{r4, pc}
  52              	.LVL3:
  53              	.L4:
  54              		.loc 1 259 1 view .LVU6
  55              		.align	2
  56              	.L3:
  57 0018 00000000 		.word	huart2
  58              		.cfi_endproc
  59              	.LFE68:
  61              		.section	.text.buzzer,"ax",%progbits
  62              		.align	1
  63              		.global	buzzer
  64              		.syntax unified
  65              		.thumb
  66              		.thumb_func
  68              	buzzer:
  69              	.LVL4:
  70              	.LFB69:
 260:Core/Src/main.c **** 
 261:Core/Src/main.c **** void buzzer(long time)
 262:Core/Src/main.c **** {
  71              		.loc 1 262 1 is_stmt 1 view -0
  72              		.cfi_startproc
  73              		@ args = 0, pretend = 0, frame = 0
  74              		@ frame_needed = 0, uses_anonymous_args = 0
  75              		.loc 1 262 1 is_stmt 0 view .LVU8
  76 0000 38B5     		push	{r3, r4, r5, lr}
  77              	.LCFI1:
  78              		.cfi_def_cfa_offset 16
  79              		.cfi_offset 3, -16
  80              		.cfi_offset 4, -12
  81              		.cfi_offset 5, -8
  82              		.cfi_offset 14, -4
  83 0002 0446     		mov	r4, r0
ARM GAS  C:\Users\Admin\AppData\Local\Temp\ccE7ElAa.s 			page 7


 263:Core/Src/main.c ****   HAL_GPIO_WritePin(BUZZER_GPIO_Port, BUZZER_Pin, GPIO_PIN_SET);
  84              		.loc 1 263 3 is_stmt 1 view .LVU9
  85 0004 074D     		ldr	r5, .L7
  86 0006 0122     		movs	r2, #1
  87 0008 0221     		movs	r1, #2
  88 000a 2846     		mov	r0, r5
  89              	.LVL5:
  90              		.loc 1 263 3 is_stmt 0 view .LVU10
  91 000c FFF7FEFF 		bl	HAL_GPIO_WritePin
  92              	.LVL6:
 264:Core/Src/main.c ****   HAL_Delay(time);
  93              		.loc 1 264 3 is_stmt 1 view .LVU11
  94 0010 2046     		mov	r0, r4
  95 0012 FFF7FEFF 		bl	HAL_Delay
  96              	.LVL7:
 265:Core/Src/main.c ****   HAL_GPIO_WritePin(BUZZER_GPIO_Port, BUZZER_Pin, GPIO_PIN_RESET);
  97              		.loc 1 265 3 view .LVU12
  98 0016 0022     		movs	r2, #0
  99 0018 0221     		movs	r1, #2
 100 001a 2846     		mov	r0, r5
 101 001c FFF7FEFF 		bl	HAL_GPIO_WritePin
 102              	.LVL8:
 266:Core/Src/main.c **** }
 103              		.loc 1 266 1 is_stmt 0 view .LVU13
 104 0020 38BD     		pop	{r3, r4, r5, pc}
 105              	.LVL9:
 106              	.L8:
 107              		.loc 1 266 1 view .LVU14
 108 0022 00BF     		.align	2
 109              	.L7:
 110 0024 00080140 		.word	1073809408
 111              		.cfi_endproc
 112              	.LFE69:
 114              		.section	.text.set_timer,"ax",%progbits
 115              		.align	1
 116              		.global	set_timer
 117              		.syntax unified
 118              		.thumb
 119              		.thumb_func
 121              	set_timer:
 122              	.LVL10:
 123              	.LFB71:
 267:Core/Src/main.c **** 
 268:Core/Src/main.c **** void set_alarm(int intervalHour)
 269:Core/Src/main.c **** {
 270:Core/Src/main.c ****   RTC_AlarmTypeDef sAlarm = {0};
 271:Core/Src/main.c ****   sAlarm.AlarmTime.Hours = current_sTime.Hours + intervalHour;
 272:Core/Src/main.c ****   sAlarm.AlarmTime.Minutes = current_sTime.Minutes;
 273:Core/Src/main.c ****   sAlarm.AlarmTime.Seconds = current_sTime.Seconds;
 274:Core/Src/main.c ****   sAlarm.Alarm = RTC_ALARM_A;
 275:Core/Src/main.c ****   if (HAL_RTC_SetAlarm_IT(&hrtc, &sAlarm, RTC_FORMAT_BIN) != HAL_OK)
 276:Core/Src/main.c ****   {
 277:Core/Src/main.c ****     Error_Handler();
 278:Core/Src/main.c ****   }
 279:Core/Src/main.c **** }
 280:Core/Src/main.c **** 
 281:Core/Src/main.c **** void set_timer(long time)
ARM GAS  C:\Users\Admin\AppData\Local\Temp\ccE7ElAa.s 			page 8


 282:Core/Src/main.c **** {
 124              		.loc 1 282 1 is_stmt 1 view -0
 125              		.cfi_startproc
 126              		@ args = 0, pretend = 0, frame = 0
 127              		@ frame_needed = 0, uses_anonymous_args = 0
 128              		@ link register save eliminated.
 283:Core/Src/main.c ****   TIM3->CNT = 60000 - time * 10;
 129              		.loc 1 283 3 view .LVU16
 130              		.loc 1 283 21 is_stmt 0 view .LVU17
 131 0000 6FF00902 		mvn	r2, #9
 132 0004 4EF66023 		movw	r3, #60000
 133 0008 02FB0033 		mla	r3, r2, r0, r3
 134              		.loc 1 283 13 view .LVU18
 135 000c 014A     		ldr	r2, .L10
 136 000e 5362     		str	r3, [r2, #36]
 284:Core/Src/main.c **** }
 137              		.loc 1 284 1 view .LVU19
 138 0010 7047     		bx	lr
 139              	.L11:
 140 0012 00BF     		.align	2
 141              	.L10:
 142 0014 00040040 		.word	1073742848
 143              		.cfi_endproc
 144              	.LFE71:
 146              		.section	.rodata.HAL_RTC_AlarmAEventCallback.str1.4,"aMS",%progbits,1
 147              		.align	2
 148              	.LC0:
 149 0000 4C616920 		.ascii	"Lai xe qua thoi gian cho phep, xin dung lai\000"
 149      78652071 
 149      75612074 
 149      686F6920 
 149      6769616E 
 150              		.section	.text.HAL_RTC_AlarmAEventCallback,"ax",%progbits
 151              		.align	1
 152              		.global	HAL_RTC_AlarmAEventCallback
 153              		.syntax unified
 154              		.thumb
 155              		.thumb_func
 157              	HAL_RTC_AlarmAEventCallback:
 158              	.LVL11:
 159              	.LFB72:
 285:Core/Src/main.c **** 
 286:Core/Src/main.c **** void HAL_RTC_AlarmAEventCallback(RTC_HandleTypeDef *hrtc)
 287:Core/Src/main.c **** {
 160              		.loc 1 287 1 is_stmt 1 view -0
 161              		.cfi_startproc
 162              		@ args = 0, pretend = 0, frame = 0
 163              		@ frame_needed = 0, uses_anonymous_args = 0
 164              		.loc 1 287 1 is_stmt 0 view .LVU21
 165 0000 08B5     		push	{r3, lr}
 166              	.LCFI2:
 167              		.cfi_def_cfa_offset 8
 168              		.cfi_offset 3, -8
 169              		.cfi_offset 14, -4
 288:Core/Src/main.c ****   // warning and SMS
 289:Core/Src/main.c ****   buzzer(5000);
 170              		.loc 1 289 3 is_stmt 1 view .LVU22
ARM GAS  C:\Users\Admin\AppData\Local\Temp\ccE7ElAa.s 			page 9


 171 0002 41F28830 		movw	r0, #5000
 172              	.LVL12:
 173              		.loc 1 289 3 is_stmt 0 view .LVU23
 174 0006 FFF7FEFF 		bl	buzzer
 175              	.LVL13:
 290:Core/Src/main.c ****   sim7672_sendSMS(infoUser.phoneNum, "Lai xe qua thoi gian cho phep, xin dung lai");
 176              		.loc 1 290 3 is_stmt 1 view .LVU24
 177 000a 0249     		ldr	r1, .L14
 178 000c 0248     		ldr	r0, .L14+4
 179 000e FFF7FEFF 		bl	sim7672_sendSMS
 180              	.LVL14:
 291:Core/Src/main.c **** }
 181              		.loc 1 291 1 is_stmt 0 view .LVU25
 182 0012 08BD     		pop	{r3, pc}
 183              	.L15:
 184              		.align	2
 185              	.L14:
 186 0014 00000000 		.word	.LC0
 187 0018 32000000 		.word	.LANCHOR0+50
 188              		.cfi_endproc
 189              	.LFE72:
 191              		.section	.rodata.HAL_UART_RxCpltCallback.str1.4,"aMS",%progbits,1
 192              		.align	2
 193              	.LC1:
 194 0000 54726963 		.ascii	"Trichxuatdulieu\000"
 194      68787561 
 194      7464756C 
 194      69657500 
 195              		.align	2
 196              	.LC2:
 197 0010 4F4B00   		.ascii	"OK\000"
 198              		.section	.text.HAL_UART_RxCpltCallback,"ax",%progbits
 199              		.align	1
 200              		.global	HAL_UART_RxCpltCallback
 201              		.syntax unified
 202              		.thumb
 203              		.thumb_func
 205              	HAL_UART_RxCpltCallback:
 206              	.LVL15:
 207              	.LFB73:
 292:Core/Src/main.c **** 
 293:Core/Src/main.c **** void HAL_UART_RxCpltCallback(UART_HandleTypeDef *huart)
 294:Core/Src/main.c **** {
 208              		.loc 1 294 1 is_stmt 1 view -0
 209              		.cfi_startproc
 210              		@ args = 0, pretend = 0, frame = 0
 211              		@ frame_needed = 0, uses_anonymous_args = 0
 212              		.loc 1 294 1 is_stmt 0 view .LVU27
 213 0000 10B5     		push	{r4, lr}
 214              	.LCFI3:
 215              		.cfi_def_cfa_offset 8
 216              		.cfi_offset 4, -8
 217              		.cfi_offset 14, -4
 218 0002 0446     		mov	r4, r0
 295:Core/Src/main.c ****   // for SIM
 296:Core/Src/main.c ****   if (huart == &huart1)
 219              		.loc 1 296 3 is_stmt 1 view .LVU28
ARM GAS  C:\Users\Admin\AppData\Local\Temp\ccE7ElAa.s 			page 10


 220              		.loc 1 296 6 is_stmt 0 view .LVU29
 221 0004 164B     		ldr	r3, .L25
 222 0006 9842     		cmp	r0, r3
 223 0008 06D0     		beq	.L22
 224              	.LVL16:
 225              	.L17:
 297:Core/Src/main.c ****   {
 298:Core/Src/main.c ****     sim7672_callback();
 299:Core/Src/main.c ****   }
 300:Core/Src/main.c ****   // for GPS
 301:Core/Src/main.c ****   if (huart == &huart4)
 226              		.loc 1 301 3 is_stmt 1 view .LVU30
 227              		.loc 1 301 6 is_stmt 0 view .LVU31
 228 000a 164B     		ldr	r3, .L25+4
 229 000c 9C42     		cmp	r4, r3
 230 000e 06D0     		beq	.L23
 231              	.L18:
 302:Core/Src/main.c ****   {
 303:Core/Src/main.c ****     l70_callback();
 304:Core/Src/main.c ****   }
 305:Core/Src/main.c ****   // for RS232
 306:Core/Src/main.c ****   if (huart == &huart2)
 232              		.loc 1 306 3 is_stmt 1 view .LVU32
 233              		.loc 1 306 6 is_stmt 0 view .LVU33
 234 0010 154B     		ldr	r3, .L25+8
 235 0012 9C42     		cmp	r4, r3
 236 0014 06D0     		beq	.L24
 237              	.L16:
 307:Core/Src/main.c ****   {
 308:Core/Src/main.c ****     Type_Task = Task_LogoutOrRS232;
 309:Core/Src/main.c ****     rs232_buff[rs232_index] = rs232_data;
 310:Core/Src/main.c ****     if (strstr(rs232_buff, "Trichxuatdulieu") != NULL)
 311:Core/Src/main.c ****     {
 312:Core/Src/main.c ****       rs232_logdata("OK");
 313:Core/Src/main.c ****       rs232_flag = true;
 314:Core/Src/main.c ****     }
 315:Core/Src/main.c ****     rs232_index++;
 316:Core/Src/main.c ****     HAL_UART_Receive_IT(&huart2, (uint8_t *)&rs232_data, 1);
 317:Core/Src/main.c ****   }
 318:Core/Src/main.c **** }
 238              		.loc 1 318 1 view .LVU34
 239 0016 10BD     		pop	{r4, pc}
 240              	.LVL17:
 241              	.L22:
 298:Core/Src/main.c ****   }
 242              		.loc 1 298 5 is_stmt 1 view .LVU35
 243 0018 FFF7FEFF 		bl	sim7672_callback
 244              	.LVL18:
 298:Core/Src/main.c ****   }
 245              		.loc 1 298 5 is_stmt 0 view .LVU36
 246 001c F5E7     		b	.L17
 247              	.L23:
 303:Core/Src/main.c ****   }
 248              		.loc 1 303 5 is_stmt 1 view .LVU37
 249 001e FFF7FEFF 		bl	l70_callback
 250              	.LVL19:
 251 0022 F5E7     		b	.L18
ARM GAS  C:\Users\Admin\AppData\Local\Temp\ccE7ElAa.s 			page 11


 252              	.L24:
 308:Core/Src/main.c ****     rs232_buff[rs232_index] = rs232_data;
 253              		.loc 1 308 5 view .LVU38
 308:Core/Src/main.c ****     rs232_buff[rs232_index] = rs232_data;
 254              		.loc 1 308 15 is_stmt 0 view .LVU39
 255 0024 114B     		ldr	r3, .L25+12
 256 0026 0522     		movs	r2, #5
 257 0028 1A60     		str	r2, [r3]
 309:Core/Src/main.c ****     if (strstr(rs232_buff, "Trichxuatdulieu") != NULL)
 258              		.loc 1 309 5 is_stmt 1 view .LVU40
 309:Core/Src/main.c ****     if (strstr(rs232_buff, "Trichxuatdulieu") != NULL)
 259              		.loc 1 309 15 is_stmt 0 view .LVU41
 260 002a 114B     		ldr	r3, .L25+16
 261 002c 1B68     		ldr	r3, [r3]
 309:Core/Src/main.c ****     if (strstr(rs232_buff, "Trichxuatdulieu") != NULL)
 262              		.loc 1 309 29 view .LVU42
 263 002e 1148     		ldr	r0, .L25+20
 264 0030 114A     		ldr	r2, .L25+24
 265 0032 1278     		ldrb	r2, [r2]	@ zero_extendqisi2
 266 0034 C254     		strb	r2, [r0, r3]
 310:Core/Src/main.c ****     {
 267              		.loc 1 310 5 is_stmt 1 view .LVU43
 310:Core/Src/main.c ****     {
 268              		.loc 1 310 9 is_stmt 0 view .LVU44
 269 0036 1149     		ldr	r1, .L25+28
 270 0038 FFF7FEFF 		bl	strstr
 271              	.LVL20:
 310:Core/Src/main.c ****     {
 272              		.loc 1 310 8 view .LVU45
 273 003c 28B1     		cbz	r0, .L20
 312:Core/Src/main.c ****       rs232_flag = true;
 274              		.loc 1 312 7 is_stmt 1 view .LVU46
 275 003e 1048     		ldr	r0, .L25+32
 276 0040 FFF7FEFF 		bl	rs232_logdata
 277              	.LVL21:
 313:Core/Src/main.c ****     }
 278              		.loc 1 313 7 view .LVU47
 313:Core/Src/main.c ****     }
 279              		.loc 1 313 18 is_stmt 0 view .LVU48
 280 0044 0F4B     		ldr	r3, .L25+36
 281 0046 0122     		movs	r2, #1
 282 0048 1A70     		strb	r2, [r3]
 283              	.L20:
 315:Core/Src/main.c ****     HAL_UART_Receive_IT(&huart2, (uint8_t *)&rs232_data, 1);
 284              		.loc 1 315 5 is_stmt 1 view .LVU49
 315:Core/Src/main.c ****     HAL_UART_Receive_IT(&huart2, (uint8_t *)&rs232_data, 1);
 285              		.loc 1 315 16 is_stmt 0 view .LVU50
 286 004a 094A     		ldr	r2, .L25+16
 287 004c 1368     		ldr	r3, [r2]
 288 004e 0133     		adds	r3, r3, #1
 289 0050 1360     		str	r3, [r2]
 316:Core/Src/main.c ****   }
 290              		.loc 1 316 5 is_stmt 1 view .LVU51
 291 0052 0122     		movs	r2, #1
 292 0054 0849     		ldr	r1, .L25+24
 293 0056 0448     		ldr	r0, .L25+8
 294 0058 FFF7FEFF 		bl	HAL_UART_Receive_IT
ARM GAS  C:\Users\Admin\AppData\Local\Temp\ccE7ElAa.s 			page 12


 295              	.LVL22:
 296              		.loc 1 318 1 is_stmt 0 view .LVU52
 297 005c DBE7     		b	.L16
 298              	.L26:
 299 005e 00BF     		.align	2
 300              	.L25:
 301 0060 00000000 		.word	huart1
 302 0064 00000000 		.word	huart4
 303 0068 00000000 		.word	huart2
 304 006c 00000000 		.word	.LANCHOR1
 305 0070 00000000 		.word	.LANCHOR2
 306 0074 00000000 		.word	.LANCHOR3
 307 0078 00000000 		.word	.LANCHOR4
 308 007c 00000000 		.word	.LC1
 309 0080 10000000 		.word	.LC2
 310 0084 00000000 		.word	.LANCHOR5
 311              		.cfi_endproc
 312              	.LFE73:
 314              		.global	__aeabi_ui2f
 315              		.global	__aeabi_fsub
 316              		.global	__aeabi_fdiv
 317              		.section	.text.HAL_GPIO_EXTI_Callback,"ax",%progbits
 318              		.align	1
 319              		.global	HAL_GPIO_EXTI_Callback
 320              		.syntax unified
 321              		.thumb
 322              		.thumb_func
 324              	HAL_GPIO_EXTI_Callback:
 325              	.LVL23:
 326              	.LFB74:
 319:Core/Src/main.c **** 
 320:Core/Src/main.c **** void HAL_GPIO_EXTI_Callback(uint16_t GPIO_Pin)
 321:Core/Src/main.c **** {
 327              		.loc 1 321 1 is_stmt 1 view -0
 328              		.cfi_startproc
 329              		@ args = 0, pretend = 0, frame = 0
 330              		@ frame_needed = 0, uses_anonymous_args = 0
 331              		.loc 1 321 1 is_stmt 0 view .LVU54
 332 0000 10B5     		push	{r4, lr}
 333              	.LCFI4:
 334              		.cfi_def_cfa_offset 8
 335              		.cfi_offset 4, -8
 336              		.cfi_offset 14, -4
 322:Core/Src/main.c ****   // reset timer 2
 323:Core/Src/main.c ****   HAL_TIM_Base_Stop(&htim2);
 337              		.loc 1 323 3 is_stmt 1 view .LVU55
 338 0002 1348     		ldr	r0, .L31
 339              	.LVL24:
 340              		.loc 1 323 3 is_stmt 0 view .LVU56
 341 0004 FFF7FEFF 		bl	HAL_TIM_Base_Stop
 342              	.LVL25:
 324:Core/Src/main.c ****   TIM2->CNT = 0;
 343              		.loc 1 324 3 is_stmt 1 view .LVU57
 344              		.loc 1 324 13 is_stmt 0 view .LVU58
 345 0008 0024     		movs	r4, #0
 346 000a 4FF08043 		mov	r3, #1073741824
 347 000e 5C62     		str	r4, [r3, #36]
ARM GAS  C:\Users\Admin\AppData\Local\Temp\ccE7ElAa.s 			page 13


 325:Core/Src/main.c **** 
 326:Core/Src/main.c ****   current_time = HAL_GetTick();
 348              		.loc 1 326 3 is_stmt 1 view .LVU59
 349              		.loc 1 326 18 is_stmt 0 view .LVU60
 350 0010 FFF7FEFF 		bl	HAL_GetTick
 351              	.LVL26:
 352              		.loc 1 326 16 view .LVU61
 353 0014 FFF7FEFF 		bl	__aeabi_ui2f
 354              	.LVL27:
 355 0018 0E4B     		ldr	r3, .L31+4
 356 001a 1860     		str	r0, [r3]	@ float
 327:Core/Src/main.c **** 
 328:Core/Src/main.c ****   npn_flag_check = CHANGE;
 357              		.loc 1 328 3 is_stmt 1 view .LVU62
 358              		.loc 1 328 18 is_stmt 0 view .LVU63
 359 001c 0E4B     		ldr	r3, .L31+8
 360 001e 1C60     		str	r4, [r3]
 329:Core/Src/main.c ****   Vehical_State = Move;
 361              		.loc 1 329 3 is_stmt 1 view .LVU64
 362              		.loc 1 329 17 is_stmt 0 view .LVU65
 363 0020 0E4B     		ldr	r3, .L31+12
 364 0022 0122     		movs	r2, #1
 365 0024 1A60     		str	r2, [r3]
 330:Core/Src/main.c ****   npn_count++;
 366              		.loc 1 330 3 is_stmt 1 view .LVU66
 367              		.loc 1 330 12 is_stmt 0 view .LVU67
 368 0026 0E4A     		ldr	r2, .L31+16
 369 0028 1368     		ldr	r3, [r2]
 370 002a 0133     		adds	r3, r3, #1
 371 002c 1360     		str	r3, [r2]
 331:Core/Src/main.c ****   if (npn_count == 20)
 372              		.loc 1 331 3 is_stmt 1 view .LVU68
 373              		.loc 1 331 6 is_stmt 0 view .LVU69
 374 002e 142B     		cmp	r3, #20
 375 0030 03D0     		beq	.L30
 376              	.L28:
 332:Core/Src/main.c ****   {
 333:Core/Src/main.c ****     float time_cycle = current_time - last_time;
 334:Core/Src/main.c ****     Vehical_veloc = (1.0 * 3000) / (time_cycle);
 335:Core/Src/main.c ****     // tinh toan van toc
 336:Core/Src/main.c ****   }
 337:Core/Src/main.c ****   // start timer2
 338:Core/Src/main.c ****   HAL_TIM_Base_Start_IT(&htim2);
 377              		.loc 1 338 3 is_stmt 1 view .LVU70
 378 0032 0748     		ldr	r0, .L31
 379 0034 FFF7FEFF 		bl	HAL_TIM_Base_Start_IT
 380              	.LVL28:
 339:Core/Src/main.c **** }
 381              		.loc 1 339 1 is_stmt 0 view .LVU71
 382 0038 10BD     		pop	{r4, pc}
 383              	.L30:
 384              	.LBB4:
 333:Core/Src/main.c ****     Vehical_veloc = (1.0 * 3000) / (time_cycle);
 385              		.loc 1 333 5 is_stmt 1 view .LVU72
 333:Core/Src/main.c ****     Vehical_veloc = (1.0 * 3000) / (time_cycle);
 386              		.loc 1 333 11 is_stmt 0 view .LVU73
 387 003a 0A4B     		ldr	r3, .L31+20
ARM GAS  C:\Users\Admin\AppData\Local\Temp\ccE7ElAa.s 			page 14


 388 003c 1968     		ldr	r1, [r3]	@ float
 389 003e FFF7FEFF 		bl	__aeabi_fsub
 390              	.LVL29:
 391 0042 0146     		mov	r1, r0
 392              	.LVL30:
 334:Core/Src/main.c ****     // tinh toan van toc
 393              		.loc 1 334 5 is_stmt 1 view .LVU74
 334:Core/Src/main.c ****     // tinh toan van toc
 394              		.loc 1 334 34 is_stmt 0 view .LVU75
 395 0044 0848     		ldr	r0, .L31+24
 396              	.LVL31:
 334:Core/Src/main.c ****     // tinh toan van toc
 397              		.loc 1 334 34 view .LVU76
 398 0046 FFF7FEFF 		bl	__aeabi_fdiv
 399              	.LVL32:
 334:Core/Src/main.c ****     // tinh toan van toc
 400              		.loc 1 334 19 view .LVU77
 401 004a 084B     		ldr	r3, .L31+28
 402 004c 1860     		str	r0, [r3]	@ float
 403 004e F0E7     		b	.L28
 404              	.L32:
 405              		.align	2
 406              	.L31:
 407 0050 00000000 		.word	htim2
 408 0054 00000000 		.word	.LANCHOR6
 409 0058 00000000 		.word	.LANCHOR7
 410 005c 00000000 		.word	.LANCHOR8
 411 0060 00000000 		.word	.LANCHOR9
 412 0064 00000000 		.word	.LANCHOR10
 413 0068 00803B45 		.word	1161527296
 414 006c 00000000 		.word	.LANCHOR11
 415              	.LBE4:
 416              		.cfi_endproc
 417              	.LFE74:
 419              		.section	.text.HAL_TIM_PeriodElapsedCallback,"ax",%progbits
 420              		.align	1
 421              		.global	HAL_TIM_PeriodElapsedCallback
 422              		.syntax unified
 423              		.thumb
 424              		.thumb_func
 426              	HAL_TIM_PeriodElapsedCallback:
 427              	.LVL33:
 428              	.LFB75:
 340:Core/Src/main.c **** 
 341:Core/Src/main.c **** void HAL_TIM_PeriodElapsedCallback(TIM_HandleTypeDef *htim)
 342:Core/Src/main.c **** {
 429              		.loc 1 342 1 is_stmt 1 view -0
 430              		.cfi_startproc
 431              		@ args = 0, pretend = 0, frame = 0
 432              		@ frame_needed = 0, uses_anonymous_args = 0
 433              		.loc 1 342 1 is_stmt 0 view .LVU79
 434 0000 10B5     		push	{r4, lr}
 435              	.LCFI5:
 436              		.cfi_def_cfa_offset 8
 437              		.cfi_offset 4, -8
 438              		.cfi_offset 14, -4
 439 0002 0446     		mov	r4, r0
ARM GAS  C:\Users\Admin\AppData\Local\Temp\ccE7ElAa.s 			page 15


 343:Core/Src/main.c ****   if (htim == &htim2)
 440              		.loc 1 343 3 is_stmt 1 view .LVU80
 441              		.loc 1 343 6 is_stmt 0 view .LVU81
 442 0004 2F4B     		ldr	r3, .L47
 443 0006 9842     		cmp	r0, r3
 444 0008 03D0     		beq	.L41
 445              	.LVL34:
 446              	.L34:
 344:Core/Src/main.c ****   {
 345:Core/Src/main.c ****     if (rc522_check(CardID) == RC522_OK && waiting4LogOut == true)
 346:Core/Src/main.c ****     {
 347:Core/Src/main.c ****       waiting4LogOut = false;
 348:Core/Src/main.c ****       Type_Task = Task_LogoutOrRS232;
 349:Core/Src/main.c ****       Logout = true;
 350:Core/Src/main.c ****     }
 351:Core/Src/main.c ****   }
 352:Core/Src/main.c ****   if (htim == &htim3)
 447              		.loc 1 352 3 is_stmt 1 view .LVU82
 448              		.loc 1 352 6 is_stmt 0 view .LVU83
 449 000a 2F4B     		ldr	r3, .L47+4
 450 000c 9C42     		cmp	r4, r3
 451 000e 13D0     		beq	.L42
 452              	.L33:
 353:Core/Src/main.c ****   {
 354:Core/Src/main.c ****     if (Type_Task == Task_Sensors)
 355:Core/Src/main.c ****     {
 356:Core/Src/main.c ****       Taskperform.TaskSensors = false;
 357:Core/Src/main.c ****       Type_Task = Task_GNSS;
 358:Core/Src/main.c ****       set_timer(200);
 359:Core/Src/main.c ****       return;
 360:Core/Src/main.c ****     }
 361:Core/Src/main.c ****     if (Type_Task == Task_GNSS)
 362:Core/Src/main.c ****     {
 363:Core/Src/main.c ****       Taskperform.TaskGNSS = false;
 364:Core/Src/main.c ****       Type_Task = Task_SIM;
 365:Core/Src/main.c ****       set_timer(1200);
 366:Core/Src/main.c ****       return;
 367:Core/Src/main.c ****     }
 368:Core/Src/main.c ****     if (Type_Task == Task_SIM)
 369:Core/Src/main.c ****     {
 370:Core/Src/main.c ****       Taskperform.TaskSIM = false;
 371:Core/Src/main.c ****       Type_Task = Task_Store;
 372:Core/Src/main.c ****       set_timer(200);
 373:Core/Src/main.c ****       return;
 374:Core/Src/main.c ****     }
 375:Core/Src/main.c ****     if (Type_Task == Task_Store)
 376:Core/Src/main.c ****     {
 377:Core/Src/main.c ****       Taskperform.TaskStore = false;
 378:Core/Src/main.c ****       Type_Task = Task_Display;
 379:Core/Src/main.c ****       set_timer(200);
 380:Core/Src/main.c ****       return;
 381:Core/Src/main.c ****     }
 382:Core/Src/main.c ****     if (Type_Task == Task_Display)
 383:Core/Src/main.c ****     {
 384:Core/Src/main.c ****       Taskperform.TaskDisplay = false;
 385:Core/Src/main.c ****       Type_Task = Task_Sensors;
 386:Core/Src/main.c ****       set_timer(100);
ARM GAS  C:\Users\Admin\AppData\Local\Temp\ccE7ElAa.s 			page 16


 387:Core/Src/main.c ****       return;
 388:Core/Src/main.c ****     }
 389:Core/Src/main.c ****   }
 390:Core/Src/main.c **** }
 453              		.loc 1 390 1 view .LVU84
 454 0010 10BD     		pop	{r4, pc}
 455              	.LVL35:
 456              	.L41:
 345:Core/Src/main.c ****     {
 457              		.loc 1 345 5 is_stmt 1 view .LVU85
 345:Core/Src/main.c ****     {
 458              		.loc 1 345 9 is_stmt 0 view .LVU86
 459 0012 2E48     		ldr	r0, .L47+8
 460              	.LVL36:
 345:Core/Src/main.c ****     {
 461              		.loc 1 345 9 view .LVU87
 462 0014 FFF7FEFF 		bl	rc522_check
 463              	.LVL37:
 345:Core/Src/main.c ****     {
 464              		.loc 1 345 8 view .LVU88
 465 0018 0028     		cmp	r0, #0
 466 001a F6D1     		bne	.L34
 345:Core/Src/main.c ****     {
 467              		.loc 1 345 59 discriminator 1 view .LVU89
 468 001c 2C4B     		ldr	r3, .L47+12
 469 001e 1B78     		ldrb	r3, [r3]	@ zero_extendqisi2
 345:Core/Src/main.c ****     {
 470              		.loc 1 345 41 discriminator 1 view .LVU90
 471 0020 002B     		cmp	r3, #0
 472 0022 F2D0     		beq	.L34
 347:Core/Src/main.c ****       Type_Task = Task_LogoutOrRS232;
 473              		.loc 1 347 7 is_stmt 1 view .LVU91
 347:Core/Src/main.c ****       Type_Task = Task_LogoutOrRS232;
 474              		.loc 1 347 22 is_stmt 0 view .LVU92
 475 0024 2A4B     		ldr	r3, .L47+12
 476 0026 0022     		movs	r2, #0
 477 0028 1A70     		strb	r2, [r3]
 348:Core/Src/main.c ****       Logout = true;
 478              		.loc 1 348 7 is_stmt 1 view .LVU93
 348:Core/Src/main.c ****       Logout = true;
 479              		.loc 1 348 17 is_stmt 0 view .LVU94
 480 002a 2A4B     		ldr	r3, .L47+16
 481 002c 0522     		movs	r2, #5
 482 002e 1A60     		str	r2, [r3]
 349:Core/Src/main.c ****     }
 483              		.loc 1 349 7 is_stmt 1 view .LVU95
 349:Core/Src/main.c ****     }
 484              		.loc 1 349 14 is_stmt 0 view .LVU96
 485 0030 294B     		ldr	r3, .L47+20
 486 0032 0122     		movs	r2, #1
 487 0034 1A70     		strb	r2, [r3]
 488 0036 E8E7     		b	.L34
 489              	.L42:
 354:Core/Src/main.c ****     {
 490              		.loc 1 354 5 is_stmt 1 view .LVU97
 354:Core/Src/main.c ****     {
 491              		.loc 1 354 19 is_stmt 0 view .LVU98
ARM GAS  C:\Users\Admin\AppData\Local\Temp\ccE7ElAa.s 			page 17


 492 0038 264B     		ldr	r3, .L47+16
 493 003a 1B68     		ldr	r3, [r3]
 354:Core/Src/main.c ****     {
 494              		.loc 1 354 8 view .LVU99
 495 003c C3B1     		cbz	r3, .L43
 361:Core/Src/main.c ****     {
 496              		.loc 1 361 5 is_stmt 1 view .LVU100
 361:Core/Src/main.c ****     {
 497              		.loc 1 361 19 is_stmt 0 view .LVU101
 498 003e 254B     		ldr	r3, .L47+16
 499 0040 1B68     		ldr	r3, [r3]
 361:Core/Src/main.c ****     {
 500              		.loc 1 361 8 view .LVU102
 501 0042 012B     		cmp	r3, #1
 502 0044 1ED0     		beq	.L44
 368:Core/Src/main.c ****     {
 503              		.loc 1 368 5 is_stmt 1 view .LVU103
 368:Core/Src/main.c ****     {
 504              		.loc 1 368 19 is_stmt 0 view .LVU104
 505 0046 234B     		ldr	r3, .L47+16
 506 0048 1B68     		ldr	r3, [r3]
 368:Core/Src/main.c ****     {
 507              		.loc 1 368 8 view .LVU105
 508 004a 022B     		cmp	r3, #2
 509 004c 25D0     		beq	.L45
 375:Core/Src/main.c ****     {
 510              		.loc 1 375 5 is_stmt 1 view .LVU106
 375:Core/Src/main.c ****     {
 511              		.loc 1 375 19 is_stmt 0 view .LVU107
 512 004e 214B     		ldr	r3, .L47+16
 513 0050 1B68     		ldr	r3, [r3]
 375:Core/Src/main.c ****     {
 514              		.loc 1 375 8 view .LVU108
 515 0052 032B     		cmp	r3, #3
 516 0054 2BD0     		beq	.L46
 382:Core/Src/main.c ****     {
 517              		.loc 1 382 5 is_stmt 1 view .LVU109
 382:Core/Src/main.c ****     {
 518              		.loc 1 382 19 is_stmt 0 view .LVU110
 519 0056 1F4B     		ldr	r3, .L47+16
 520 0058 1B68     		ldr	r3, [r3]
 382:Core/Src/main.c ****     {
 521              		.loc 1 382 8 view .LVU111
 522 005a 042B     		cmp	r3, #4
 523 005c D8D1     		bne	.L33
 384:Core/Src/main.c ****       Type_Task = Task_Sensors;
 524              		.loc 1 384 7 is_stmt 1 view .LVU112
 384:Core/Src/main.c ****       Type_Task = Task_Sensors;
 525              		.loc 1 384 31 is_stmt 0 view .LVU113
 526 005e 0023     		movs	r3, #0
 527 0060 1E4A     		ldr	r2, .L47+24
 528 0062 1371     		strb	r3, [r2, #4]
 385:Core/Src/main.c ****       set_timer(100);
 529              		.loc 1 385 7 is_stmt 1 view .LVU114
 385:Core/Src/main.c ****       set_timer(100);
 530              		.loc 1 385 17 is_stmt 0 view .LVU115
 531 0064 1B4A     		ldr	r2, .L47+16
ARM GAS  C:\Users\Admin\AppData\Local\Temp\ccE7ElAa.s 			page 18


 532 0066 1360     		str	r3, [r2]
 386:Core/Src/main.c ****       return;
 533              		.loc 1 386 7 is_stmt 1 view .LVU116
 534 0068 6420     		movs	r0, #100
 535 006a FFF7FEFF 		bl	set_timer
 536              	.LVL38:
 387:Core/Src/main.c ****     }
 537              		.loc 1 387 7 view .LVU117
 538 006e CFE7     		b	.L33
 539              	.L43:
 356:Core/Src/main.c ****       Type_Task = Task_GNSS;
 540              		.loc 1 356 7 view .LVU118
 356:Core/Src/main.c ****       Type_Task = Task_GNSS;
 541              		.loc 1 356 31 is_stmt 0 view .LVU119
 542 0070 1A4B     		ldr	r3, .L47+24
 543 0072 0022     		movs	r2, #0
 544 0074 1A70     		strb	r2, [r3]
 357:Core/Src/main.c ****       set_timer(200);
 545              		.loc 1 357 7 is_stmt 1 view .LVU120
 357:Core/Src/main.c ****       set_timer(200);
 546              		.loc 1 357 17 is_stmt 0 view .LVU121
 547 0076 174B     		ldr	r3, .L47+16
 548 0078 0122     		movs	r2, #1
 549 007a 1A60     		str	r2, [r3]
 358:Core/Src/main.c ****       return;
 550              		.loc 1 358 7 is_stmt 1 view .LVU122
 551 007c C820     		movs	r0, #200
 552 007e FFF7FEFF 		bl	set_timer
 553              	.LVL39:
 359:Core/Src/main.c ****     }
 554              		.loc 1 359 7 view .LVU123
 555 0082 C5E7     		b	.L33
 556              	.L44:
 363:Core/Src/main.c ****       Type_Task = Task_SIM;
 557              		.loc 1 363 7 view .LVU124
 363:Core/Src/main.c ****       Type_Task = Task_SIM;
 558              		.loc 1 363 28 is_stmt 0 view .LVU125
 559 0084 154B     		ldr	r3, .L47+24
 560 0086 0022     		movs	r2, #0
 561 0088 5A70     		strb	r2, [r3, #1]
 364:Core/Src/main.c ****       set_timer(1200);
 562              		.loc 1 364 7 is_stmt 1 view .LVU126
 364:Core/Src/main.c ****       set_timer(1200);
 563              		.loc 1 364 17 is_stmt 0 view .LVU127
 564 008a 124B     		ldr	r3, .L47+16
 565 008c 0222     		movs	r2, #2
 566 008e 1A60     		str	r2, [r3]
 365:Core/Src/main.c ****       return;
 567              		.loc 1 365 7 is_stmt 1 view .LVU128
 568 0090 4FF49660 		mov	r0, #1200
 569 0094 FFF7FEFF 		bl	set_timer
 570              	.LVL40:
 366:Core/Src/main.c ****     }
 571              		.loc 1 366 7 view .LVU129
 572 0098 BAE7     		b	.L33
 573              	.L45:
 370:Core/Src/main.c ****       Type_Task = Task_Store;
ARM GAS  C:\Users\Admin\AppData\Local\Temp\ccE7ElAa.s 			page 19


 574              		.loc 1 370 7 view .LVU130
 370:Core/Src/main.c ****       Type_Task = Task_Store;
 575              		.loc 1 370 27 is_stmt 0 view .LVU131
 576 009a 104B     		ldr	r3, .L47+24
 577 009c 0022     		movs	r2, #0
 578 009e 9A70     		strb	r2, [r3, #2]
 371:Core/Src/main.c ****       set_timer(200);
 579              		.loc 1 371 7 is_stmt 1 view .LVU132
 371:Core/Src/main.c ****       set_timer(200);
 580              		.loc 1 371 17 is_stmt 0 view .LVU133
 581 00a0 0C4B     		ldr	r3, .L47+16
 582 00a2 0322     		movs	r2, #3
 583 00a4 1A60     		str	r2, [r3]
 372:Core/Src/main.c ****       return;
 584              		.loc 1 372 7 is_stmt 1 view .LVU134
 585 00a6 C820     		movs	r0, #200
 586 00a8 FFF7FEFF 		bl	set_timer
 587              	.LVL41:
 373:Core/Src/main.c ****     }
 588              		.loc 1 373 7 view .LVU135
 589 00ac B0E7     		b	.L33
 590              	.L46:
 377:Core/Src/main.c ****       Type_Task = Task_Display;
 591              		.loc 1 377 7 view .LVU136
 377:Core/Src/main.c ****       Type_Task = Task_Display;
 592              		.loc 1 377 29 is_stmt 0 view .LVU137
 593 00ae 0B4B     		ldr	r3, .L47+24
 594 00b0 0022     		movs	r2, #0
 595 00b2 DA70     		strb	r2, [r3, #3]
 378:Core/Src/main.c ****       set_timer(200);
 596              		.loc 1 378 7 is_stmt 1 view .LVU138
 378:Core/Src/main.c ****       set_timer(200);
 597              		.loc 1 378 17 is_stmt 0 view .LVU139
 598 00b4 074B     		ldr	r3, .L47+16
 599 00b6 0422     		movs	r2, #4
 600 00b8 1A60     		str	r2, [r3]
 379:Core/Src/main.c ****       return;
 601              		.loc 1 379 7 is_stmt 1 view .LVU140
 602 00ba C820     		movs	r0, #200
 603 00bc FFF7FEFF 		bl	set_timer
 604              	.LVL42:
 380:Core/Src/main.c ****     }
 605              		.loc 1 380 7 view .LVU141
 606 00c0 A6E7     		b	.L33
 607              	.L48:
 608 00c2 00BF     		.align	2
 609              	.L47:
 610 00c4 00000000 		.word	htim2
 611 00c8 00000000 		.word	htim3
 612 00cc 00000000 		.word	.LANCHOR12
 613 00d0 00000000 		.word	.LANCHOR13
 614 00d4 00000000 		.word	.LANCHOR1
 615 00d8 00000000 		.word	.LANCHOR14
 616 00dc 00000000 		.word	.LANCHOR15
 617              		.cfi_endproc
 618              	.LFE75:
 620              		.section	.text.Error_Handler,"ax",%progbits
ARM GAS  C:\Users\Admin\AppData\Local\Temp\ccE7ElAa.s 			page 20


 621              		.align	1
 622              		.global	Error_Handler
 623              		.syntax unified
 624              		.thumb
 625              		.thumb_func
 627              	Error_Handler:
 628              	.LFB78:
 391:Core/Src/main.c **** 
 392:Core/Src/main.c **** /* USER CODE END 0 */
 393:Core/Src/main.c **** 
 394:Core/Src/main.c **** /**
 395:Core/Src/main.c ****  * @brief  The application entry point.
 396:Core/Src/main.c ****  * @retval int
 397:Core/Src/main.c ****  */
 398:Core/Src/main.c **** int main(void)
 399:Core/Src/main.c **** {
 400:Core/Src/main.c ****   /* USER CODE BEGIN 1 */
 401:Core/Src/main.c **** 
 402:Core/Src/main.c ****   /* USER CODE END 1 */
 403:Core/Src/main.c **** 
 404:Core/Src/main.c ****   /* MCU Configuration--------------------------------------------------------*/
 405:Core/Src/main.c **** 
 406:Core/Src/main.c ****   /* Reset of all peripherals, Initializes the Flash interface and the Systick. */
 407:Core/Src/main.c ****   HAL_Init();
 408:Core/Src/main.c **** 
 409:Core/Src/main.c ****   /* USER CODE BEGIN Init */
 410:Core/Src/main.c **** 
 411:Core/Src/main.c ****   /* USER CODE END Init */
 412:Core/Src/main.c **** 
 413:Core/Src/main.c ****   /* Configure the system clock */
 414:Core/Src/main.c ****   SystemClock_Config();
 415:Core/Src/main.c **** 
 416:Core/Src/main.c ****   /* USER CODE BEGIN SysInit */
 417:Core/Src/main.c **** 
 418:Core/Src/main.c ****   /* USER CODE END SysInit */
 419:Core/Src/main.c **** 
 420:Core/Src/main.c ****   /* Initialize all configured peripherals */
 421:Core/Src/main.c ****   MX_GPIO_Init();
 422:Core/Src/main.c ****   MX_ADC1_Init();
 423:Core/Src/main.c ****   MX_SPI1_Init();
 424:Core/Src/main.c ****   MX_ADC2_Init();
 425:Core/Src/main.c ****   MX_TIM1_Init();
 426:Core/Src/main.c ****   MX_UART5_Init();
 427:Core/Src/main.c ****   MX_I2C1_Init();
 428:Core/Src/main.c ****   MX_SPI2_Init();
 429:Core/Src/main.c ****   MX_SPI3_Init();
 430:Core/Src/main.c ****   MX_UART4_Init();
 431:Core/Src/main.c ****   MX_USART1_UART_Init();
 432:Core/Src/main.c ****   MX_USART2_UART_Init();
 433:Core/Src/main.c ****   MX_TIM2_Init();
 434:Core/Src/main.c ****   MX_TIM3_Init();
 435:Core/Src/main.c ****   MX_RTC_Init();
 436:Core/Src/main.c ****   MX_FATFS_Init();
 437:Core/Src/main.c ****   /* USER CODE BEGIN 2 */
 438:Core/Src/main.c ****   log_data("\nGSHT START\n");
 439:Core/Src/main.c ****   // init all
 440:Core/Src/main.c ****   rc522_init();
ARM GAS  C:\Users\Admin\AppData\Local\Temp\ccE7ElAa.s 			page 21


 441:Core/Src/main.c ****   log_data("RFID init successfull\n");
 442:Core/Src/main.c ****   HAL_Delay(10);
 443:Core/Src/main.c **** 
 444:Core/Src/main.c ****   l70_init();
 445:Core/Src/main.c ****   log_data("GNSS init successfull\n");
 446:Core/Src/main.c ****   HAL_Delay(500);
 447:Core/Src/main.c **** 
 448:Core/Src/main.c ****   // sim7672_pwrOn();
 449:Core/Src/main.c ****   // HAL_Delay(4000);
 450:Core/Src/main.c ****    sim7672_init();
 451:Core/Src/main.c ****    sim7672_check_signalStrength();
 452:Core/Src/main.c ****   //  mqtt_disconnectServer();
 453:Core/Src/main.c ****   //  HAL_Delay(100);
 454:Core/Src/main.c ****    mqtt_connectServer();
 455:Core/Src/main.c ****    HAL_Delay(100);
 456:Core/Src/main.c **** 
 457:Core/Src/main.c ****   // w25q32_init();
 458:Core/Src/main.c ****   // log_data("FLASH init successfull\n");
 459:Core/Src/main.c **** 
 460:Core/Src/main.c ****   SSD1306_Init();
 461:Core/Src/main.c **** 
 462:Core/Src/main.c ****   SSD1306_Clear();
 463:Core/Src/main.c ****   SSD1306_DrawBitmap(0, 0, bitmap, 128, 64, 1);
 464:Core/Src/main.c ****   SSD1306_GotoXY(75, 2);
 465:Core/Src/main.c ****   SSD1306_Puts("2:53", &Font_7x10, 1);
 466:Core/Src/main.c ****   SSD1306_GotoXY(30, 16);
 467:Core/Src/main.c ****   SSD1306_Puts("1/1/2023", &Font_7x10, 1);
 468:Core/Src/main.c ****   SSD1306_GotoXY(1, 28);
 469:Core/Src/main.c ****   SSD1306_Puts("Lon:            E", &Font_7x10, 1);
 470:Core/Src/main.c ****   SSD1306_GotoXY(1, 40);
 471:Core/Src/main.c ****   SSD1306_Puts("Lat:           N", &Font_7x10, 1);
 472:Core/Src/main.c ****   SSD1306_GotoXY(1, 52);
 473:Core/Src/main.c ****   SSD1306_Puts("Speed:      m/s", &Font_7x10, 1);
 474:Core/Src/main.c ****   SSD1306_UpdateScreen();
 475:Core/Src/main.c **** 
 476:Core/Src/main.c ****   fresult = f_mount(&fs, "/", 1);
 477:Core/Src/main.c ****   if (fresult != FR_OK)
 478:Core/Src/main.c ****     log_data("ERROR!!! in mounting SD CARD...\n\n");
 479:Core/Src/main.c ****   else
 480:Core/Src/main.c ****     log_data("SD CARD mounted successfully...\n\n");
 481:Core/Src/main.c ****   // Read data FLASH
 482:Core/Src/main.c ****   strcpy(stateDevice.online, "1");
 483:Core/Src/main.c ****   strcpy(stateDevice.offline, "0");
 484:Core/Src/main.c ****   strcpy(stateDevice.sleep, "0");
 485:Core/Src/main.c ****   strcpy(stateDevice.signal, "OK");
 486:Core/Src/main.c **** 
 487:Core/Src/main.c ****   strcpy(infoUser1.ID, "64C43951");
 488:Core/Src/main.c ****   strcpy(infoUser1.name, "Nguyen_Huy_Hoang");
 489:Core/Src/main.c ****   strcpy(infoUser1.phoneNum, "VIE_0987035442");
 490:Core/Src/main.c ****   strcpy(infoUser1.license, "30N-1234");
 491:Core/Src/main.c **** 
 492:Core/Src/main.c ****   strcpy(infoUser2.ID, "1243");
 493:Core/Src/main.c ****   strcpy(infoUser2.name, "Nguyen_Van_A");
 494:Core/Src/main.c ****   strcpy(infoUser2.phoneNum, "VIE_0123562571");
 495:Core/Src/main.c ****   strcpy(infoUser2.license, "30N-3611");
 496:Core/Src/main.c **** 
 497:Core/Src/main.c ****   strcpy(infoUser.deviceID, "GSHT_ID01");
ARM GAS  C:\Users\Admin\AppData\Local\Temp\ccE7ElAa.s 			page 22


 498:Core/Src/main.c ****   // READ TAG RFID
 499:Core/Src/main.c ****   while (strcmp(infoUser1.ID, Card_Startbuff) != 0 || strcmp(infoUser2.ID, Card_Startbuff) != 0)
 500:Core/Src/main.c ****   {
 501:Core/Src/main.c ****     // log_data("wait\n");
 502:Core/Src/main.c ****     if (rc522_check(CardID) == RC522_OK)
 503:Core/Src/main.c ****     {
 504:Core/Src/main.c ****       sprintf(Card_Startbuff, "%02X%02X%02X%02X", CardID[0], CardID[1], CardID[2], CardID[3]);
 505:Core/Src/main.c ****       log_data(Card_Startbuff);
 506:Core/Src/main.c ****       if (strcmp(infoUser1.ID, Card_Startbuff) == 0)
 507:Core/Src/main.c ****       {
 508:Core/Src/main.c ****         waiting4LogOut = true;
 509:Core/Src/main.c ****         strcpy(infoUser.ID, infoUser1.ID);
 510:Core/Src/main.c ****         strcpy(infoUser.name, infoUser1.name);
 511:Core/Src/main.c ****         strcpy(infoUser.phoneNum, infoUser1.phoneNum);
 512:Core/Src/main.c ****         strcpy(infoUser.license, infoUser1.license);
 513:Core/Src/main.c ****         buzzer(200);
 514:Core/Src/main.c ****         // HAL_Delay(200);
 515:Core/Src/main.c ****         // buzzer(200);
 516:Core/Src/main.c ****         log_data("ID1 TAG valid\n");
 517:Core/Src/main.c ****       }
 518:Core/Src/main.c ****       if (strcmp(infoUser2.ID, Card_Startbuff) == 0)
 519:Core/Src/main.c ****       {
 520:Core/Src/main.c ****         waiting4LogOut = true;
 521:Core/Src/main.c ****         strcpy(infoUser.ID, infoUser2.ID);
 522:Core/Src/main.c ****         strcpy(infoUser.name, infoUser2.name);
 523:Core/Src/main.c ****         strcpy(infoUser.phoneNum, infoUser2.phoneNum);
 524:Core/Src/main.c ****         strcpy(infoUser.license, infoUser2.license);
 525:Core/Src/main.c ****         buzzer(200);
 526:Core/Src/main.c ****         // HAL_Delay(200);
 527:Core/Src/main.c ****         // buzzer(200);
 528:Core/Src/main.c ****         log_data("ID2 TAG valid\n");
 529:Core/Src/main.c ****       }
 530:Core/Src/main.c ****       else
 531:Core/Src/main.c ****       {
 532:Core/Src/main.c ****         // waiting4LogOut = true;
 533:Core/Src/main.c ****         buzzer(200);
 534:Core/Src/main.c ****         HAL_Delay(200);
 535:Core/Src/main.c ****         buzzer(200);
 536:Core/Src/main.c ****         log_data("ID TAG invalid\n");
 537:Core/Src/main.c ****         break;
 538:Core/Src/main.c ****       }
 539:Core/Src/main.c ****     }
 540:Core/Src/main.c ****   }
 541:Core/Src/main.c ****   // collect time at having RFID TAG
 542:Core/Src/main.c ****   HAL_RTC_GetTime(&hrtc, &current_sTime, RTC_FORMAT_BIN);
 543:Core/Src/main.c ****   HAL_RTC_GetDate(&hrtc, &current_sDate, RTC_FORMAT_BIN);
 544:Core/Src/main.c ****   set_alarm(4);
 545:Core/Src/main.c ****   sprintf(time_buff, "%d:%d:%d", current_sTime.Hours, current_sTime.Minutes, current_sTime.Seconds)
 546:Core/Src/main.c ****   log_data(time_buff);
 547:Core/Src/main.c ****   log_data("\n");
 548:Core/Src/main.c ****   sprintf(date_buff, "%d/%d/%d", current_sDate.Date, current_sDate.Month, current_sDate.Year);
 549:Core/Src/main.c ****   log_data(date_buff);
 550:Core/Src/main.c ****   log_data("\n");
 551:Core/Src/main.c ****   HAL_RTC_GetTime(&hrtc, &last_sTime, RTC_FORMAT_BIN);
 552:Core/Src/main.c ****   HAL_RTC_GetDate(&hrtc, &last_sDate, RTC_FORMAT_BIN);
 553:Core/Src/main.c ****   totalMinute_OperateTime = (60 * last_sTime.Hours + last_sTime.Minutes) - (60 * current_sTime.Hour
 554:Core/Src/main.c ****   time_hour = totalMinute_OperateTime / 60;
ARM GAS  C:\Users\Admin\AppData\Local\Temp\ccE7ElAa.s 			page 23


 555:Core/Src/main.c ****   time_minute = totalMinute_OperateTime - time_hour * 60;
 556:Core/Src/main.c ****   sprintf(totalMinute_OperateTime_buff, "%dh%d", time_hour, time_minute);
 557:Core/Src/main.c ****   // wait for gps
 558:Core/Src/main.c ****   do
 559:Core/Src/main.c ****   {
 560:Core/Src/main.c ****     GPSResponse = l70_receiveGPS();
 561:Core/Src/main.c ****     l70_handleGPS(GPSResponse);
 562:Core/Src/main.c ****     HAL_Delay(1000);
 563:Core/Src/main.c ****   } while (strstr(l70DataAfterHadler.latitude, ".000000") != NULL && strstr(l70DataAfterHadler.long
 564:Core/Src/main.c ****   log_data("\nGSHT Start\n");
 565:Core/Src/main.c ****   // Check ID tag in Flash
 566:Core/Src/main.c **** 
 567:Core/Src/main.c ****   set_timer(500);
 568:Core/Src/main.c ****   HAL_TIM_Base_Start_IT(&htim3); // Task
 569:Core/Src/main.c ****   HAL_TIM_Base_Start(&htim1);    // Sensors
 570:Core/Src/main.c ****   HAL_TIM_Base_Start_IT(&htim2); // RFID
 571:Core/Src/main.c ****   // set_timer(1000);
 572:Core/Src/main.c ****   HAL_UART_Receive_IT(&huart2, (uint8_t *)&rs232_data, 1);
 573:Core/Src/main.c ****   /* USER CODE END 2 */
 574:Core/Src/main.c **** 
 575:Core/Src/main.c ****   /* Infinite loop */
 576:Core/Src/main.c ****   /* USER CODE BEGIN WHILE */
 577:Core/Src/main.c ****   while (1)
 578:Core/Src/main.c ****   {
 579:Core/Src/main.c ****     /* USER CODE END WHILE */
 580:Core/Src/main.c **** 
 581:Core/Src/main.c ****     /* USER CODE BEGIN 3 */
 582:Core/Src/main.c **** #if SWITCH_CASE
 583:Core/Src/main.c ****     switch (Type_Task)
 584:Core/Src/main.c ****     {
 585:Core/Src/main.c ****     case Task_Sensors:
 586:Core/Src/main.c ****       if (!Taskperform.TaskSensors)
 587:Core/Src/main.c ****       {
 588:Core/Src/main.c ****         log_data("TAKS SENSORS\n");
 589:Core/Src/main.c ****         Taskperform.TaskSensors = true;
 590:Core/Src/main.c ****         ds18_temp = (int)DS18B20_Result();
 591:Core/Src/main.c ****         // DHT11_Result(dht_temp, dht_hum);
 592:Core/Src/main.c ****         sprintf(sensors.ds18_buff, "%d", ds18_temp);
 593:Core/Src/main.c ****         // sprintf(sensors.dhtTemp_buff,"%d",(int)dht_temp);
 594:Core/Src/main.c ****         // sprintf(sensors.dhtHum_buff,"%d",(int)dht_hum);
 595:Core/Src/main.c ****         // ftoa(ds18_temp, ds18_buff, 1);
 596:Core/Src/main.c ****         //  w25q32_pageWrite(0x00000000,ds18_buff);
 597:Core/Src/main.c ****         //  ftoa(dht_temp, dhtTemp_buff, 1);
 598:Core/Src/main.c ****         //  ftoa(dht_hum, dhtHum_buff, 1);
 599:Core/Src/main.c ****         strcpy(sensors.dhtTemp_buff, "20");
 600:Core/Src/main.c ****         strcpy(sensors.dhtHum_buff, "80");
 601:Core/Src/main.c ****         // log_data("Nhiet do va do am moi truong: ");
 602:Core/Src/main.c ****         // log_data(sensors.dhtTemp_buff);
 603:Core/Src/main.c ****         // log_data("\n");
 604:Core/Src/main.c ****         // log_data(sensors.dhtHum_buff);
 605:Core/Src/main.c ****         // log_data("\n");
 606:Core/Src/main.c ****         strcpy(sensors.fuel, "80");
 607:Core/Src/main.c ****         log_data("Nhiet do thiet bi: ");
 608:Core/Src/main.c ****         log_data(sensors.ds18_buff);
 609:Core/Src/main.c ****         log_data("\n");
 610:Core/Src/main.c ****       }
 611:Core/Src/main.c ****       break;
ARM GAS  C:\Users\Admin\AppData\Local\Temp\ccE7ElAa.s 			page 24


 612:Core/Src/main.c ****     case Task_GNSS:
 613:Core/Src/main.c ****       if (!Taskperform.TaskGNSS)
 614:Core/Src/main.c ****       {
 615:Core/Src/main.c ****         log_data("TAKS GNSS\n");
 616:Core/Src/main.c ****         Taskperform.TaskGNSS = true;
 617:Core/Src/main.c ****         GPSResponse = l70_receiveGPS();
 618:Core/Src/main.c ****         l70_handleGPS(GPSResponse);
 619:Core/Src/main.c ****       }
 620:Core/Src/main.c ****       break;
 621:Core/Src/main.c ****     case Task_SIM:
 622:Core/Src/main.c ****       if (!Taskperform.TaskSIM)
 623:Core/Src/main.c ****       {
 624:Core/Src/main.c ****         log_data("TAKS SIM\n");
 625:Core/Src/main.c ****         Taskperform.TaskSIM = true;
 626:Core/Src/main.c ****         memset(Json_Data,'\0',sizeof(Json_Data));
 627:Core/Src/main.c ****         sprintf(totalMinute_OperateTime_buff, "%dh%d", time_hour, time_minute);
 628:Core/Src/main.c ****         sprintf(Json_Data, "{\"online\":%s,\"offline\":%s,\"sleep\":%s,\"deviceID\":%s,\"license\":
 629:Core/Src/main.c ****                 stateDevice.online, stateDevice.offline, stateDevice.sleep, infoUser.deviceID, info
 630:Core/Src/main.c ****                 stateDevice.signal, l70DataAfterHadler.latitude, l70DataAfterHadler.longitude, sens
 631:Core/Src/main.c ****                 sensors.dhtHum_buff, sensors.fuel,totalMinute_OperateTime_buff,l70DataAfterHadler.S
 632:Core/Src/main.c ****         mqtt_pub(TOPIC, Json_Data);
 633:Core/Src/main.c ****         numCheck_time++;
 634:Core/Src/main.c ****         if (numCheck_time == 10)
 635:Core/Src/main.c ****         {
 636:Core/Src/main.c ****           numCheck_time = 0;
 637:Core/Src/main.c ****           HAL_RTC_GetTime(&hrtc, &last_sTime, RTC_FORMAT_BIN);
 638:Core/Src/main.c ****           HAL_RTC_GetDate(&hrtc, &last_sDate, RTC_FORMAT_BIN);
 639:Core/Src/main.c ****           totalMinute_OperateTime = (60 * last_sTime.Hours + last_sTime.Minutes) - (60 * current_sT
 640:Core/Src/main.c ****           time_hour = totalMinute_OperateTime / 60;
 641:Core/Src/main.c ****           time_minute = totalMinute_OperateTime - time_hour * 60;
 642:Core/Src/main.c ****           sprintf(totalMinute_OperateTime_buff, "%dh%d", time_hour, time_minute);
 643:Core/Src/main.c ****           log_data("\nTotal time: ");
 644:Core/Src/main.c ****           log_data(totalMinute_OperateTime_buff);
 645:Core/Src/main.c ****           log_data("\n");
 646:Core/Src/main.c ****         }
 647:Core/Src/main.c ****       }
 648:Core/Src/main.c ****       break;
 649:Core/Src/main.c ****     case Task_Store:
 650:Core/Src/main.c ****       if (!Taskperform.TaskStore)
 651:Core/Src/main.c ****       {
 652:Core/Src/main.c ****         log_data("TASK STORE\n");
 653:Core/Src/main.c ****         Taskperform.TaskStore = true;
 654:Core/Src/main.c **** 
 655:Core/Src/main.c ****         fresult = f_open(&fil, "GSHT1.txt", FA_WRITE);
 656:Core/Src/main.c ****         if (fresult != FR_OK)
 657:Core/Src/main.c ****           log_data("open error...\n\n");
 658:Core/Src/main.c ****         else
 659:Core/Src/main.c ****           log_data("open successfully...\n\n");
 660:Core/Src/main.c **** 
 661:Core/Src/main.c ****         f_lseek(&fil, f_size(&fil));
 662:Core/Src/main.c **** 
 663:Core/Src/main.c ****         f_puts(l70DataAfterHadler.utcTime, &fil);
 664:Core/Src/main.c ****         f_puts("\t", &fil);
 665:Core/Src/main.c ****         f_puts(Card_Startbuff, &fil);
 666:Core/Src/main.c ****         f_puts("\t", &fil);
 667:Core/Src/main.c ****         f_puts(l70DataAfterHadler.latitude, &fil);
 668:Core/Src/main.c ****         f_puts("\t", &fil);
ARM GAS  C:\Users\Admin\AppData\Local\Temp\ccE7ElAa.s 			page 25


 669:Core/Src/main.c ****         f_puts(l70DataAfterHadler.longitude, &fil);
 670:Core/Src/main.c ****         f_puts("\t", &fil);
 671:Core/Src/main.c ****         f_puts(l70DataAfterHadler.Speed, &fil);
 672:Core/Src/main.c ****         f_puts("\t", &fil);
 673:Core/Src/main.c ****         f_puts(sensors.ds18_buff, &fil);
 674:Core/Src/main.c ****         f_puts("\n", &fil);
 675:Core/Src/main.c **** 
 676:Core/Src/main.c ****         fresult = f_close(&fil);
 677:Core/Src/main.c ****       }
 678:Core/Src/main.c ****       break;
 679:Core/Src/main.c ****     case Task_Display:
 680:Core/Src/main.c ****       if (!Taskperform.TaskDisplay)
 681:Core/Src/main.c ****       {
 682:Core/Src/main.c ****         log_data("TASK DISPLAY\n");
 683:Core/Src/main.c ****         Taskperform.TaskDisplay = true;
 684:Core/Src/main.c ****         memset(utctime_buff,'\0',sizeof(utctime_buff));
 685:Core/Src/main.c ****         strncpy(utctime_buff,l70DataAfterHadler.utcTime,5);
 686:Core/Src/main.c ****         SSD1306_GotoXY(75, 2);
 687:Core/Src/main.c ****         SSD1306_Puts(utctime_buff, &Font_7x10, 1);
 688:Core/Src/main.c ****         SSD1306_GotoXY(30, 16);
 689:Core/Src/main.c ****         SSD1306_Puts(l70DataAfterHadler.Date, &Font_7x10, 1);
 690:Core/Src/main.c ****         SSD1306_GotoXY(30, 28);
 691:Core/Src/main.c ****         SSD1306_Puts(l70DataAfterHadler.longitude, &Font_7x10, 1);
 692:Core/Src/main.c ****         SSD1306_GotoXY(30, 40);
 693:Core/Src/main.c ****         SSD1306_Puts(l70DataAfterHadler.latitude, &Font_7x10, 1);
 694:Core/Src/main.c ****         SSD1306_GotoXY(45, 52);
 695:Core/Src/main.c ****         SSD1306_Puts(l70DataAfterHadler.Speed, &Font_7x10, 1);
 696:Core/Src/main.c ****         SSD1306_UpdateScreen();
 697:Core/Src/main.c ****       }
 698:Core/Src/main.c ****       break;
 699:Core/Src/main.c ****     case Task_LogoutOrRS232:
 700:Core/Src/main.c ****       // rs232_logdata("Task Logout or RS232\n");
 701:Core/Src/main.c ****       if (Logout)
 702:Core/Src/main.c ****       {
 703:Core/Src/main.c ****         Logout = false;
 704:Core/Src/main.c ****         sprintf(Card_Endbuff, "%02X%02X%02X%02X", CardID[0], CardID[1], CardID[2], CardID[3]);
 705:Core/Src/main.c ****         if (strcmp(Card_Startbuff, Card_Endbuff) != 0)
 706:Core/Src/main.c ****         {
 707:Core/Src/main.c ****           log_data("Tag invalid\n");
 708:Core/Src/main.c ****         }
 709:Core/Src/main.c ****         else
 710:Core/Src/main.c ****         {
 711:Core/Src/main.c ****           log_data("Tag valid, End of schedual\n");
 712:Core/Src/main.c ****           // write flash totaltime
 713:Core/Src/main.c ****           mqtt_pub(TOPIC, "{\"signal\":LOGOUT}");
 714:Core/Src/main.c ****           HAL_RTC_GetTime(&hrtc, &last_sTime, RTC_FORMAT_BIN);
 715:Core/Src/main.c ****           HAL_RTC_GetDate(&hrtc, &last_sDate, RTC_FORMAT_BIN);
 716:Core/Src/main.c ****           totalMinute_OperateTime = (60 * last_sTime.Hours + last_sTime.Minutes) - (60 * current_sT
 717:Core/Src/main.c ****           set_alarm(10);
 718:Core/Src/main.c ****           buzzer(200);
 719:Core/Src/main.c ****           HAL_Delay(200);
 720:Core/Src/main.c ****           buzzer(200);
 721:Core/Src/main.c ****         }
 722:Core/Src/main.c ****         // sleep
 723:Core/Src/main.c ****         HAL_Delay(1000);
 724:Core/Src/main.c ****         log_data("Device start sleep\n");
 725:Core/Src/main.c ****       }
ARM GAS  C:\Users\Admin\AppData\Local\Temp\ccE7ElAa.s 			page 26


 726:Core/Src/main.c ****       if (rs232_flag)
 727:Core/Src/main.c ****       {
 728:Core/Src/main.c ****         rs232_flag = false;
 729:Core/Src/main.c ****         rs232_logdata("READ\n");
 730:Core/Src/main.c ****         if (strstr(rs232_buff, "Trichxuatdulieu") != NULL)
 731:Core/Src/main.c ****         {
 732:Core/Src/main.c ****           fresult = f_open(&fil, "GSHT1.txt", FA_READ);
 733:Core/Src/main.c ****           if (fresult != FR_OK)
 734:Core/Src/main.c ****             log_data("open error...\n\n");
 735:Core/Src/main.c ****           else
 736:Core/Src/main.c ****             log_data("open successfully...\n\n");
 737:Core/Src/main.c ****           while (f_gets(SD_read, sizeof(SD_read), &fil) != NULL)
 738:Core/Src/main.c ****           {
 739:Core/Src/main.c ****             rs232_logdata(SD_read);
 740:Core/Src/main.c ****           }
 741:Core/Src/main.c ****         }
 742:Core/Src/main.c ****       }
 743:Core/Src/main.c ****       break;
 744:Core/Src/main.c ****     }
 745:Core/Src/main.c ****     HAL_Delay(100);
 746:Core/Src/main.c **** #endif
 747:Core/Src/main.c ****     // HAL_Delay(100);
 748:Core/Src/main.c ****   }
 749:Core/Src/main.c ****   /* USER CODE END 3 */
 750:Core/Src/main.c **** }
 751:Core/Src/main.c **** 
 752:Core/Src/main.c **** /**
 753:Core/Src/main.c ****  * @brief System Clock Configuration
 754:Core/Src/main.c ****  * @retval None
 755:Core/Src/main.c ****  */
 756:Core/Src/main.c **** void SystemClock_Config(void)
 757:Core/Src/main.c **** {
 758:Core/Src/main.c ****   RCC_OscInitTypeDef RCC_OscInitStruct = {0};
 759:Core/Src/main.c ****   RCC_ClkInitTypeDef RCC_ClkInitStruct = {0};
 760:Core/Src/main.c ****   RCC_PeriphCLKInitTypeDef PeriphClkInit = {0};
 761:Core/Src/main.c **** 
 762:Core/Src/main.c ****   /** Initializes the RCC Oscillators according to the specified parameters
 763:Core/Src/main.c ****    * in the RCC_OscInitTypeDef structure.
 764:Core/Src/main.c ****    */
 765:Core/Src/main.c ****   RCC_OscInitStruct.OscillatorType = RCC_OSCILLATORTYPE_HSE | RCC_OSCILLATORTYPE_LSE;
 766:Core/Src/main.c ****   RCC_OscInitStruct.HSEState = RCC_HSE_ON;
 767:Core/Src/main.c ****   RCC_OscInitStruct.HSEPredivValue = RCC_HSE_PREDIV_DIV1;
 768:Core/Src/main.c ****   RCC_OscInitStruct.LSEState = RCC_LSE_ON;
 769:Core/Src/main.c ****   RCC_OscInitStruct.HSIState = RCC_HSI_ON;
 770:Core/Src/main.c ****   RCC_OscInitStruct.PLL.PLLState = RCC_PLL_ON;
 771:Core/Src/main.c ****   RCC_OscInitStruct.PLL.PLLSource = RCC_PLLSOURCE_HSE;
 772:Core/Src/main.c ****   RCC_OscInitStruct.PLL.PLLMUL = RCC_PLL_MUL9;
 773:Core/Src/main.c ****   if (HAL_RCC_OscConfig(&RCC_OscInitStruct) != HAL_OK)
 774:Core/Src/main.c ****   {
 775:Core/Src/main.c ****     Error_Handler();
 776:Core/Src/main.c ****   }
 777:Core/Src/main.c **** 
 778:Core/Src/main.c ****   /** Initializes the CPU, AHB and APB buses clocks
 779:Core/Src/main.c ****    */
 780:Core/Src/main.c ****   RCC_ClkInitStruct.ClockType = RCC_CLOCKTYPE_HCLK | RCC_CLOCKTYPE_SYSCLK | RCC_CLOCKTYPE_PCLK1 | R
 781:Core/Src/main.c ****   RCC_ClkInitStruct.SYSCLKSource = RCC_SYSCLKSOURCE_PLLCLK;
 782:Core/Src/main.c ****   RCC_ClkInitStruct.AHBCLKDivider = RCC_SYSCLK_DIV1;
ARM GAS  C:\Users\Admin\AppData\Local\Temp\ccE7ElAa.s 			page 27


 783:Core/Src/main.c ****   RCC_ClkInitStruct.APB1CLKDivider = RCC_HCLK_DIV2;
 784:Core/Src/main.c ****   RCC_ClkInitStruct.APB2CLKDivider = RCC_HCLK_DIV1;
 785:Core/Src/main.c **** 
 786:Core/Src/main.c ****   if (HAL_RCC_ClockConfig(&RCC_ClkInitStruct, FLASH_LATENCY_2) != HAL_OK)
 787:Core/Src/main.c ****   {
 788:Core/Src/main.c ****     Error_Handler();
 789:Core/Src/main.c ****   }
 790:Core/Src/main.c ****   PeriphClkInit.PeriphClockSelection = RCC_PERIPHCLK_RTC | RCC_PERIPHCLK_ADC;
 791:Core/Src/main.c ****   PeriphClkInit.RTCClockSelection = RCC_RTCCLKSOURCE_LSE;
 792:Core/Src/main.c ****   PeriphClkInit.AdcClockSelection = RCC_ADCPCLK2_DIV6;
 793:Core/Src/main.c ****   if (HAL_RCCEx_PeriphCLKConfig(&PeriphClkInit) != HAL_OK)
 794:Core/Src/main.c ****   {
 795:Core/Src/main.c ****     Error_Handler();
 796:Core/Src/main.c ****   }
 797:Core/Src/main.c **** }
 798:Core/Src/main.c **** 
 799:Core/Src/main.c **** /* USER CODE BEGIN 4 */
 800:Core/Src/main.c **** #if IF_SIUTATION
 801:Core/Src/main.c **** if (Type_Task == Task_Sensors && !Taskperform.TaskSensors)
 802:Core/Src/main.c **** {
 803:Core/Src/main.c ****   log_data("TAKS SENSORS\n");
 804:Core/Src/main.c ****   Taskperform.TaskSensors = true;
 805:Core/Src/main.c ****   log_data("TAKS SENSORS\n");
 806:Core/Src/main.c ****   Taskperform.TaskSensors = true;
 807:Core/Src/main.c ****   ds18_temp = (int)DS18B20_Result();
 808:Core/Src/main.c ****   // DHT11_Result(dht_temp, dht_hum);
 809:Core/Src/main.c ****   sprintf(ds18_buff, "%d", ds18_temp);
 810:Core/Src/main.c ****   // ftoa(ds18_temp, ds18_buff, 1);
 811:Core/Src/main.c ****   //  w25q32_pageWrite(0x00000000,ds18_buff);
 812:Core/Src/main.c ****   //  ftoa(dht_temp, dhtTemp_buff, 1);
 813:Core/Src/main.c ****   //  ftoa(dht_hum, dhtHum_buff, 1);
 814:Core/Src/main.c ****   log_data("Nhiet do thiet bi: ");
 815:Core/Src/main.c ****   log_data(ds18_buff);
 816:Core/Src/main.c ****   log_data("\n");
 817:Core/Src/main.c **** }
 818:Core/Src/main.c **** if (Type_Task == Task_GNSS && !Taskperform.TaskGNSS)
 819:Core/Src/main.c **** {
 820:Core/Src/main.c ****   log_data("TAKS GNSS\n");
 821:Core/Src/main.c ****   Taskperform.TaskGNSS = true;
 822:Core/Src/main.c ****   GPSResponse = l70_receiveGPS();
 823:Core/Src/main.c ****   l70_handleGPS(GPSResponse);
 824:Core/Src/main.c **** }
 825:Core/Src/main.c **** if (Type_Task == Task_SIM && !Taskperform.TaskSIM)
 826:Core/Src/main.c **** {
 827:Core/Src/main.c **** 
 828:Core/Src/main.c ****   log_data("TAKS SIM\n");
 829:Core/Src/main.c ****   Taskperform.TaskSIM = true;
 830:Core/Src/main.c ****   // mqtt_pub(TOPIC_TEST, Card_Startbuff);
 831:Core/Src/main.c ****   // mqtt_pub(TOPIC_TEST, ds18_buff);
 832:Core/Src/main.c ****   // // mqtt_pub(TOPIC_TEST, dhtHum_buff);
 833:Core/Src/main.c ****   // // mqtt_pub(TOPIC_TEST, dhtTemp_buff);
 834:Core/Src/main.c ****   // mqtt_pub(TOPIC_TEST, l70DataAfterHadler.longitude);
 835:Core/Src/main.c ****   // mqtt_pub(TOPIC_TEST, l70DataAfterHadler.latitude);
 836:Core/Src/main.c ****   // numCheck_time++;
 837:Core/Src/main.c ****   // if (numCheck_time == 10)
 838:Core/Src/main.c ****   // {
 839:Core/Src/main.c ****   //   numCheck_time = 0;
ARM GAS  C:\Users\Admin\AppData\Local\Temp\ccE7ElAa.s 			page 28


 840:Core/Src/main.c ****   //   HAL_RTC_GetTime(&hrtc, &last_sTime, RTC_FORMAT_BIN);
 841:Core/Src/main.c ****   //   HAL_RTC_GetDate(&hrtc, &last_sDate, RTC_FORMAT_BIN);
 842:Core/Src/main.c ****   //   totalMinute_OperateTime = (60 * last_sTime.Hours + last_sTime.Minutes) - (60 * current_sTime
 843:Core/Src/main.c ****   //   sprintf(totalMinute_OperateTime_buff, "totalTime: %d", totalMinute_OperateTime);
 844:Core/Src/main.c ****   //   mqtt_pub(TOPIC_TEST, totalMinute_OperateTime_buff);
 845:Core/Src/main.c ****   // }
 846:Core/Src/main.c **** }
 847:Core/Src/main.c **** if (Type_Task == Task_Store && !Taskperform.TaskStore)
 848:Core/Src/main.c **** {
 849:Core/Src/main.c ****   log_data("TASK STORE\n");
 850:Core/Src/main.c ****   Taskperform.TaskStore = true;
 851:Core/Src/main.c **** 
 852:Core/Src/main.c ****   fresult = f_open(&fil, "GSHT1.txt", FA_WRITE);
 853:Core/Src/main.c ****   if (fresult != FR_OK)
 854:Core/Src/main.c ****     log_data("open error...\n\n");
 855:Core/Src/main.c ****   else
 856:Core/Src/main.c ****     log_data("open successfully...\n\n");
 857:Core/Src/main.c **** 
 858:Core/Src/main.c ****   f_lseek(&fil, f_size(&fil));
 859:Core/Src/main.c **** 
 860:Core/Src/main.c ****   f_puts(l70DataAfterHadler.utcTime, &fil);
 861:Core/Src/main.c ****   f_puts("\t", &fil);
 862:Core/Src/main.c ****   f_puts(Card_Startbuff, &fil);
 863:Core/Src/main.c ****   f_puts("\t", &fil);
 864:Core/Src/main.c ****   f_puts(l70DataAfterHadler.latitude, &fil);
 865:Core/Src/main.c ****   f_puts("\t", &fil);
 866:Core/Src/main.c ****   f_puts(l70DataAfterHadler.longitude, &fil);
 867:Core/Src/main.c ****   f_puts("\t", &fil);
 868:Core/Src/main.c ****   f_puts(l70DataAfterHadler.Speed, &fil);
 869:Core/Src/main.c ****   f_puts("\t", &fil);
 870:Core/Src/main.c ****   f_puts(ds18_buff, &fil);
 871:Core/Src/main.c ****   f_puts("\n", &fil);
 872:Core/Src/main.c **** 
 873:Core/Src/main.c ****   fresult = f_close(&fil);
 874:Core/Src/main.c **** }
 875:Core/Src/main.c **** if (Type_Task == Task_Display && !Taskperform.TaskDisplay)
 876:Core/Src/main.c **** {
 877:Core/Src/main.c ****   log_data("TASK DISPLAY\n");
 878:Core/Src/main.c ****   Taskperform.TaskDisplay = true;
 879:Core/Src/main.c **** }
 880:Core/Src/main.c **** HAL_Delay(100);
 881:Core/Src/main.c **** #endif
 882:Core/Src/main.c **** // #if SIM
 883:Core/Src/main.c **** //   // sim7672_pwrOn();
 884:Core/Src/main.c **** //   // HAL_Delay(5000);
 885:Core/Src/main.c **** //   sim7672_init();
 886:Core/Src/main.c **** //   sim7672_check_signalStrength();
 887:Core/Src/main.c **** //   HAL_Delay(500);
 888:Core/Src/main.c **** //   // mqtt_disconnectServer();
 889:Core/Src/main.c **** //   HAL_Delay(1000);
 890:Core/Src/main.c **** //   mqtt_connectServer();
 891:Core/Src/main.c **** //   mqtt_pub("test1z", "123456789");
 892:Core/Src/main.c **** //   HAL_Delay(500);
 893:Core/Src/main.c **** //   mqtt_sub("test1z");
 894:Core/Src/main.c **** // #endif
 895:Core/Src/main.c **** 
 896:Core/Src/main.c **** // #if GPS
ARM GAS  C:\Users\Admin\AppData\Local\Temp\ccE7ElAa.s 			page 29


 897:Core/Src/main.c **** //   sim7672_pwrOff();
 898:Core/Src/main.c **** //   l70_init();
 899:Core/Src/main.c **** //   HAL_Delay(1000);
 900:Core/Src/main.c **** // #endif
 901:Core/Src/main.c **** 
 902:Core/Src/main.c **** // #if SDCard
 903:Core/Src/main.c **** 
 904:Core/Src/main.c **** //   fresult = f_mount(&fs, "/", 1);
 905:Core/Src/main.c **** //   if (fresult != FR_OK)
 906:Core/Src/main.c **** //     log_data("ERROR!!! in mounting SD CARD...\n\n");
 907:Core/Src/main.c **** //   else
 908:Core/Src/main.c **** //     log_data("*******************\nSD CARD mounted successfully...\n\n");
 909:Core/Src/main.c **** 
 910:Core/Src/main.c **** //   /* ********************************Create second file with read write access and open it */
 911:Core/Src/main.c **** //   fresult = f_open(&fil, "file2.txt", FA_WRITE);
 912:Core/Src/main.c **** //   if (fresult != FR_OK)
 913:Core/Src/main.c **** //     log_data("open error...\n\n");
 914:Core/Src/main.c **** //   else
 915:Core/Src/main.c **** //     log_data("open successfully...\n\n");
 916:Core/Src/main.c **** //   // f_lseek(&fil, f_size(&fil));
 917:Core/Src/main.c **** //   f_puts("This data is from the FILE1.txt. And it was written using ...f_puts... \nthis full fun
 918:Core/Src/main.c **** //   // f_puts("\nThis is updated data and it should be in the end",&fil);
 919:Core/Src/main.c **** //   fresult = f_close(&fil);
 920:Core/Src/main.c **** //   if (fresult != FR_OK)
 921:Core/Src/main.c **** //     log_data("write error...\n\n");
 922:Core/Src/main.c **** //   else
 923:Core/Src/main.c **** //     log_data("write successfully...\n\n");
 924:Core/Src/main.c **** //   log_data("File2.txt created and data is written\n");
 925:Core/Src/main.c **** //   // clearing buffer to show that result obtained is from the file
 926:Core/Src/main.c **** 
 927:Core/Src/main.c **** //   /* ***********************************Open second file to read */
 928:Core/Src/main.c **** //   fresult = f_open(&fil, "file2.txt", FA_READ);
 929:Core/Src/main.c **** //   if (fresult != FR_OK)
 930:Core/Src/main.c **** //     log_data("open error...\n\n");
 931:Core/Src/main.c **** //   else
 932:Core/Src/main.c **** //     log_data("open successfully...\n\n");
 933:Core/Src/main.c **** 
 934:Core/Src/main.c **** //   /* Read data from the file
 935:Core/Src/main.c **** //    * Please see the function details for the arguments */
 936:Core/Src/main.c **** //   // f_gets(buffer, f_size(&fil), &fil);
 937:Core/Src/main.c **** //   while (f_gets(buffer, sizeof(buffer), &fil) != NULL)
 938:Core/Src/main.c **** //   {
 939:Core/Src/main.c **** //     // X l d liu theo nhu cu ca bn, v d: gi qua UART
 940:Core/Src/main.c **** //     log_data(buffer);
 941:Core/Src/main.c **** //   }
 942:Core/Src/main.c **** //   // f_read (&fil, buffer, f_size(&fil), &br);
 943:Core/Src/main.c **** //   log_data("data: ");
 944:Core/Src/main.c **** //   log_data(buffer);
 945:Core/Src/main.c **** //   log_data("\n\n");
 946:Core/Src/main.c **** 
 947:Core/Src/main.c **** //   /* Close file */
 948:Core/Src/main.c **** //   f_close(&fil);
 949:Core/Src/main.c **** // // HAL_GPIO_WritePin(BUZZER_GPIO_Port, BUZZER_Pin, GPIO_PIN_SET);
 950:Core/Src/main.c **** // // HAL_Delay(1000);
 951:Core/Src/main.c **** // // HAL_GPIO_WritePin(BUZZER_GPIO_Port,BUZZER_Pin,GPIO_PIN_RESET);
 952:Core/Src/main.c **** // #endif
 953:Core/Src/main.c **** /* USER CODE END 4 */
ARM GAS  C:\Users\Admin\AppData\Local\Temp\ccE7ElAa.s 			page 30


 954:Core/Src/main.c **** 
 955:Core/Src/main.c **** /**
 956:Core/Src/main.c ****  * @brief  This function is executed in case of error occurrence.
 957:Core/Src/main.c ****  * @retval None
 958:Core/Src/main.c ****  */
 959:Core/Src/main.c **** void Error_Handler(void)
 960:Core/Src/main.c **** {
 629              		.loc 1 960 1 view -0
 630              		.cfi_startproc
 631              		@ Volatile: function does not return.
 632              		@ args = 0, pretend = 0, frame = 0
 633              		@ frame_needed = 0, uses_anonymous_args = 0
 634              		@ link register save eliminated.
 961:Core/Src/main.c ****   /* USER CODE BEGIN Error_Handler_Debug */
 962:Core/Src/main.c ****   /* User can add his own implementation to report the HAL error return state */
 963:Core/Src/main.c ****   __disable_irq();
 635              		.loc 1 963 3 view .LVU143
 636              	.LBB5:
 637              	.LBI5:
 638              		.file 2 "Drivers/CMSIS/Include/cmsis_gcc.h"
   1:Drivers/CMSIS/Include/cmsis_gcc.h **** /**************************************************************************//**
   2:Drivers/CMSIS/Include/cmsis_gcc.h ****  * @file     cmsis_gcc.h
   3:Drivers/CMSIS/Include/cmsis_gcc.h ****  * @brief    CMSIS compiler GCC header file
   4:Drivers/CMSIS/Include/cmsis_gcc.h ****  * @version  V5.0.4
   5:Drivers/CMSIS/Include/cmsis_gcc.h ****  * @date     09. April 2018
   6:Drivers/CMSIS/Include/cmsis_gcc.h ****  ******************************************************************************/
   7:Drivers/CMSIS/Include/cmsis_gcc.h **** /*
   8:Drivers/CMSIS/Include/cmsis_gcc.h ****  * Copyright (c) 2009-2018 Arm Limited. All rights reserved.
   9:Drivers/CMSIS/Include/cmsis_gcc.h ****  *
  10:Drivers/CMSIS/Include/cmsis_gcc.h ****  * SPDX-License-Identifier: Apache-2.0
  11:Drivers/CMSIS/Include/cmsis_gcc.h ****  *
  12:Drivers/CMSIS/Include/cmsis_gcc.h ****  * Licensed under the Apache License, Version 2.0 (the License); you may
  13:Drivers/CMSIS/Include/cmsis_gcc.h ****  * not use this file except in compliance with the License.
  14:Drivers/CMSIS/Include/cmsis_gcc.h ****  * You may obtain a copy of the License at
  15:Drivers/CMSIS/Include/cmsis_gcc.h ****  *
  16:Drivers/CMSIS/Include/cmsis_gcc.h ****  * www.apache.org/licenses/LICENSE-2.0
  17:Drivers/CMSIS/Include/cmsis_gcc.h ****  *
  18:Drivers/CMSIS/Include/cmsis_gcc.h ****  * Unless required by applicable law or agreed to in writing, software
  19:Drivers/CMSIS/Include/cmsis_gcc.h ****  * distributed under the License is distributed on an AS IS BASIS, WITHOUT
  20:Drivers/CMSIS/Include/cmsis_gcc.h ****  * WARRANTIES OR CONDITIONS OF ANY KIND, either express or implied.
  21:Drivers/CMSIS/Include/cmsis_gcc.h ****  * See the License for the specific language governing permissions and
  22:Drivers/CMSIS/Include/cmsis_gcc.h ****  * limitations under the License.
  23:Drivers/CMSIS/Include/cmsis_gcc.h ****  */
  24:Drivers/CMSIS/Include/cmsis_gcc.h **** 
  25:Drivers/CMSIS/Include/cmsis_gcc.h **** #ifndef __CMSIS_GCC_H
  26:Drivers/CMSIS/Include/cmsis_gcc.h **** #define __CMSIS_GCC_H
  27:Drivers/CMSIS/Include/cmsis_gcc.h **** 
  28:Drivers/CMSIS/Include/cmsis_gcc.h **** /* ignore some GCC warnings */
  29:Drivers/CMSIS/Include/cmsis_gcc.h **** #pragma GCC diagnostic push
  30:Drivers/CMSIS/Include/cmsis_gcc.h **** #pragma GCC diagnostic ignored "-Wsign-conversion"
  31:Drivers/CMSIS/Include/cmsis_gcc.h **** #pragma GCC diagnostic ignored "-Wconversion"
  32:Drivers/CMSIS/Include/cmsis_gcc.h **** #pragma GCC diagnostic ignored "-Wunused-parameter"
  33:Drivers/CMSIS/Include/cmsis_gcc.h **** 
  34:Drivers/CMSIS/Include/cmsis_gcc.h **** /* Fallback for __has_builtin */
  35:Drivers/CMSIS/Include/cmsis_gcc.h **** #ifndef __has_builtin
  36:Drivers/CMSIS/Include/cmsis_gcc.h ****   #define __has_builtin(x) (0)
  37:Drivers/CMSIS/Include/cmsis_gcc.h **** #endif
ARM GAS  C:\Users\Admin\AppData\Local\Temp\ccE7ElAa.s 			page 31


  38:Drivers/CMSIS/Include/cmsis_gcc.h **** 
  39:Drivers/CMSIS/Include/cmsis_gcc.h **** /* CMSIS compiler specific defines */
  40:Drivers/CMSIS/Include/cmsis_gcc.h **** #ifndef   __ASM
  41:Drivers/CMSIS/Include/cmsis_gcc.h ****   #define __ASM                                  __asm
  42:Drivers/CMSIS/Include/cmsis_gcc.h **** #endif
  43:Drivers/CMSIS/Include/cmsis_gcc.h **** #ifndef   __INLINE
  44:Drivers/CMSIS/Include/cmsis_gcc.h ****   #define __INLINE                               inline
  45:Drivers/CMSIS/Include/cmsis_gcc.h **** #endif
  46:Drivers/CMSIS/Include/cmsis_gcc.h **** #ifndef   __STATIC_INLINE
  47:Drivers/CMSIS/Include/cmsis_gcc.h ****   #define __STATIC_INLINE                        static inline
  48:Drivers/CMSIS/Include/cmsis_gcc.h **** #endif
  49:Drivers/CMSIS/Include/cmsis_gcc.h **** #ifndef   __STATIC_FORCEINLINE                 
  50:Drivers/CMSIS/Include/cmsis_gcc.h ****   #define __STATIC_FORCEINLINE                   __attribute__((always_inline)) static inline
  51:Drivers/CMSIS/Include/cmsis_gcc.h **** #endif                                           
  52:Drivers/CMSIS/Include/cmsis_gcc.h **** #ifndef   __NO_RETURN
  53:Drivers/CMSIS/Include/cmsis_gcc.h ****   #define __NO_RETURN                            __attribute__((__noreturn__))
  54:Drivers/CMSIS/Include/cmsis_gcc.h **** #endif
  55:Drivers/CMSIS/Include/cmsis_gcc.h **** #ifndef   __USED
  56:Drivers/CMSIS/Include/cmsis_gcc.h ****   #define __USED                                 __attribute__((used))
  57:Drivers/CMSIS/Include/cmsis_gcc.h **** #endif
  58:Drivers/CMSIS/Include/cmsis_gcc.h **** #ifndef   __WEAK
  59:Drivers/CMSIS/Include/cmsis_gcc.h ****   #define __WEAK                                 __attribute__((weak))
  60:Drivers/CMSIS/Include/cmsis_gcc.h **** #endif
  61:Drivers/CMSIS/Include/cmsis_gcc.h **** #ifndef   __PACKED
  62:Drivers/CMSIS/Include/cmsis_gcc.h ****   #define __PACKED                               __attribute__((packed, aligned(1)))
  63:Drivers/CMSIS/Include/cmsis_gcc.h **** #endif
  64:Drivers/CMSIS/Include/cmsis_gcc.h **** #ifndef   __PACKED_STRUCT
  65:Drivers/CMSIS/Include/cmsis_gcc.h ****   #define __PACKED_STRUCT                        struct __attribute__((packed, aligned(1)))
  66:Drivers/CMSIS/Include/cmsis_gcc.h **** #endif
  67:Drivers/CMSIS/Include/cmsis_gcc.h **** #ifndef   __PACKED_UNION
  68:Drivers/CMSIS/Include/cmsis_gcc.h ****   #define __PACKED_UNION                         union __attribute__((packed, aligned(1)))
  69:Drivers/CMSIS/Include/cmsis_gcc.h **** #endif
  70:Drivers/CMSIS/Include/cmsis_gcc.h **** #ifndef   __UNALIGNED_UINT32        /* deprecated */
  71:Drivers/CMSIS/Include/cmsis_gcc.h ****   #pragma GCC diagnostic push
  72:Drivers/CMSIS/Include/cmsis_gcc.h ****   #pragma GCC diagnostic ignored "-Wpacked"
  73:Drivers/CMSIS/Include/cmsis_gcc.h ****   #pragma GCC diagnostic ignored "-Wattributes"
  74:Drivers/CMSIS/Include/cmsis_gcc.h ****   struct __attribute__((packed)) T_UINT32 { uint32_t v; };
  75:Drivers/CMSIS/Include/cmsis_gcc.h ****   #pragma GCC diagnostic pop
  76:Drivers/CMSIS/Include/cmsis_gcc.h ****   #define __UNALIGNED_UINT32(x)                  (((struct T_UINT32 *)(x))->v)
  77:Drivers/CMSIS/Include/cmsis_gcc.h **** #endif
  78:Drivers/CMSIS/Include/cmsis_gcc.h **** #ifndef   __UNALIGNED_UINT16_WRITE
  79:Drivers/CMSIS/Include/cmsis_gcc.h ****   #pragma GCC diagnostic push
  80:Drivers/CMSIS/Include/cmsis_gcc.h ****   #pragma GCC diagnostic ignored "-Wpacked"
  81:Drivers/CMSIS/Include/cmsis_gcc.h ****   #pragma GCC diagnostic ignored "-Wattributes"
  82:Drivers/CMSIS/Include/cmsis_gcc.h ****   __PACKED_STRUCT T_UINT16_WRITE { uint16_t v; };
  83:Drivers/CMSIS/Include/cmsis_gcc.h ****   #pragma GCC diagnostic pop
  84:Drivers/CMSIS/Include/cmsis_gcc.h ****   #define __UNALIGNED_UINT16_WRITE(addr, val)    (void)((((struct T_UINT16_WRITE *)(void *)(addr))-
  85:Drivers/CMSIS/Include/cmsis_gcc.h **** #endif
  86:Drivers/CMSIS/Include/cmsis_gcc.h **** #ifndef   __UNALIGNED_UINT16_READ
  87:Drivers/CMSIS/Include/cmsis_gcc.h ****   #pragma GCC diagnostic push
  88:Drivers/CMSIS/Include/cmsis_gcc.h ****   #pragma GCC diagnostic ignored "-Wpacked"
  89:Drivers/CMSIS/Include/cmsis_gcc.h ****   #pragma GCC diagnostic ignored "-Wattributes"
  90:Drivers/CMSIS/Include/cmsis_gcc.h ****   __PACKED_STRUCT T_UINT16_READ { uint16_t v; };
  91:Drivers/CMSIS/Include/cmsis_gcc.h ****   #pragma GCC diagnostic pop
  92:Drivers/CMSIS/Include/cmsis_gcc.h ****   #define __UNALIGNED_UINT16_READ(addr)          (((const struct T_UINT16_READ *)(const void *)(add
  93:Drivers/CMSIS/Include/cmsis_gcc.h **** #endif
  94:Drivers/CMSIS/Include/cmsis_gcc.h **** #ifndef   __UNALIGNED_UINT32_WRITE
ARM GAS  C:\Users\Admin\AppData\Local\Temp\ccE7ElAa.s 			page 32


  95:Drivers/CMSIS/Include/cmsis_gcc.h ****   #pragma GCC diagnostic push
  96:Drivers/CMSIS/Include/cmsis_gcc.h ****   #pragma GCC diagnostic ignored "-Wpacked"
  97:Drivers/CMSIS/Include/cmsis_gcc.h ****   #pragma GCC diagnostic ignored "-Wattributes"
  98:Drivers/CMSIS/Include/cmsis_gcc.h ****   __PACKED_STRUCT T_UINT32_WRITE { uint32_t v; };
  99:Drivers/CMSIS/Include/cmsis_gcc.h ****   #pragma GCC diagnostic pop
 100:Drivers/CMSIS/Include/cmsis_gcc.h ****   #define __UNALIGNED_UINT32_WRITE(addr, val)    (void)((((struct T_UINT32_WRITE *)(void *)(addr))-
 101:Drivers/CMSIS/Include/cmsis_gcc.h **** #endif
 102:Drivers/CMSIS/Include/cmsis_gcc.h **** #ifndef   __UNALIGNED_UINT32_READ
 103:Drivers/CMSIS/Include/cmsis_gcc.h ****   #pragma GCC diagnostic push
 104:Drivers/CMSIS/Include/cmsis_gcc.h ****   #pragma GCC diagnostic ignored "-Wpacked"
 105:Drivers/CMSIS/Include/cmsis_gcc.h ****   #pragma GCC diagnostic ignored "-Wattributes"
 106:Drivers/CMSIS/Include/cmsis_gcc.h ****   __PACKED_STRUCT T_UINT32_READ { uint32_t v; };
 107:Drivers/CMSIS/Include/cmsis_gcc.h ****   #pragma GCC diagnostic pop
 108:Drivers/CMSIS/Include/cmsis_gcc.h ****   #define __UNALIGNED_UINT32_READ(addr)          (((const struct T_UINT32_READ *)(const void *)(add
 109:Drivers/CMSIS/Include/cmsis_gcc.h **** #endif
 110:Drivers/CMSIS/Include/cmsis_gcc.h **** #ifndef   __ALIGNED
 111:Drivers/CMSIS/Include/cmsis_gcc.h ****   #define __ALIGNED(x)                           __attribute__((aligned(x)))
 112:Drivers/CMSIS/Include/cmsis_gcc.h **** #endif
 113:Drivers/CMSIS/Include/cmsis_gcc.h **** #ifndef   __RESTRICT
 114:Drivers/CMSIS/Include/cmsis_gcc.h ****   #define __RESTRICT                             __restrict
 115:Drivers/CMSIS/Include/cmsis_gcc.h **** #endif
 116:Drivers/CMSIS/Include/cmsis_gcc.h **** 
 117:Drivers/CMSIS/Include/cmsis_gcc.h **** 
 118:Drivers/CMSIS/Include/cmsis_gcc.h **** /* ###########################  Core Function Access  ########################### */
 119:Drivers/CMSIS/Include/cmsis_gcc.h **** /** \ingroup  CMSIS_Core_FunctionInterface
 120:Drivers/CMSIS/Include/cmsis_gcc.h ****     \defgroup CMSIS_Core_RegAccFunctions CMSIS Core Register Access Functions
 121:Drivers/CMSIS/Include/cmsis_gcc.h ****   @{
 122:Drivers/CMSIS/Include/cmsis_gcc.h ****  */
 123:Drivers/CMSIS/Include/cmsis_gcc.h **** 
 124:Drivers/CMSIS/Include/cmsis_gcc.h **** /**
 125:Drivers/CMSIS/Include/cmsis_gcc.h ****   \brief   Enable IRQ Interrupts
 126:Drivers/CMSIS/Include/cmsis_gcc.h ****   \details Enables IRQ interrupts by clearing the I-bit in the CPSR.
 127:Drivers/CMSIS/Include/cmsis_gcc.h ****            Can only be executed in Privileged modes.
 128:Drivers/CMSIS/Include/cmsis_gcc.h ****  */
 129:Drivers/CMSIS/Include/cmsis_gcc.h **** __STATIC_FORCEINLINE void __enable_irq(void)
 130:Drivers/CMSIS/Include/cmsis_gcc.h **** {
 131:Drivers/CMSIS/Include/cmsis_gcc.h ****   __ASM volatile ("cpsie i" : : : "memory");
 132:Drivers/CMSIS/Include/cmsis_gcc.h **** }
 133:Drivers/CMSIS/Include/cmsis_gcc.h **** 
 134:Drivers/CMSIS/Include/cmsis_gcc.h **** 
 135:Drivers/CMSIS/Include/cmsis_gcc.h **** /**
 136:Drivers/CMSIS/Include/cmsis_gcc.h ****   \brief   Disable IRQ Interrupts
 137:Drivers/CMSIS/Include/cmsis_gcc.h ****   \details Disables IRQ interrupts by setting the I-bit in the CPSR.
 138:Drivers/CMSIS/Include/cmsis_gcc.h ****            Can only be executed in Privileged modes.
 139:Drivers/CMSIS/Include/cmsis_gcc.h ****  */
 140:Drivers/CMSIS/Include/cmsis_gcc.h **** __STATIC_FORCEINLINE void __disable_irq(void)
 639              		.loc 2 140 27 view .LVU144
 640              	.LBB6:
 141:Drivers/CMSIS/Include/cmsis_gcc.h **** {
 142:Drivers/CMSIS/Include/cmsis_gcc.h ****   __ASM volatile ("cpsid i" : : : "memory");
 641              		.loc 2 142 3 view .LVU145
 642              		.syntax unified
 643              	@ 142 "Drivers/CMSIS/Include/cmsis_gcc.h" 1
 644 0000 72B6     		cpsid i
 645              	@ 0 "" 2
 646              		.thumb
 647              		.syntax unified
ARM GAS  C:\Users\Admin\AppData\Local\Temp\ccE7ElAa.s 			page 33


 648              	.L50:
 649              	.LBE6:
 650              	.LBE5:
 964:Core/Src/main.c ****   while (1)
 651              		.loc 1 964 3 discriminator 1 view .LVU146
 965:Core/Src/main.c ****   {
 966:Core/Src/main.c ****   }
 652              		.loc 1 966 3 discriminator 1 view .LVU147
 964:Core/Src/main.c ****   while (1)
 653              		.loc 1 964 9 discriminator 1 view .LVU148
 654 0002 FEE7     		b	.L50
 655              		.cfi_endproc
 656              	.LFE78:
 658              		.section	.text.set_alarm,"ax",%progbits
 659              		.align	1
 660              		.global	set_alarm
 661              		.syntax unified
 662              		.thumb
 663              		.thumb_func
 665              	set_alarm:
 666              	.LVL43:
 667              	.LFB70:
 269:Core/Src/main.c ****   RTC_AlarmTypeDef sAlarm = {0};
 668              		.loc 1 269 1 view -0
 669              		.cfi_startproc
 670              		@ args = 0, pretend = 0, frame = 8
 671              		@ frame_needed = 0, uses_anonymous_args = 0
 269:Core/Src/main.c ****   RTC_AlarmTypeDef sAlarm = {0};
 672              		.loc 1 269 1 is_stmt 0 view .LVU150
 673 0000 00B5     		push	{lr}
 674              	.LCFI6:
 675              		.cfi_def_cfa_offset 4
 676              		.cfi_offset 14, -4
 677 0002 83B0     		sub	sp, sp, #12
 678              	.LCFI7:
 679              		.cfi_def_cfa_offset 16
 270:Core/Src/main.c ****   sAlarm.AlarmTime.Hours = current_sTime.Hours + intervalHour;
 680              		.loc 1 270 3 is_stmt 1 view .LVU151
 270:Core/Src/main.c ****   sAlarm.AlarmTime.Hours = current_sTime.Hours + intervalHour;
 681              		.loc 1 270 20 is_stmt 0 view .LVU152
 682 0004 0022     		movs	r2, #0
 683 0006 0092     		str	r2, [sp]
 684 0008 0192     		str	r2, [sp, #4]
 271:Core/Src/main.c ****   sAlarm.AlarmTime.Minutes = current_sTime.Minutes;
 685              		.loc 1 271 3 is_stmt 1 view .LVU153
 271:Core/Src/main.c ****   sAlarm.AlarmTime.Minutes = current_sTime.Minutes;
 686              		.loc 1 271 41 is_stmt 0 view .LVU154
 687 000a 0A4B     		ldr	r3, .L55
 688 000c 1978     		ldrb	r1, [r3]	@ zero_extendqisi2
 271:Core/Src/main.c ****   sAlarm.AlarmTime.Minutes = current_sTime.Minutes;
 689              		.loc 1 271 48 view .LVU155
 690 000e 0144     		add	r1, r1, r0
 271:Core/Src/main.c ****   sAlarm.AlarmTime.Minutes = current_sTime.Minutes;
 691              		.loc 1 271 26 view .LVU156
 692 0010 8DF80010 		strb	r1, [sp]
 272:Core/Src/main.c ****   sAlarm.AlarmTime.Seconds = current_sTime.Seconds;
 693              		.loc 1 272 3 is_stmt 1 view .LVU157
ARM GAS  C:\Users\Admin\AppData\Local\Temp\ccE7ElAa.s 			page 34


 272:Core/Src/main.c ****   sAlarm.AlarmTime.Seconds = current_sTime.Seconds;
 694              		.loc 1 272 43 is_stmt 0 view .LVU158
 695 0014 5978     		ldrb	r1, [r3, #1]	@ zero_extendqisi2
 272:Core/Src/main.c ****   sAlarm.AlarmTime.Seconds = current_sTime.Seconds;
 696              		.loc 1 272 28 view .LVU159
 697 0016 8DF80110 		strb	r1, [sp, #1]
 273:Core/Src/main.c ****   sAlarm.Alarm = RTC_ALARM_A;
 698              		.loc 1 273 3 is_stmt 1 view .LVU160
 273:Core/Src/main.c ****   sAlarm.Alarm = RTC_ALARM_A;
 699              		.loc 1 273 43 is_stmt 0 view .LVU161
 700 001a 9B78     		ldrb	r3, [r3, #2]	@ zero_extendqisi2
 273:Core/Src/main.c ****   sAlarm.Alarm = RTC_ALARM_A;
 701              		.loc 1 273 28 view .LVU162
 702 001c 8DF80230 		strb	r3, [sp, #2]
 274:Core/Src/main.c ****   if (HAL_RTC_SetAlarm_IT(&hrtc, &sAlarm, RTC_FORMAT_BIN) != HAL_OK)
 703              		.loc 1 274 3 is_stmt 1 view .LVU163
 275:Core/Src/main.c ****   {
 704              		.loc 1 275 3 view .LVU164
 275:Core/Src/main.c ****   {
 705              		.loc 1 275 7 is_stmt 0 view .LVU165
 706 0020 6946     		mov	r1, sp
 707 0022 0548     		ldr	r0, .L55+4
 708              	.LVL44:
 275:Core/Src/main.c ****   {
 709              		.loc 1 275 7 view .LVU166
 710 0024 FFF7FEFF 		bl	HAL_RTC_SetAlarm_IT
 711              	.LVL45:
 275:Core/Src/main.c ****   {
 712              		.loc 1 275 6 view .LVU167
 713 0028 10B9     		cbnz	r0, .L54
 279:Core/Src/main.c **** 
 714              		.loc 1 279 1 view .LVU168
 715 002a 03B0     		add	sp, sp, #12
 716              	.LCFI8:
 717              		.cfi_remember_state
 718              		.cfi_def_cfa_offset 4
 719              		@ sp needed
 720 002c 5DF804FB 		ldr	pc, [sp], #4
 721              	.L54:
 722              	.LCFI9:
 723              		.cfi_restore_state
 277:Core/Src/main.c ****   }
 724              		.loc 1 277 5 is_stmt 1 view .LVU169
 725 0030 FFF7FEFF 		bl	Error_Handler
 726              	.LVL46:
 727              	.L56:
 728              		.align	2
 729              	.L55:
 730 0034 00000000 		.word	.LANCHOR16
 731 0038 00000000 		.word	hrtc
 732              		.cfi_endproc
 733              	.LFE70:
 735              		.section	.text.SystemClock_Config,"ax",%progbits
 736              		.align	1
 737              		.global	SystemClock_Config
 738              		.syntax unified
 739              		.thumb
ARM GAS  C:\Users\Admin\AppData\Local\Temp\ccE7ElAa.s 			page 35


 740              		.thumb_func
 742              	SystemClock_Config:
 743              	.LFB77:
 757:Core/Src/main.c ****   RCC_OscInitTypeDef RCC_OscInitStruct = {0};
 744              		.loc 1 757 1 view -0
 745              		.cfi_startproc
 746              		@ args = 0, pretend = 0, frame = 88
 747              		@ frame_needed = 0, uses_anonymous_args = 0
 748 0000 00B5     		push	{lr}
 749              	.LCFI10:
 750              		.cfi_def_cfa_offset 4
 751              		.cfi_offset 14, -4
 752 0002 97B0     		sub	sp, sp, #92
 753              	.LCFI11:
 754              		.cfi_def_cfa_offset 96
 758:Core/Src/main.c ****   RCC_ClkInitTypeDef RCC_ClkInitStruct = {0};
 755              		.loc 1 758 3 view .LVU171
 758:Core/Src/main.c ****   RCC_ClkInitTypeDef RCC_ClkInitStruct = {0};
 756              		.loc 1 758 22 is_stmt 0 view .LVU172
 757 0004 2822     		movs	r2, #40
 758 0006 0021     		movs	r1, #0
 759 0008 0CA8     		add	r0, sp, #48
 760 000a FFF7FEFF 		bl	memset
 761              	.LVL47:
 759:Core/Src/main.c ****   RCC_PeriphCLKInitTypeDef PeriphClkInit = {0};
 762              		.loc 1 759 3 is_stmt 1 view .LVU173
 759:Core/Src/main.c ****   RCC_PeriphCLKInitTypeDef PeriphClkInit = {0};
 763              		.loc 1 759 22 is_stmt 0 view .LVU174
 764 000e 0023     		movs	r3, #0
 765 0010 0793     		str	r3, [sp, #28]
 766 0012 0893     		str	r3, [sp, #32]
 767 0014 0993     		str	r3, [sp, #36]
 768 0016 0A93     		str	r3, [sp, #40]
 769 0018 0B93     		str	r3, [sp, #44]
 760:Core/Src/main.c **** 
 770              		.loc 1 760 3 is_stmt 1 view .LVU175
 760:Core/Src/main.c **** 
 771              		.loc 1 760 28 is_stmt 0 view .LVU176
 772 001a 0193     		str	r3, [sp, #4]
 773 001c 0293     		str	r3, [sp, #8]
 774 001e 0393     		str	r3, [sp, #12]
 775 0020 0493     		str	r3, [sp, #16]
 776 0022 0593     		str	r3, [sp, #20]
 777 0024 0693     		str	r3, [sp, #24]
 765:Core/Src/main.c ****   RCC_OscInitStruct.HSEState = RCC_HSE_ON;
 778              		.loc 1 765 3 is_stmt 1 view .LVU177
 765:Core/Src/main.c ****   RCC_OscInitStruct.HSEState = RCC_HSE_ON;
 779              		.loc 1 765 36 is_stmt 0 view .LVU178
 780 0026 0523     		movs	r3, #5
 781 0028 0C93     		str	r3, [sp, #48]
 766:Core/Src/main.c ****   RCC_OscInitStruct.HSEPredivValue = RCC_HSE_PREDIV_DIV1;
 782              		.loc 1 766 3 is_stmt 1 view .LVU179
 766:Core/Src/main.c ****   RCC_OscInitStruct.HSEPredivValue = RCC_HSE_PREDIV_DIV1;
 783              		.loc 1 766 30 is_stmt 0 view .LVU180
 784 002a 4FF48033 		mov	r3, #65536
 785 002e 0D93     		str	r3, [sp, #52]
 767:Core/Src/main.c ****   RCC_OscInitStruct.LSEState = RCC_LSE_ON;
ARM GAS  C:\Users\Admin\AppData\Local\Temp\ccE7ElAa.s 			page 36


 786              		.loc 1 767 3 is_stmt 1 view .LVU181
 768:Core/Src/main.c ****   RCC_OscInitStruct.HSIState = RCC_HSI_ON;
 787              		.loc 1 768 3 view .LVU182
 768:Core/Src/main.c ****   RCC_OscInitStruct.HSIState = RCC_HSI_ON;
 788              		.loc 1 768 30 is_stmt 0 view .LVU183
 789 0030 0122     		movs	r2, #1
 790 0032 0F92     		str	r2, [sp, #60]
 769:Core/Src/main.c ****   RCC_OscInitStruct.PLL.PLLState = RCC_PLL_ON;
 791              		.loc 1 769 3 is_stmt 1 view .LVU184
 769:Core/Src/main.c ****   RCC_OscInitStruct.PLL.PLLState = RCC_PLL_ON;
 792              		.loc 1 769 30 is_stmt 0 view .LVU185
 793 0034 1092     		str	r2, [sp, #64]
 770:Core/Src/main.c ****   RCC_OscInitStruct.PLL.PLLSource = RCC_PLLSOURCE_HSE;
 794              		.loc 1 770 3 is_stmt 1 view .LVU186
 770:Core/Src/main.c ****   RCC_OscInitStruct.PLL.PLLSource = RCC_PLLSOURCE_HSE;
 795              		.loc 1 770 34 is_stmt 0 view .LVU187
 796 0036 0222     		movs	r2, #2
 797 0038 1392     		str	r2, [sp, #76]
 771:Core/Src/main.c ****   RCC_OscInitStruct.PLL.PLLMUL = RCC_PLL_MUL9;
 798              		.loc 1 771 3 is_stmt 1 view .LVU188
 771:Core/Src/main.c ****   RCC_OscInitStruct.PLL.PLLMUL = RCC_PLL_MUL9;
 799              		.loc 1 771 35 is_stmt 0 view .LVU189
 800 003a 1493     		str	r3, [sp, #80]
 772:Core/Src/main.c ****   if (HAL_RCC_OscConfig(&RCC_OscInitStruct) != HAL_OK)
 801              		.loc 1 772 3 is_stmt 1 view .LVU190
 772:Core/Src/main.c ****   if (HAL_RCC_OscConfig(&RCC_OscInitStruct) != HAL_OK)
 802              		.loc 1 772 32 is_stmt 0 view .LVU191
 803 003c 4FF4E013 		mov	r3, #1835008
 804 0040 1593     		str	r3, [sp, #84]
 773:Core/Src/main.c ****   {
 805              		.loc 1 773 3 is_stmt 1 view .LVU192
 773:Core/Src/main.c ****   {
 806              		.loc 1 773 7 is_stmt 0 view .LVU193
 807 0042 0CA8     		add	r0, sp, #48
 808 0044 FFF7FEFF 		bl	HAL_RCC_OscConfig
 809              	.LVL48:
 773:Core/Src/main.c ****   {
 810              		.loc 1 773 6 view .LVU194
 811 0048 E0B9     		cbnz	r0, .L62
 780:Core/Src/main.c ****   RCC_ClkInitStruct.SYSCLKSource = RCC_SYSCLKSOURCE_PLLCLK;
 812              		.loc 1 780 3 is_stmt 1 view .LVU195
 780:Core/Src/main.c ****   RCC_ClkInitStruct.SYSCLKSource = RCC_SYSCLKSOURCE_PLLCLK;
 813              		.loc 1 780 31 is_stmt 0 view .LVU196
 814 004a 0F23     		movs	r3, #15
 815 004c 0793     		str	r3, [sp, #28]
 781:Core/Src/main.c ****   RCC_ClkInitStruct.AHBCLKDivider = RCC_SYSCLK_DIV1;
 816              		.loc 1 781 3 is_stmt 1 view .LVU197
 781:Core/Src/main.c ****   RCC_ClkInitStruct.AHBCLKDivider = RCC_SYSCLK_DIV1;
 817              		.loc 1 781 34 is_stmt 0 view .LVU198
 818 004e 0221     		movs	r1, #2
 819 0050 0891     		str	r1, [sp, #32]
 782:Core/Src/main.c ****   RCC_ClkInitStruct.APB1CLKDivider = RCC_HCLK_DIV2;
 820              		.loc 1 782 3 is_stmt 1 view .LVU199
 782:Core/Src/main.c ****   RCC_ClkInitStruct.APB1CLKDivider = RCC_HCLK_DIV2;
 821              		.loc 1 782 35 is_stmt 0 view .LVU200
 822 0052 0023     		movs	r3, #0
 823 0054 0993     		str	r3, [sp, #36]
ARM GAS  C:\Users\Admin\AppData\Local\Temp\ccE7ElAa.s 			page 37


 783:Core/Src/main.c ****   RCC_ClkInitStruct.APB2CLKDivider = RCC_HCLK_DIV1;
 824              		.loc 1 783 3 is_stmt 1 view .LVU201
 783:Core/Src/main.c ****   RCC_ClkInitStruct.APB2CLKDivider = RCC_HCLK_DIV1;
 825              		.loc 1 783 36 is_stmt 0 view .LVU202
 826 0056 4FF48062 		mov	r2, #1024
 827 005a 0A92     		str	r2, [sp, #40]
 784:Core/Src/main.c **** 
 828              		.loc 1 784 3 is_stmt 1 view .LVU203
 784:Core/Src/main.c **** 
 829              		.loc 1 784 36 is_stmt 0 view .LVU204
 830 005c 0B93     		str	r3, [sp, #44]
 786:Core/Src/main.c ****   {
 831              		.loc 1 786 3 is_stmt 1 view .LVU205
 786:Core/Src/main.c ****   {
 832              		.loc 1 786 7 is_stmt 0 view .LVU206
 833 005e 07A8     		add	r0, sp, #28
 834 0060 FFF7FEFF 		bl	HAL_RCC_ClockConfig
 835              	.LVL49:
 786:Core/Src/main.c ****   {
 836              		.loc 1 786 6 view .LVU207
 837 0064 80B9     		cbnz	r0, .L63
 790:Core/Src/main.c ****   PeriphClkInit.RTCClockSelection = RCC_RTCCLKSOURCE_LSE;
 838              		.loc 1 790 3 is_stmt 1 view .LVU208
 790:Core/Src/main.c ****   PeriphClkInit.RTCClockSelection = RCC_RTCCLKSOURCE_LSE;
 839              		.loc 1 790 38 is_stmt 0 view .LVU209
 840 0066 0323     		movs	r3, #3
 841 0068 0193     		str	r3, [sp, #4]
 791:Core/Src/main.c ****   PeriphClkInit.AdcClockSelection = RCC_ADCPCLK2_DIV6;
 842              		.loc 1 791 3 is_stmt 1 view .LVU210
 791:Core/Src/main.c ****   PeriphClkInit.AdcClockSelection = RCC_ADCPCLK2_DIV6;
 843              		.loc 1 791 35 is_stmt 0 view .LVU211
 844 006a 4FF48073 		mov	r3, #256
 845 006e 0293     		str	r3, [sp, #8]
 792:Core/Src/main.c ****   if (HAL_RCCEx_PeriphCLKConfig(&PeriphClkInit) != HAL_OK)
 846              		.loc 1 792 3 is_stmt 1 view .LVU212
 792:Core/Src/main.c ****   if (HAL_RCCEx_PeriphCLKConfig(&PeriphClkInit) != HAL_OK)
 847              		.loc 1 792 35 is_stmt 0 view .LVU213
 848 0070 4FF40043 		mov	r3, #32768
 849 0074 0393     		str	r3, [sp, #12]
 793:Core/Src/main.c ****   {
 850              		.loc 1 793 3 is_stmt 1 view .LVU214
 793:Core/Src/main.c ****   {
 851              		.loc 1 793 7 is_stmt 0 view .LVU215
 852 0076 01A8     		add	r0, sp, #4
 853 0078 FFF7FEFF 		bl	HAL_RCCEx_PeriphCLKConfig
 854              	.LVL50:
 793:Core/Src/main.c ****   {
 855              		.loc 1 793 6 view .LVU216
 856 007c 30B9     		cbnz	r0, .L64
 797:Core/Src/main.c **** 
 857              		.loc 1 797 1 view .LVU217
 858 007e 17B0     		add	sp, sp, #92
 859              	.LCFI12:
 860              		.cfi_remember_state
 861              		.cfi_def_cfa_offset 4
 862              		@ sp needed
 863 0080 5DF804FB 		ldr	pc, [sp], #4
ARM GAS  C:\Users\Admin\AppData\Local\Temp\ccE7ElAa.s 			page 38


 864              	.L62:
 865              	.LCFI13:
 866              		.cfi_restore_state
 775:Core/Src/main.c ****   }
 867              		.loc 1 775 5 is_stmt 1 view .LVU218
 868 0084 FFF7FEFF 		bl	Error_Handler
 869              	.LVL51:
 870              	.L63:
 788:Core/Src/main.c ****   }
 871              		.loc 1 788 5 view .LVU219
 872 0088 FFF7FEFF 		bl	Error_Handler
 873              	.LVL52:
 874              	.L64:
 795:Core/Src/main.c ****   }
 875              		.loc 1 795 5 view .LVU220
 876 008c FFF7FEFF 		bl	Error_Handler
 877              	.LVL53:
 878              		.cfi_endproc
 879              	.LFE77:
 881              		.section	.rodata.main.str1.4,"aMS",%progbits,1
 882              		.align	2
 883              	.LC3:
 884 0000 0A475348 		.ascii	"\012GSHT START\012\000"
 884      54205354 
 884      4152540A 
 884      00
 885 000d 000000   		.align	2
 886              	.LC4:
 887 0010 52464944 		.ascii	"RFID init successfull\012\000"
 887      20696E69 
 887      74207375 
 887      63636573 
 887      7366756C 
 888 0027 00       		.align	2
 889              	.LC5:
 890 0028 474E5353 		.ascii	"GNSS init successfull\012\000"
 890      20696E69 
 890      74207375 
 890      63636573 
 890      7366756C 
 891 003f 00       		.align	2
 892              	.LC6:
 893 0040 323A3533 		.ascii	"2:53\000"
 893      00
 894 0045 000000   		.align	2
 895              	.LC7:
 896 0048 312F312F 		.ascii	"1/1/2023\000"
 896      32303233 
 896      00
 897 0051 000000   		.align	2
 898              	.LC8:
 899 0054 4C6F6E3A 		.ascii	"Lon:            E\000"
 899      20202020 
 899      20202020 
 899      20202020 
 899      4500
 900 0066 0000     		.align	2
ARM GAS  C:\Users\Admin\AppData\Local\Temp\ccE7ElAa.s 			page 39


 901              	.LC9:
 902 0068 4C61743A 		.ascii	"Lat:           N\000"
 902      20202020 
 902      20202020 
 902      2020204E 
 902      00
 903 0079 000000   		.align	2
 904              	.LC10:
 905 007c 53706565 		.ascii	"Speed:      m/s\000"
 905      643A2020 
 905      20202020 
 905      6D2F7300 
 906              		.align	2
 907              	.LC11:
 908 008c 2F00     		.ascii	"/\000"
 909 008e 0000     		.align	2
 910              	.LC12:
 911 0090 4552524F 		.ascii	"ERROR!!! in mounting SD CARD...\012\012\000"
 911      52212121 
 911      20696E20 
 911      6D6F756E 
 911      74696E67 
 912 00b2 0000     		.align	2
 913              	.LC13:
 914 00b4 53442043 		.ascii	"SD CARD mounted successfully...\012\012\000"
 914      41524420 
 914      6D6F756E 
 914      74656420 
 914      73756363 
 915 00d6 0000     		.align	2
 916              	.LC14:
 917 00d8 36344334 		.ascii	"64C43951\000"
 917      33393531 
 917      00
 918 00e1 000000   		.align	2
 919              	.LC15:
 920 00e4 4E677579 		.ascii	"Nguyen_Huy_Hoang\000"
 920      656E5F48 
 920      75795F48 
 920      6F616E67 
 920      00
 921 00f5 000000   		.align	2
 922              	.LC16:
 923 00f8 5649455F 		.ascii	"VIE_0987035442\000"
 923      30393837 
 923      30333534 
 923      343200
 924 0107 00       		.align	2
 925              	.LC17:
 926 0108 33304E2D 		.ascii	"30N-1234\000"
 926      31323334 
 926      00
 927 0111 000000   		.align	2
 928              	.LC18:
 929 0114 31323433 		.ascii	"1243\000"
 929      00
 930 0119 000000   		.align	2
ARM GAS  C:\Users\Admin\AppData\Local\Temp\ccE7ElAa.s 			page 40


 931              	.LC19:
 932 011c 4E677579 		.ascii	"Nguyen_Van_A\000"
 932      656E5F56 
 932      616E5F41 
 932      00
 933 0129 000000   		.align	2
 934              	.LC20:
 935 012c 5649455F 		.ascii	"VIE_0123562571\000"
 935      30313233 
 935      35363235 
 935      373100
 936 013b 00       		.align	2
 937              	.LC21:
 938 013c 33304E2D 		.ascii	"30N-3611\000"
 938      33363131 
 938      00
 939 0145 000000   		.align	2
 940              	.LC22:
 941 0148 47534854 		.ascii	"GSHT_ID01\000"
 941      5F494430 
 941      3100
 942 0152 0000     		.align	2
 943              	.LC23:
 944 0154 25303258 		.ascii	"%02X%02X%02X%02X\000"
 944      25303258 
 944      25303258 
 944      25303258 
 944      00
 945 0165 000000   		.align	2
 946              	.LC24:
 947 0168 49443120 		.ascii	"ID1 TAG valid\012\000"
 947      54414720 
 947      76616C69 
 947      640A00
 948 0177 00       		.align	2
 949              	.LC25:
 950 0178 49443220 		.ascii	"ID2 TAG valid\012\000"
 950      54414720 
 950      76616C69 
 950      640A00
 951 0187 00       		.align	2
 952              	.LC26:
 953 0188 49442054 		.ascii	"ID TAG invalid\012\000"
 953      41472069 
 953      6E76616C 
 953      69640A00 
 954              		.align	2
 955              	.LC27:
 956 0198 25643A25 		.ascii	"%d:%d:%d\000"
 956      643A2564 
 956      00
 957 01a1 000000   		.align	2
 958              	.LC28:
 959 01a4 0A00     		.ascii	"\012\000"
 960 01a6 0000     		.align	2
 961              	.LC29:
 962 01a8 25642F25 		.ascii	"%d/%d/%d\000"
ARM GAS  C:\Users\Admin\AppData\Local\Temp\ccE7ElAa.s 			page 41


 962      642F2564 
 962      00
 963 01b1 000000   		.align	2
 964              	.LC30:
 965 01b4 25646825 		.ascii	"%dh%d\000"
 965      6400
 966 01ba 0000     		.align	2
 967              	.LC31:
 968 01bc 2E303030 		.ascii	".000000\000"
 968      30303000 
 969              		.align	2
 970              	.LC32:
 971 01c4 0A475348 		.ascii	"\012GSHT Start\012\000"
 971      54205374 
 971      6172740A 
 971      00
 972 01d1 000000   		.align	2
 973              	.LC33:
 974 01d4 54414B53 		.ascii	"TAKS SENSORS\012\000"
 974      2053454E 
 974      534F5253 
 974      0A00
 975              		.global	__aeabi_f2iz
 976 01e2 0000     		.align	2
 977              	.LC34:
 978 01e4 256400   		.ascii	"%d\000"
 979 01e7 00       		.align	2
 980              	.LC35:
 981 01e8 323000   		.ascii	"20\000"
 982 01eb 00       		.align	2
 983              	.LC36:
 984 01ec 383000   		.ascii	"80\000"
 985 01ef 00       		.align	2
 986              	.LC37:
 987 01f0 4E686965 		.ascii	"Nhiet do thiet bi: \000"
 987      7420646F 
 987      20746869 
 987      65742062 
 987      693A2000 
 988              		.align	2
 989              	.LC38:
 990 0204 54414B53 		.ascii	"TAKS GNSS\012\000"
 990      20474E53 
 990      530A00
 991 020f 00       		.align	2
 992              	.LC39:
 993 0210 54414B53 		.ascii	"TAKS SIM\012\000"
 993      2053494D 
 993      0A00
 994 021a 0000     		.align	2
 995              	.LC40:
 996 021c 7B226F6E 		.ascii	"{\"online\":%s,\"offline\":%s,\"sleep\":%s,\"device"
 996      6C696E65 
 996      223A2573 
 996      2C226F66 
 996      666C696E 
 997 0248 4944223A 		.ascii	"ID\":%s,\"license\":%s,\"name\":%s,\"phone\":%s,\"s"
ARM GAS  C:\Users\Admin\AppData\Local\Temp\ccE7ElAa.s 			page 42


 997      25732C22 
 997      6C696365 
 997      6E736522 
 997      3A25732C 
 998 0273 69676E61 		.ascii	"ignal\":%s,\"latitude\":%s,\"longitude\":%s,\"ds18b"
 998      6C223A25 
 998      732C226C 
 998      61746974 
 998      75646522 
 999 02a0 3230223A 		.ascii	"20\":%s,\"dhttemp\":%s,\"dhthum\":%s,\"fuel\":%s,\""
 999      25732C22 
 999      64687474 
 999      656D7022 
 999      3A25732C 
 1000 02cb 74696D65 		.ascii	"timetotal\":%s,\"speed\":%s}\000"
 1000      746F7461 
 1000      6C223A25 
 1000      732C2273 
 1000      70656564 
 1001 02e5 000000   		.align	2
 1002              	.LC41:
 1003 02e8 76312F64 		.ascii	"v1/devices/me/telemetry\000"
 1003      65766963 
 1003      65732F6D 
 1003      652F7465 
 1003      6C656D65 
 1004              		.align	2
 1005              	.LC42:
 1006 0300 0A546F74 		.ascii	"\012Total time: \000"
 1006      616C2074 
 1006      696D653A 
 1006      2000
 1007 030e 0000     		.align	2
 1008              	.LC43:
 1009 0310 5441534B 		.ascii	"TASK STORE\012\000"
 1009      2053544F 
 1009      52450A00 
 1010              		.align	2
 1011              	.LC44:
 1012 031c 47534854 		.ascii	"GSHT1.txt\000"
 1012      312E7478 
 1012      7400
 1013 0326 0000     		.align	2
 1014              	.LC45:
 1015 0328 6F70656E 		.ascii	"open error...\012\012\000"
 1015      20657272 
 1015      6F722E2E 
 1015      2E0A0A00 
 1016              		.align	2
 1017              	.LC46:
 1018 0338 6F70656E 		.ascii	"open successfully...\012\012\000"
 1018      20737563 
 1018      63657373 
 1018      66756C6C 
 1018      792E2E2E 
 1019 034f 00       		.align	2
 1020              	.LC47:
ARM GAS  C:\Users\Admin\AppData\Local\Temp\ccE7ElAa.s 			page 43


 1021 0350 0900     		.ascii	"\011\000"
 1022 0352 0000     		.align	2
 1023              	.LC48:
 1024 0354 5441534B 		.ascii	"TASK DISPLAY\012\000"
 1024      20444953 
 1024      504C4159 
 1024      0A00
 1025 0362 0000     		.align	2
 1026              	.LC49:
 1027 0364 54616720 		.ascii	"Tag invalid\012\000"
 1027      696E7661 
 1027      6C69640A 
 1027      00
 1028 0371 000000   		.align	2
 1029              	.LC50:
 1030 0374 54616720 		.ascii	"Tag valid, End of schedual\012\000"
 1030      76616C69 
 1030      642C2045 
 1030      6E64206F 
 1030      66207363 
 1031              		.align	2
 1032              	.LC51:
 1033 0390 7B227369 		.ascii	"{\"signal\":LOGOUT}\000"
 1033      676E616C 
 1033      223A4C4F 
 1033      474F5554 
 1033      7D00
 1034 03a2 0000     		.align	2
 1035              	.LC52:
 1036 03a4 44657669 		.ascii	"Device start sleep\012\000"
 1036      63652073 
 1036      74617274 
 1036      20736C65 
 1036      65700A00 
 1037              		.align	2
 1038              	.LC53:
 1039 03b8 52454144 		.ascii	"READ\012\000"
 1039      0A00
 1040              		.section	.text.main,"ax",%progbits
 1041              		.align	1
 1042              		.global	main
 1043              		.syntax unified
 1044              		.thumb
 1045              		.thumb_func
 1047              	main:
 1048              	.LFB76:
 399:Core/Src/main.c ****   /* USER CODE BEGIN 1 */
 1049              		.loc 1 399 1 view -0
 1050              		.cfi_startproc
 1051              		@ Volatile: function does not return.
 1052              		@ args = 0, pretend = 0, frame = 0
 1053              		@ frame_needed = 0, uses_anonymous_args = 0
 1054 0000 80B5     		push	{r7, lr}
 1055              	.LCFI14:
 1056              		.cfi_def_cfa_offset 8
 1057              		.cfi_offset 7, -8
 1058              		.cfi_offset 14, -4
ARM GAS  C:\Users\Admin\AppData\Local\Temp\ccE7ElAa.s 			page 44


 1059 0002 8EB0     		sub	sp, sp, #56
 1060              	.LCFI15:
 1061              		.cfi_def_cfa_offset 64
 407:Core/Src/main.c **** 
 1062              		.loc 1 407 3 view .LVU222
 1063 0004 FFF7FEFF 		bl	HAL_Init
 1064              	.LVL54:
 414:Core/Src/main.c **** 
 1065              		.loc 1 414 3 view .LVU223
 1066 0008 FFF7FEFF 		bl	SystemClock_Config
 1067              	.LVL55:
 421:Core/Src/main.c ****   MX_ADC1_Init();
 1068              		.loc 1 421 3 view .LVU224
 1069 000c FFF7FEFF 		bl	MX_GPIO_Init
 1070              	.LVL56:
 422:Core/Src/main.c ****   MX_SPI1_Init();
 1071              		.loc 1 422 3 view .LVU225
 1072 0010 FFF7FEFF 		bl	MX_ADC1_Init
 1073              	.LVL57:
 423:Core/Src/main.c ****   MX_ADC2_Init();
 1074              		.loc 1 423 3 view .LVU226
 1075 0014 FFF7FEFF 		bl	MX_SPI1_Init
 1076              	.LVL58:
 424:Core/Src/main.c ****   MX_TIM1_Init();
 1077              		.loc 1 424 3 view .LVU227
 1078 0018 FFF7FEFF 		bl	MX_ADC2_Init
 1079              	.LVL59:
 425:Core/Src/main.c ****   MX_UART5_Init();
 1080              		.loc 1 425 3 view .LVU228
 1081 001c FFF7FEFF 		bl	MX_TIM1_Init
 1082              	.LVL60:
 426:Core/Src/main.c ****   MX_I2C1_Init();
 1083              		.loc 1 426 3 view .LVU229
 1084 0020 FFF7FEFF 		bl	MX_UART5_Init
 1085              	.LVL61:
 427:Core/Src/main.c ****   MX_SPI2_Init();
 1086              		.loc 1 427 3 view .LVU230
 1087 0024 FFF7FEFF 		bl	MX_I2C1_Init
 1088              	.LVL62:
 428:Core/Src/main.c ****   MX_SPI3_Init();
 1089              		.loc 1 428 3 view .LVU231
 1090 0028 FFF7FEFF 		bl	MX_SPI2_Init
 1091              	.LVL63:
 429:Core/Src/main.c ****   MX_UART4_Init();
 1092              		.loc 1 429 3 view .LVU232
 1093 002c FFF7FEFF 		bl	MX_SPI3_Init
 1094              	.LVL64:
 430:Core/Src/main.c ****   MX_USART1_UART_Init();
 1095              		.loc 1 430 3 view .LVU233
 1096 0030 FFF7FEFF 		bl	MX_UART4_Init
 1097              	.LVL65:
 431:Core/Src/main.c ****   MX_USART2_UART_Init();
 1098              		.loc 1 431 3 view .LVU234
 1099 0034 FFF7FEFF 		bl	MX_USART1_UART_Init
 1100              	.LVL66:
 432:Core/Src/main.c ****   MX_TIM2_Init();
 1101              		.loc 1 432 3 view .LVU235
ARM GAS  C:\Users\Admin\AppData\Local\Temp\ccE7ElAa.s 			page 45


 1102 0038 FFF7FEFF 		bl	MX_USART2_UART_Init
 1103              	.LVL67:
 433:Core/Src/main.c ****   MX_TIM3_Init();
 1104              		.loc 1 433 3 view .LVU236
 1105 003c FFF7FEFF 		bl	MX_TIM2_Init
 1106              	.LVL68:
 434:Core/Src/main.c ****   MX_RTC_Init();
 1107              		.loc 1 434 3 view .LVU237
 1108 0040 FFF7FEFF 		bl	MX_TIM3_Init
 1109              	.LVL69:
 435:Core/Src/main.c ****   MX_FATFS_Init();
 1110              		.loc 1 435 3 view .LVU238
 1111 0044 FFF7FEFF 		bl	MX_RTC_Init
 1112              	.LVL70:
 436:Core/Src/main.c ****   /* USER CODE BEGIN 2 */
 1113              		.loc 1 436 3 view .LVU239
 1114 0048 FFF7FEFF 		bl	MX_FATFS_Init
 1115              	.LVL71:
 438:Core/Src/main.c ****   // init all
 1116              		.loc 1 438 3 view .LVU240
 1117 004c AC48     		ldr	r0, .L99
 1118 004e FFF7FEFF 		bl	log_data
 1119              	.LVL72:
 440:Core/Src/main.c ****   log_data("RFID init successfull\n");
 1120              		.loc 1 440 3 view .LVU241
 1121 0052 FFF7FEFF 		bl	rc522_init
 1122              	.LVL73:
 441:Core/Src/main.c ****   HAL_Delay(10);
 1123              		.loc 1 441 3 view .LVU242
 1124 0056 AB48     		ldr	r0, .L99+4
 1125 0058 FFF7FEFF 		bl	log_data
 1126              	.LVL74:
 442:Core/Src/main.c **** 
 1127              		.loc 1 442 3 view .LVU243
 1128 005c 0A20     		movs	r0, #10
 1129 005e FFF7FEFF 		bl	HAL_Delay
 1130              	.LVL75:
 444:Core/Src/main.c ****   log_data("GNSS init successfull\n");
 1131              		.loc 1 444 3 view .LVU244
 1132 0062 FFF7FEFF 		bl	l70_init
 1133              	.LVL76:
 445:Core/Src/main.c ****   HAL_Delay(500);
 1134              		.loc 1 445 3 view .LVU245
 1135 0066 A848     		ldr	r0, .L99+8
 1136 0068 FFF7FEFF 		bl	log_data
 1137              	.LVL77:
 446:Core/Src/main.c **** 
 1138              		.loc 1 446 3 view .LVU246
 1139 006c 4FF4FA70 		mov	r0, #500
 1140 0070 FFF7FEFF 		bl	HAL_Delay
 1141              	.LVL78:
 450:Core/Src/main.c ****    sim7672_check_signalStrength();
 1142              		.loc 1 450 4 view .LVU247
 1143 0074 FFF7FEFF 		bl	sim7672_init
 1144              	.LVL79:
 451:Core/Src/main.c ****   //  mqtt_disconnectServer();
 1145              		.loc 1 451 4 view .LVU248
ARM GAS  C:\Users\Admin\AppData\Local\Temp\ccE7ElAa.s 			page 46


 1146 0078 FFF7FEFF 		bl	sim7672_check_signalStrength
 1147              	.LVL80:
 454:Core/Src/main.c ****    HAL_Delay(100);
 1148              		.loc 1 454 4 view .LVU249
 1149 007c FFF7FEFF 		bl	mqtt_connectServer
 1150              	.LVL81:
 455:Core/Src/main.c **** 
 1151              		.loc 1 455 4 view .LVU250
 1152 0080 6420     		movs	r0, #100
 1153 0082 FFF7FEFF 		bl	HAL_Delay
 1154              	.LVL82:
 460:Core/Src/main.c **** 
 1155              		.loc 1 460 3 view .LVU251
 1156 0086 FFF7FEFF 		bl	SSD1306_Init
 1157              	.LVL83:
 462:Core/Src/main.c ****   SSD1306_DrawBitmap(0, 0, bitmap, 128, 64, 1);
 1158              		.loc 1 462 3 view .LVU252
 1159 008a FFF7FEFF 		bl	SSD1306_Clear
 1160              	.LVL84:
 463:Core/Src/main.c ****   SSD1306_GotoXY(75, 2);
 1161              		.loc 1 463 3 view .LVU253
 1162 008e 0124     		movs	r4, #1
 1163 0090 0194     		str	r4, [sp, #4]
 1164 0092 4023     		movs	r3, #64
 1165 0094 0093     		str	r3, [sp]
 1166 0096 8023     		movs	r3, #128
 1167 0098 9C4A     		ldr	r2, .L99+12
 1168 009a 0021     		movs	r1, #0
 1169 009c 0846     		mov	r0, r1
 1170 009e FFF7FEFF 		bl	SSD1306_DrawBitmap
 1171              	.LVL85:
 464:Core/Src/main.c ****   SSD1306_Puts("2:53", &Font_7x10, 1);
 1172              		.loc 1 464 3 view .LVU254
 1173 00a2 0221     		movs	r1, #2
 1174 00a4 4B20     		movs	r0, #75
 1175 00a6 FFF7FEFF 		bl	SSD1306_GotoXY
 1176              	.LVL86:
 465:Core/Src/main.c ****   SSD1306_GotoXY(30, 16);
 1177              		.loc 1 465 3 view .LVU255
 1178 00aa 994D     		ldr	r5, .L99+16
 1179 00ac 2246     		mov	r2, r4
 1180 00ae 2946     		mov	r1, r5
 1181 00b0 9848     		ldr	r0, .L99+20
 1182 00b2 FFF7FEFF 		bl	SSD1306_Puts
 1183              	.LVL87:
 466:Core/Src/main.c ****   SSD1306_Puts("1/1/2023", &Font_7x10, 1);
 1184              		.loc 1 466 3 view .LVU256
 1185 00b6 1021     		movs	r1, #16
 1186 00b8 1E20     		movs	r0, #30
 1187 00ba FFF7FEFF 		bl	SSD1306_GotoXY
 1188              	.LVL88:
 467:Core/Src/main.c ****   SSD1306_GotoXY(1, 28);
 1189              		.loc 1 467 3 view .LVU257
 1190 00be 2246     		mov	r2, r4
 1191 00c0 2946     		mov	r1, r5
 1192 00c2 9548     		ldr	r0, .L99+24
 1193 00c4 FFF7FEFF 		bl	SSD1306_Puts
ARM GAS  C:\Users\Admin\AppData\Local\Temp\ccE7ElAa.s 			page 47


 1194              	.LVL89:
 468:Core/Src/main.c ****   SSD1306_Puts("Lon:            E", &Font_7x10, 1);
 1195              		.loc 1 468 3 view .LVU258
 1196 00c8 1C21     		movs	r1, #28
 1197 00ca 2046     		mov	r0, r4
 1198 00cc FFF7FEFF 		bl	SSD1306_GotoXY
 1199              	.LVL90:
 469:Core/Src/main.c ****   SSD1306_GotoXY(1, 40);
 1200              		.loc 1 469 3 view .LVU259
 1201 00d0 2246     		mov	r2, r4
 1202 00d2 2946     		mov	r1, r5
 1203 00d4 9148     		ldr	r0, .L99+28
 1204 00d6 FFF7FEFF 		bl	SSD1306_Puts
 1205              	.LVL91:
 470:Core/Src/main.c ****   SSD1306_Puts("Lat:           N", &Font_7x10, 1);
 1206              		.loc 1 470 3 view .LVU260
 1207 00da 2821     		movs	r1, #40
 1208 00dc 2046     		mov	r0, r4
 1209 00de FFF7FEFF 		bl	SSD1306_GotoXY
 1210              	.LVL92:
 471:Core/Src/main.c ****   SSD1306_GotoXY(1, 52);
 1211              		.loc 1 471 3 view .LVU261
 1212 00e2 2246     		mov	r2, r4
 1213 00e4 2946     		mov	r1, r5
 1214 00e6 8E48     		ldr	r0, .L99+32
 1215 00e8 FFF7FEFF 		bl	SSD1306_Puts
 1216              	.LVL93:
 472:Core/Src/main.c ****   SSD1306_Puts("Speed:      m/s", &Font_7x10, 1);
 1217              		.loc 1 472 3 view .LVU262
 1218 00ec 3421     		movs	r1, #52
 1219 00ee 2046     		mov	r0, r4
 1220 00f0 FFF7FEFF 		bl	SSD1306_GotoXY
 1221              	.LVL94:
 473:Core/Src/main.c ****   SSD1306_UpdateScreen();
 1222              		.loc 1 473 3 view .LVU263
 1223 00f4 2246     		mov	r2, r4
 1224 00f6 2946     		mov	r1, r5
 1225 00f8 8A48     		ldr	r0, .L99+36
 1226 00fa FFF7FEFF 		bl	SSD1306_Puts
 1227              	.LVL95:
 474:Core/Src/main.c **** 
 1228              		.loc 1 474 3 view .LVU264
 1229 00fe FFF7FEFF 		bl	SSD1306_UpdateScreen
 1230              	.LVL96:
 476:Core/Src/main.c ****   if (fresult != FR_OK)
 1231              		.loc 1 476 3 view .LVU265
 476:Core/Src/main.c ****   if (fresult != FR_OK)
 1232              		.loc 1 476 13 is_stmt 0 view .LVU266
 1233 0102 2246     		mov	r2, r4
 1234 0104 8849     		ldr	r1, .L99+40
 1235 0106 8948     		ldr	r0, .L99+44
 1236 0108 FFF7FEFF 		bl	f_mount
 1237              	.LVL97:
 476:Core/Src/main.c ****   if (fresult != FR_OK)
 1238              		.loc 1 476 11 view .LVU267
 1239 010c 884B     		ldr	r3, .L99+48
 1240 010e 1870     		strb	r0, [r3]
ARM GAS  C:\Users\Admin\AppData\Local\Temp\ccE7ElAa.s 			page 48


 477:Core/Src/main.c ****     log_data("ERROR!!! in mounting SD CARD...\n\n");
 1241              		.loc 1 477 3 is_stmt 1 view .LVU268
 477:Core/Src/main.c ****     log_data("ERROR!!! in mounting SD CARD...\n\n");
 1242              		.loc 1 477 6 is_stmt 0 view .LVU269
 1243 0110 0028     		cmp	r0, #0
 1244 0112 57D0     		beq	.L66
 478:Core/Src/main.c ****   else
 1245              		.loc 1 478 5 is_stmt 1 view .LVU270
 1246 0114 8748     		ldr	r0, .L99+52
 1247 0116 FFF7FEFF 		bl	log_data
 1248              	.LVL98:
 1249              	.L67:
 482:Core/Src/main.c ****   strcpy(stateDevice.offline, "0");
 1250              		.loc 1 482 3 view .LVU271
 1251 011a 874B     		ldr	r3, .L99+56
 1252 011c 3122     		movs	r2, #49
 1253 011e 1A80     		strh	r2, [r3]	@ movhi
 483:Core/Src/main.c ****   strcpy(stateDevice.sleep, "0");
 1254              		.loc 1 483 3 view .LVU272
 1255 0120 3022     		movs	r2, #48
 1256 0122 5A80     		strh	r2, [r3, #2]	@ movhi
 484:Core/Src/main.c ****   strcpy(stateDevice.signal, "OK");
 1257              		.loc 1 484 3 view .LVU273
 1258 0124 9A80     		strh	r2, [r3, #4]	@ movhi
 485:Core/Src/main.c **** 
 1259              		.loc 1 485 3 view .LVU274
 1260 0126 854A     		ldr	r2, .L99+60
 1261 0128 1188     		ldrh	r1, [r2]	@ unaligned
 1262 012a 9278     		ldrb	r2, [r2, #2]	@ zero_extendqisi2
 1263 012c D980     		strh	r1, [r3, #6]	@ unaligned
 1264 012e 1A72     		strb	r2, [r3, #8]
 487:Core/Src/main.c ****   strcpy(infoUser1.name, "Nguyen_Huy_Hoang");
 1265              		.loc 1 487 3 view .LVU275
 1266 0130 834C     		ldr	r4, .L99+64
 1267 0132 844A     		ldr	r2, .L99+68
 1268 0134 2346     		mov	r3, r4
 1269 0136 07CA     		ldm	r2, {r0, r1, r2}
 1270 0138 03C3     		stmia	r3!, {r0, r1}
 1271 013a 1A70     		strb	r2, [r3]
 488:Core/Src/main.c ****   strcpy(infoUser1.phoneNum, "VIE_0987035442");
 1272              		.loc 1 488 3 view .LVU276
 1273 013c 04F11405 		add	r5, r4, #20
 1274 0140 814E     		ldr	r6, .L99+72
 1275 0142 0FCE     		ldmia	r6!, {r0, r1, r2, r3}
 1276 0144 0FC5     		stmia	r5!, {r0, r1, r2, r3}
 1277 0146 3368     		ldr	r3, [r6]
 1278 0148 2B70     		strb	r3, [r5]
 489:Core/Src/main.c ****   strcpy(infoUser1.license, "30N-1234");
 1279              		.loc 1 489 3 view .LVU277
 1280 014a 804B     		ldr	r3, .L99+76
 1281 014c 07CB     		ldmia	r3!, {r0, r1, r2}
 1282 014e C4F83200 		str	r0, [r4, #50]	@ unaligned
 1283 0152 C4F83610 		str	r1, [r4, #54]	@ unaligned
 1284 0156 C4F83A20 		str	r2, [r4, #58]	@ unaligned
 1285 015a 1A88     		ldrh	r2, [r3]	@ unaligned
 1286 015c 9B78     		ldrb	r3, [r3, #2]	@ zero_extendqisi2
 1287 015e E287     		strh	r2, [r4, #62]	@ unaligned
ARM GAS  C:\Users\Admin\AppData\Local\Temp\ccE7ElAa.s 			page 49


 1288 0160 84F84030 		strb	r3, [r4, #64]
 490:Core/Src/main.c **** 
 1289              		.loc 1 490 3 view .LVU278
 1290 0164 7A4B     		ldr	r3, .L99+80
 1291 0166 2834     		adds	r4, r4, #40
 1292 0168 93E80700 		ldm	r3, {r0, r1, r2}
 1293 016c 03C4     		stmia	r4!, {r0, r1}
 1294 016e 2270     		strb	r2, [r4]
 492:Core/Src/main.c ****   strcpy(infoUser2.name, "Nguyen_Van_A");
 1295              		.loc 1 492 3 view .LVU279
 1296 0170 784C     		ldr	r4, .L99+84
 1297 0172 794B     		ldr	r3, .L99+88
 1298 0174 93E80300 		ldm	r3, {r0, r1}
 1299 0178 2060     		str	r0, [r4]
 1300 017a 2171     		strb	r1, [r4, #4]
 493:Core/Src/main.c ****   strcpy(infoUser2.phoneNum, "VIE_0123562571");
 1301              		.loc 1 493 3 view .LVU280
 1302 017c 774B     		ldr	r3, .L99+92
 1303 017e 04F11405 		add	r5, r4, #20
 1304 0182 0FCB     		ldm	r3, {r0, r1, r2, r3}
 1305 0184 07C5     		stmia	r5!, {r0, r1, r2}
 1306 0186 2B70     		strb	r3, [r5]
 494:Core/Src/main.c ****   strcpy(infoUser2.license, "30N-3611");
 1307              		.loc 1 494 3 view .LVU281
 1308 0188 754B     		ldr	r3, .L99+96
 1309 018a 07CB     		ldmia	r3!, {r0, r1, r2}
 1310 018c C4F83200 		str	r0, [r4, #50]	@ unaligned
 1311 0190 C4F83610 		str	r1, [r4, #54]	@ unaligned
 1312 0194 C4F83A20 		str	r2, [r4, #58]	@ unaligned
 1313 0198 1A88     		ldrh	r2, [r3]	@ unaligned
 1314 019a 9B78     		ldrb	r3, [r3, #2]	@ zero_extendqisi2
 1315 019c E287     		strh	r2, [r4, #62]	@ unaligned
 1316 019e 84F84030 		strb	r3, [r4, #64]
 495:Core/Src/main.c **** 
 1317              		.loc 1 495 3 view .LVU282
 1318 01a2 704B     		ldr	r3, .L99+100
 1319 01a4 2834     		adds	r4, r4, #40
 1320 01a6 93E80700 		ldm	r3, {r0, r1, r2}
 1321 01aa 03C4     		stmia	r4!, {r0, r1}
 1322 01ac 2270     		strb	r2, [r4]
 497:Core/Src/main.c ****   // READ TAG RFID
 1323              		.loc 1 497 3 view .LVU283
 1324 01ae 6E4A     		ldr	r2, .L99+104
 1325 01b0 6E4B     		ldr	r3, .L99+108
 1326 01b2 03CB     		ldmia	r3!, {r0, r1}
 1327 01b4 C2F84600 		str	r0, [r2, #70]	@ unaligned
 1328 01b8 C2F84A10 		str	r1, [r2, #74]	@ unaligned
 1329 01bc 1B88     		ldrh	r3, [r3]	@ unaligned
 1330 01be A2F84E30 		strh	r3, [r2, #78]	@ unaligned
 499:Core/Src/main.c ****   {
 1331              		.loc 1 499 3 view .LVU284
 499:Core/Src/main.c ****   {
 1332              		.loc 1 499 9 is_stmt 0 view .LVU285
 1333 01c2 09E0     		b	.L69
 1334              	.L66:
 480:Core/Src/main.c ****   // Read data FLASH
 1335              		.loc 1 480 5 is_stmt 1 view .LVU286
ARM GAS  C:\Users\Admin\AppData\Local\Temp\ccE7ElAa.s 			page 50


 1336 01c4 6A48     		ldr	r0, .L99+112
 1337 01c6 FFF7FEFF 		bl	log_data
 1338              	.LVL99:
 1339 01ca A6E7     		b	.L67
 1340              	.L73:
 502:Core/Src/main.c ****     {
 1341              		.loc 1 502 5 view .LVU287
 502:Core/Src/main.c ****     {
 1342              		.loc 1 502 9 is_stmt 0 view .LVU288
 1343 01cc 6948     		ldr	r0, .L99+116
 1344 01ce FFF7FEFF 		bl	rc522_check
 1345              	.LVL100:
 502:Core/Src/main.c ****     {
 1346              		.loc 1 502 8 view .LVU289
 1347 01d2 0028     		cmp	r0, #0
 1348 01d4 00F00681 		beq	.L95
 1349              	.L69:
 499:Core/Src/main.c ****   {
 1350              		.loc 1 499 9 is_stmt 1 view .LVU290
 499:Core/Src/main.c ****   {
 1351              		.loc 1 499 10 is_stmt 0 view .LVU291
 1352 01d8 6749     		ldr	r1, .L99+120
 1353 01da 5948     		ldr	r0, .L99+64
 1354 01dc FFF7FEFF 		bl	strcmp
 1355              	.LVL101:
 499:Core/Src/main.c ****   {
 1356              		.loc 1 499 9 view .LVU292
 1357 01e0 0028     		cmp	r0, #0
 1358 01e2 F3D1     		bne	.L73
 499:Core/Src/main.c ****   {
 1359              		.loc 1 499 55 discriminator 1 view .LVU293
 1360 01e4 6449     		ldr	r1, .L99+120
 1361 01e6 5B48     		ldr	r0, .L99+84
 1362 01e8 FFF7FEFF 		bl	strcmp
 1363              	.LVL102:
 499:Core/Src/main.c ****   {
 1364              		.loc 1 499 52 discriminator 1 view .LVU294
 1365 01ec 0028     		cmp	r0, #0
 1366 01ee EDD1     		bne	.L73
 1367              	.L72:
 542:Core/Src/main.c ****   HAL_RTC_GetDate(&hrtc, &current_sDate, RTC_FORMAT_BIN);
 1368              		.loc 1 542 3 is_stmt 1 view .LVU295
 1369 01f0 624C     		ldr	r4, .L99+124
 1370 01f2 634D     		ldr	r5, .L99+128
 1371 01f4 0022     		movs	r2, #0
 1372 01f6 2146     		mov	r1, r4
 1373 01f8 2846     		mov	r0, r5
 1374 01fa FFF7FEFF 		bl	HAL_RTC_GetTime
 1375              	.LVL103:
 543:Core/Src/main.c ****   set_alarm(4);
 1376              		.loc 1 543 3 view .LVU296
 1377 01fe 614E     		ldr	r6, .L99+132
 1378 0200 0022     		movs	r2, #0
 1379 0202 3146     		mov	r1, r6
 1380 0204 2846     		mov	r0, r5
 1381 0206 FFF7FEFF 		bl	HAL_RTC_GetDate
 1382              	.LVL104:
ARM GAS  C:\Users\Admin\AppData\Local\Temp\ccE7ElAa.s 			page 51


 544:Core/Src/main.c ****   sprintf(time_buff, "%d:%d:%d", current_sTime.Hours, current_sTime.Minutes, current_sTime.Seconds)
 1383              		.loc 1 544 3 view .LVU297
 1384 020a 0420     		movs	r0, #4
 1385 020c FFF7FEFF 		bl	set_alarm
 1386              	.LVL105:
 545:Core/Src/main.c ****   log_data(time_buff);
 1387              		.loc 1 545 3 view .LVU298
 545:Core/Src/main.c ****   log_data(time_buff);
 1388              		.loc 1 545 91 is_stmt 0 view .LVU299
 1389 0210 A378     		ldrb	r3, [r4, #2]	@ zero_extendqisi2
 545:Core/Src/main.c ****   log_data(time_buff);
 1390              		.loc 1 545 3 view .LVU300
 1391 0212 5D4F     		ldr	r7, .L99+136
 1392 0214 0093     		str	r3, [sp]
 1393 0216 6378     		ldrb	r3, [r4, #1]	@ zero_extendqisi2
 1394 0218 2278     		ldrb	r2, [r4]	@ zero_extendqisi2
 1395 021a 5C49     		ldr	r1, .L99+140
 1396 021c 3846     		mov	r0, r7
 1397 021e FFF7FEFF 		bl	sprintf
 1398              	.LVL106:
 546:Core/Src/main.c ****   log_data("\n");
 1399              		.loc 1 546 3 is_stmt 1 view .LVU301
 1400 0222 3846     		mov	r0, r7
 1401 0224 FFF7FEFF 		bl	log_data
 1402              	.LVL107:
 547:Core/Src/main.c ****   sprintf(date_buff, "%d/%d/%d", current_sDate.Date, current_sDate.Month, current_sDate.Year);
 1403              		.loc 1 547 3 view .LVU302
 1404 0228 594F     		ldr	r7, .L99+144
 1405 022a 3846     		mov	r0, r7
 1406 022c FFF7FEFF 		bl	log_data
 1407              	.LVL108:
 548:Core/Src/main.c ****   log_data(date_buff);
 1408              		.loc 1 548 3 view .LVU303
 548:Core/Src/main.c ****   log_data(date_buff);
 1409              		.loc 1 548 88 is_stmt 0 view .LVU304
 1410 0230 F378     		ldrb	r3, [r6, #3]	@ zero_extendqisi2
 548:Core/Src/main.c ****   log_data(date_buff);
 1411              		.loc 1 548 3 view .LVU305
 1412 0232 DFF86081 		ldr	r8, .L99+148
 1413 0236 0093     		str	r3, [sp]
 1414 0238 7378     		ldrb	r3, [r6, #1]	@ zero_extendqisi2
 1415 023a B278     		ldrb	r2, [r6, #2]	@ zero_extendqisi2
 1416 023c 5649     		ldr	r1, .L99+152
 1417 023e 4046     		mov	r0, r8
 1418 0240 FFF7FEFF 		bl	sprintf
 1419              	.LVL109:
 549:Core/Src/main.c ****   log_data("\n");
 1420              		.loc 1 549 3 is_stmt 1 view .LVU306
 1421 0244 4046     		mov	r0, r8
 1422 0246 FFF7FEFF 		bl	log_data
 1423              	.LVL110:
 550:Core/Src/main.c ****   HAL_RTC_GetTime(&hrtc, &last_sTime, RTC_FORMAT_BIN);
 1424              		.loc 1 550 3 view .LVU307
 1425 024a 3846     		mov	r0, r7
 1426 024c FFF7FEFF 		bl	log_data
 1427              	.LVL111:
 551:Core/Src/main.c ****   HAL_RTC_GetDate(&hrtc, &last_sDate, RTC_FORMAT_BIN);
ARM GAS  C:\Users\Admin\AppData\Local\Temp\ccE7ElAa.s 			page 52


 1428              		.loc 1 551 3 view .LVU308
 1429 0250 524E     		ldr	r6, .L99+156
 1430 0252 0022     		movs	r2, #0
 1431 0254 3146     		mov	r1, r6
 1432 0256 2846     		mov	r0, r5
 1433 0258 FFF7FEFF 		bl	HAL_RTC_GetTime
 1434              	.LVL112:
 552:Core/Src/main.c ****   totalMinute_OperateTime = (60 * last_sTime.Hours + last_sTime.Minutes) - (60 * current_sTime.Hour
 1435              		.loc 1 552 3 view .LVU309
 1436 025c 0022     		movs	r2, #0
 1437 025e 5049     		ldr	r1, .L99+160
 1438 0260 2846     		mov	r0, r5
 1439 0262 FFF7FEFF 		bl	HAL_RTC_GetDate
 1440              	.LVL113:
 553:Core/Src/main.c ****   time_hour = totalMinute_OperateTime / 60;
 1441              		.loc 1 553 3 view .LVU310
 553:Core/Src/main.c ****   time_hour = totalMinute_OperateTime / 60;
 1442              		.loc 1 553 45 is_stmt 0 view .LVU311
 1443 0266 3278     		ldrb	r2, [r6]	@ zero_extendqisi2
 553:Core/Src/main.c ****   time_hour = totalMinute_OperateTime / 60;
 1444              		.loc 1 553 64 view .LVU312
 1445 0268 7378     		ldrb	r3, [r6, #1]	@ zero_extendqisi2
 553:Core/Src/main.c ****   time_hour = totalMinute_OperateTime / 60;
 1446              		.loc 1 553 52 view .LVU313
 1447 026a C2EB0212 		rsb	r2, r2, r2, lsl #4
 1448 026e 03EB8203 		add	r3, r3, r2, lsl #2
 1449 0272 9BB2     		uxth	r3, r3
 553:Core/Src/main.c ****   time_hour = totalMinute_OperateTime / 60;
 1450              		.loc 1 553 95 view .LVU314
 1451 0274 2178     		ldrb	r1, [r4]	@ zero_extendqisi2
 553:Core/Src/main.c ****   time_hour = totalMinute_OperateTime / 60;
 1452              		.loc 1 553 117 view .LVU315
 1453 0276 6278     		ldrb	r2, [r4, #1]	@ zero_extendqisi2
 553:Core/Src/main.c ****   time_hour = totalMinute_OperateTime / 60;
 1454              		.loc 1 553 102 view .LVU316
 1455 0278 C1EB0111 		rsb	r1, r1, r1, lsl #4
 1456 027c 02EB8102 		add	r2, r2, r1, lsl #2
 1457 0280 92B2     		uxth	r2, r2
 553:Core/Src/main.c ****   time_hour = totalMinute_OperateTime / 60;
 1458              		.loc 1 553 74 view .LVU317
 1459 0282 9B1A     		subs	r3, r3, r2
 1460 0284 9BB2     		uxth	r3, r3
 553:Core/Src/main.c ****   time_hour = totalMinute_OperateTime / 60;
 1461              		.loc 1 553 27 view .LVU318
 1462 0286 474A     		ldr	r2, .L99+164
 1463 0288 1380     		strh	r3, [r2]	@ movhi
 554:Core/Src/main.c ****   time_minute = totalMinute_OperateTime - time_hour * 60;
 1464              		.loc 1 554 3 is_stmt 1 view .LVU319
 554:Core/Src/main.c ****   time_minute = totalMinute_OperateTime - time_hour * 60;
 1465              		.loc 1 554 39 is_stmt 0 view .LVU320
 1466 028a 474A     		ldr	r2, .L99+168
 1467 028c A2FB0312 		umull	r1, r2, r2, r3
 1468 0290 5209     		lsrs	r2, r2, #5
 554:Core/Src/main.c ****   time_minute = totalMinute_OperateTime - time_hour * 60;
 1469              		.loc 1 554 13 view .LVU321
 1470 0292 4649     		ldr	r1, .L99+172
 1471 0294 0A60     		str	r2, [r1]
ARM GAS  C:\Users\Admin\AppData\Local\Temp\ccE7ElAa.s 			page 53


 555:Core/Src/main.c ****   sprintf(totalMinute_OperateTime_buff, "%dh%d", time_hour, time_minute);
 1472              		.loc 1 555 3 is_stmt 1 view .LVU322
 555:Core/Src/main.c ****   sprintf(totalMinute_OperateTime_buff, "%dh%d", time_hour, time_minute);
 1473              		.loc 1 555 53 is_stmt 0 view .LVU323
 1474 0296 A2EB0211 		sub	r1, r2, r2, lsl #4
 555:Core/Src/main.c ****   sprintf(totalMinute_OperateTime_buff, "%dh%d", time_hour, time_minute);
 1475              		.loc 1 555 41 view .LVU324
 1476 029a 03EB8103 		add	r3, r3, r1, lsl #2
 555:Core/Src/main.c ****   sprintf(totalMinute_OperateTime_buff, "%dh%d", time_hour, time_minute);
 1477              		.loc 1 555 15 view .LVU325
 1478 029e 4449     		ldr	r1, .L99+176
 1479 02a0 0B60     		str	r3, [r1]
 556:Core/Src/main.c ****   // wait for gps
 1480              		.loc 1 556 3 is_stmt 1 view .LVU326
 1481 02a2 4449     		ldr	r1, .L99+180
 1482 02a4 4448     		ldr	r0, .L99+184
 1483 02a6 FFF7FEFF 		bl	sprintf
 1484              	.LVL114:
 1485              	.L75:
 558:Core/Src/main.c ****   {
 1486              		.loc 1 558 3 discriminator 2 view .LVU327
 560:Core/Src/main.c ****     l70_handleGPS(GPSResponse);
 1487              		.loc 1 560 5 discriminator 2 view .LVU328
 560:Core/Src/main.c ****     l70_handleGPS(GPSResponse);
 1488              		.loc 1 560 19 is_stmt 0 discriminator 2 view .LVU329
 1489 02aa FFF7FEFF 		bl	l70_receiveGPS
 1490              	.LVL115:
 560:Core/Src/main.c ****     l70_handleGPS(GPSResponse);
 1491              		.loc 1 560 17 discriminator 2 view .LVU330
 1492 02ae 434B     		ldr	r3, .L99+188
 1493 02b0 1860     		str	r0, [r3]
 561:Core/Src/main.c ****     HAL_Delay(1000);
 1494              		.loc 1 561 5 is_stmt 1 discriminator 2 view .LVU331
 1495 02b2 FFF7FEFF 		bl	l70_handleGPS
 1496              	.LVL116:
 562:Core/Src/main.c ****   } while (strstr(l70DataAfterHadler.latitude, ".000000") != NULL && strstr(l70DataAfterHadler.long
 1497              		.loc 1 562 5 discriminator 2 view .LVU332
 1498 02b6 4FF47A70 		mov	r0, #1000
 1499 02ba FFF7FEFF 		bl	HAL_Delay
 1500              	.LVL117:
 563:Core/Src/main.c ****   log_data("\nGSHT Start\n");
 1501              		.loc 1 563 11 discriminator 2 view .LVU333
 563:Core/Src/main.c ****   log_data("\nGSHT Start\n");
 1502              		.loc 1 563 12 is_stmt 0 discriminator 2 view .LVU334
 1503 02be 4049     		ldr	r1, .L99+192
 1504 02c0 4048     		ldr	r0, .L99+196
 1505 02c2 FFF7FEFF 		bl	strstr
 1506              	.LVL118:
 563:Core/Src/main.c ****   log_data("\nGSHT Start\n");
 1507              		.loc 1 563 3 discriminator 2 view .LVU335
 1508 02c6 28B1     		cbz	r0, .L74
 563:Core/Src/main.c ****   log_data("\nGSHT Start\n");
 1509              		.loc 1 563 70 discriminator 1 view .LVU336
 1510 02c8 3D49     		ldr	r1, .L99+192
 1511 02ca 3F48     		ldr	r0, .L99+200
 1512 02cc FFF7FEFF 		bl	strstr
 1513              	.LVL119:
ARM GAS  C:\Users\Admin\AppData\Local\Temp\ccE7ElAa.s 			page 54


 563:Core/Src/main.c ****   log_data("\nGSHT Start\n");
 1514              		.loc 1 563 67 discriminator 1 view .LVU337
 1515 02d0 0028     		cmp	r0, #0
 1516 02d2 EAD1     		bne	.L75
 1517              	.L74:
 564:Core/Src/main.c ****   // Check ID tag in Flash
 1518              		.loc 1 564 3 is_stmt 1 view .LVU338
 1519 02d4 3D48     		ldr	r0, .L99+204
 1520 02d6 FFF7FEFF 		bl	log_data
 1521              	.LVL120:
 567:Core/Src/main.c ****   HAL_TIM_Base_Start_IT(&htim3); // Task
 1522              		.loc 1 567 3 view .LVU339
 1523 02da 4FF4FA70 		mov	r0, #500
 1524 02de FFF7FEFF 		bl	set_timer
 1525              	.LVL121:
 568:Core/Src/main.c ****   HAL_TIM_Base_Start(&htim1);    // Sensors
 1526              		.loc 1 568 3 view .LVU340
 1527 02e2 3B48     		ldr	r0, .L99+208
 1528 02e4 FFF7FEFF 		bl	HAL_TIM_Base_Start_IT
 1529              	.LVL122:
 569:Core/Src/main.c ****   HAL_TIM_Base_Start_IT(&htim2); // RFID
 1530              		.loc 1 569 3 view .LVU341
 1531 02e8 3A48     		ldr	r0, .L99+212
 1532 02ea FFF7FEFF 		bl	HAL_TIM_Base_Start
 1533              	.LVL123:
 570:Core/Src/main.c ****   // set_timer(1000);
 1534              		.loc 1 570 3 view .LVU342
 1535 02ee 3A48     		ldr	r0, .L99+216
 1536 02f0 FFF7FEFF 		bl	HAL_TIM_Base_Start_IT
 1537              	.LVL124:
 572:Core/Src/main.c ****   /* USER CODE END 2 */
 1538              		.loc 1 572 3 view .LVU343
 1539 02f4 0122     		movs	r2, #1
 1540 02f6 3949     		ldr	r1, .L99+220
 1541 02f8 3948     		ldr	r0, .L99+224
 1542 02fa FFF7FEFF 		bl	HAL_UART_Receive_IT
 1543              	.LVL125:
 1544 02fe E2E0     		b	.L93
 1545              	.L100:
 1546              		.align	2
 1547              	.L99:
 1548 0300 00000000 		.word	.LC3
 1549 0304 10000000 		.word	.LC4
 1550 0308 28000000 		.word	.LC5
 1551 030c 00000000 		.word	.LANCHOR17
 1552 0310 00000000 		.word	Font_7x10
 1553 0314 40000000 		.word	.LC6
 1554 0318 48000000 		.word	.LC7
 1555 031c 54000000 		.word	.LC8
 1556 0320 68000000 		.word	.LC9
 1557 0324 7C000000 		.word	.LC10
 1558 0328 8C000000 		.word	.LC11
 1559 032c 00000000 		.word	fs
 1560 0330 00000000 		.word	.LANCHOR18
 1561 0334 90000000 		.word	.LC12
 1562 0338 00000000 		.word	.LANCHOR19
 1563 033c 10000000 		.word	.LC2
ARM GAS  C:\Users\Admin\AppData\Local\Temp\ccE7ElAa.s 			page 55


 1564 0340 00000000 		.word	.LANCHOR20
 1565 0344 D8000000 		.word	.LC14
 1566 0348 E4000000 		.word	.LC15
 1567 034c F8000000 		.word	.LC16
 1568 0350 08010000 		.word	.LC17
 1569 0354 00000000 		.word	.LANCHOR21
 1570 0358 14010000 		.word	.LC18
 1571 035c 1C010000 		.word	.LC19
 1572 0360 2C010000 		.word	.LC20
 1573 0364 3C010000 		.word	.LC21
 1574 0368 00000000 		.word	.LANCHOR0
 1575 036c 48010000 		.word	.LC22
 1576 0370 B4000000 		.word	.LC13
 1577 0374 00000000 		.word	.LANCHOR12
 1578 0378 00000000 		.word	.LANCHOR22
 1579 037c 00000000 		.word	.LANCHOR16
 1580 0380 00000000 		.word	hrtc
 1581 0384 00000000 		.word	.LANCHOR23
 1582 0388 00000000 		.word	.LANCHOR24
 1583 038c 98010000 		.word	.LC27
 1584 0390 A4010000 		.word	.LC28
 1585 0394 00000000 		.word	.LANCHOR25
 1586 0398 A8010000 		.word	.LC29
 1587 039c 00000000 		.word	.LANCHOR26
 1588 03a0 00000000 		.word	.LANCHOR27
 1589 03a4 00000000 		.word	.LANCHOR28
 1590 03a8 89888888 		.word	-2004318071
 1591 03ac 00000000 		.word	.LANCHOR29
 1592 03b0 00000000 		.word	.LANCHOR30
 1593 03b4 B4010000 		.word	.LC30
 1594 03b8 00000000 		.word	.LANCHOR31
 1595 03bc 00000000 		.word	.LANCHOR32
 1596 03c0 BC010000 		.word	.LC31
 1597 03c4 0C000000 		.word	l70DataAfterHadler+12
 1598 03c8 20000000 		.word	l70DataAfterHadler+32
 1599 03cc C4010000 		.word	.LC32
 1600 03d0 00000000 		.word	htim3
 1601 03d4 00000000 		.word	htim1
 1602 03d8 00000000 		.word	htim2
 1603 03dc 00000000 		.word	.LANCHOR4
 1604 03e0 00000000 		.word	huart2
 1605              	.L95:
 504:Core/Src/main.c ****       log_data(Card_Startbuff);
 1606              		.loc 1 504 7 view .LVU344
 504:Core/Src/main.c ****       log_data(Card_Startbuff);
 1607              		.loc 1 504 57 is_stmt 0 view .LVU345
 1608 03e4 A54A     		ldr	r2, .L101
 504:Core/Src/main.c ****       log_data(Card_Startbuff);
 1609              		.loc 1 504 79 view .LVU346
 1610 03e6 9378     		ldrb	r3, [r2, #2]	@ zero_extendqisi2
 504:Core/Src/main.c ****       log_data(Card_Startbuff);
 1611              		.loc 1 504 90 view .LVU347
 1612 03e8 D178     		ldrb	r1, [r2, #3]	@ zero_extendqisi2
 504:Core/Src/main.c ****       log_data(Card_Startbuff);
 1613              		.loc 1 504 7 view .LVU348
 1614 03ea A54C     		ldr	r4, .L101+4
 1615 03ec 0191     		str	r1, [sp, #4]
ARM GAS  C:\Users\Admin\AppData\Local\Temp\ccE7ElAa.s 			page 56


 1616 03ee 0093     		str	r3, [sp]
 1617 03f0 5378     		ldrb	r3, [r2, #1]	@ zero_extendqisi2
 1618 03f2 1278     		ldrb	r2, [r2]	@ zero_extendqisi2
 1619 03f4 A349     		ldr	r1, .L101+8
 1620 03f6 2046     		mov	r0, r4
 1621 03f8 FFF7FEFF 		bl	sprintf
 1622              	.LVL126:
 505:Core/Src/main.c ****       if (strcmp(infoUser1.ID, Card_Startbuff) == 0)
 1623              		.loc 1 505 7 is_stmt 1 view .LVU349
 1624 03fc 2046     		mov	r0, r4
 1625 03fe FFF7FEFF 		bl	log_data
 1626              	.LVL127:
 506:Core/Src/main.c ****       {
 1627              		.loc 1 506 7 view .LVU350
 506:Core/Src/main.c ****       {
 1628              		.loc 1 506 11 is_stmt 0 view .LVU351
 1629 0402 2146     		mov	r1, r4
 1630 0404 A048     		ldr	r0, .L101+12
 1631 0406 FFF7FEFF 		bl	strcmp
 1632              	.LVL128:
 506:Core/Src/main.c ****       {
 1633              		.loc 1 506 10 view .LVU352
 1634 040a 38B3     		cbz	r0, .L96
 1635              	.L70:
 518:Core/Src/main.c ****       {
 1636              		.loc 1 518 7 is_stmt 1 view .LVU353
 518:Core/Src/main.c ****       {
 1637              		.loc 1 518 11 is_stmt 0 view .LVU354
 1638 040c 9C49     		ldr	r1, .L101+4
 1639 040e 9F48     		ldr	r0, .L101+16
 1640 0410 FFF7FEFF 		bl	strcmp
 1641              	.LVL129:
 518:Core/Src/main.c ****       {
 1642              		.loc 1 518 10 view .LVU355
 1643 0414 0028     		cmp	r0, #0
 1644 0416 43D1     		bne	.L71
 520:Core/Src/main.c ****         strcpy(infoUser.ID, infoUser2.ID);
 1645              		.loc 1 520 9 is_stmt 1 view .LVU356
 520:Core/Src/main.c ****         strcpy(infoUser.ID, infoUser2.ID);
 1646              		.loc 1 520 24 is_stmt 0 view .LVU357
 1647 0418 9D4B     		ldr	r3, .L101+20
 1648 041a 0122     		movs	r2, #1
 1649 041c 1A70     		strb	r2, [r3]
 521:Core/Src/main.c ****         strcpy(infoUser.name, infoUser2.name);
 1650              		.loc 1 521 9 is_stmt 1 view .LVU358
 1651 041e 9B4D     		ldr	r5, .L101+16
 1652 0420 9C4C     		ldr	r4, .L101+24
 1653 0422 2946     		mov	r1, r5
 1654 0424 2046     		mov	r0, r4
 1655 0426 FFF7FEFF 		bl	strcpy
 1656              	.LVL130:
 522:Core/Src/main.c ****         strcpy(infoUser.phoneNum, infoUser2.phoneNum);
 1657              		.loc 1 522 9 view .LVU359
 1658 042a 05F11401 		add	r1, r5, #20
 1659 042e 04F11400 		add	r0, r4, #20
 1660 0432 FFF7FEFF 		bl	strcpy
 1661              	.LVL131:
ARM GAS  C:\Users\Admin\AppData\Local\Temp\ccE7ElAa.s 			page 57


 523:Core/Src/main.c ****         strcpy(infoUser.license, infoUser2.license);
 1662              		.loc 1 523 9 view .LVU360
 1663 0436 05F13201 		add	r1, r5, #50
 1664 043a 04F13200 		add	r0, r4, #50
 1665 043e FFF7FEFF 		bl	strcpy
 1666              	.LVL132:
 524:Core/Src/main.c ****         buzzer(200);
 1667              		.loc 1 524 9 view .LVU361
 1668 0442 05F12801 		add	r1, r5, #40
 1669 0446 04F12800 		add	r0, r4, #40
 1670 044a FFF7FEFF 		bl	strcpy
 1671              	.LVL133:
 525:Core/Src/main.c ****         // HAL_Delay(200);
 1672              		.loc 1 525 9 view .LVU362
 1673 044e C820     		movs	r0, #200
 1674 0450 FFF7FEFF 		bl	buzzer
 1675              	.LVL134:
 528:Core/Src/main.c ****       }
 1676              		.loc 1 528 9 view .LVU363
 1677 0454 9048     		ldr	r0, .L101+28
 1678 0456 FFF7FEFF 		bl	log_data
 1679              	.LVL135:
 1680 045a BDE6     		b	.L69
 1681              	.L96:
 508:Core/Src/main.c ****         strcpy(infoUser.ID, infoUser1.ID);
 1682              		.loc 1 508 9 view .LVU364
 508:Core/Src/main.c ****         strcpy(infoUser.ID, infoUser1.ID);
 1683              		.loc 1 508 24 is_stmt 0 view .LVU365
 1684 045c 8C4B     		ldr	r3, .L101+20
 1685 045e 0122     		movs	r2, #1
 1686 0460 1A70     		strb	r2, [r3]
 509:Core/Src/main.c ****         strcpy(infoUser.name, infoUser1.name);
 1687              		.loc 1 509 9 is_stmt 1 view .LVU366
 1688 0462 894D     		ldr	r5, .L101+12
 1689 0464 8B4C     		ldr	r4, .L101+24
 1690 0466 2946     		mov	r1, r5
 1691 0468 2046     		mov	r0, r4
 1692 046a FFF7FEFF 		bl	strcpy
 1693              	.LVL136:
 510:Core/Src/main.c ****         strcpy(infoUser.phoneNum, infoUser1.phoneNum);
 1694              		.loc 1 510 9 view .LVU367
 1695 046e 05F11401 		add	r1, r5, #20
 1696 0472 04F11400 		add	r0, r4, #20
 1697 0476 FFF7FEFF 		bl	strcpy
 1698              	.LVL137:
 511:Core/Src/main.c ****         strcpy(infoUser.license, infoUser1.license);
 1699              		.loc 1 511 9 view .LVU368
 1700 047a 05F13201 		add	r1, r5, #50
 1701 047e 04F13200 		add	r0, r4, #50
 1702 0482 FFF7FEFF 		bl	strcpy
 1703              	.LVL138:
 512:Core/Src/main.c ****         buzzer(200);
 1704              		.loc 1 512 9 view .LVU369
 1705 0486 05F12801 		add	r1, r5, #40
 1706 048a 04F12800 		add	r0, r4, #40
 1707 048e FFF7FEFF 		bl	strcpy
 1708              	.LVL139:
ARM GAS  C:\Users\Admin\AppData\Local\Temp\ccE7ElAa.s 			page 58


 513:Core/Src/main.c ****         // HAL_Delay(200);
 1709              		.loc 1 513 9 view .LVU370
 1710 0492 C820     		movs	r0, #200
 1711 0494 FFF7FEFF 		bl	buzzer
 1712              	.LVL140:
 516:Core/Src/main.c ****       }
 1713              		.loc 1 516 9 view .LVU371
 1714 0498 8048     		ldr	r0, .L101+32
 1715 049a FFF7FEFF 		bl	log_data
 1716              	.LVL141:
 1717 049e B5E7     		b	.L70
 1718              	.L71:
 533:Core/Src/main.c ****         HAL_Delay(200);
 1719              		.loc 1 533 9 view .LVU372
 1720 04a0 C820     		movs	r0, #200
 1721 04a2 FFF7FEFF 		bl	buzzer
 1722              	.LVL142:
 534:Core/Src/main.c ****         buzzer(200);
 1723              		.loc 1 534 9 view .LVU373
 1724 04a6 C820     		movs	r0, #200
 1725 04a8 FFF7FEFF 		bl	HAL_Delay
 1726              	.LVL143:
 535:Core/Src/main.c ****         log_data("ID TAG invalid\n");
 1727              		.loc 1 535 9 view .LVU374
 1728 04ac C820     		movs	r0, #200
 1729 04ae FFF7FEFF 		bl	buzzer
 1730              	.LVL144:
 536:Core/Src/main.c ****         break;
 1731              		.loc 1 536 9 view .LVU375
 1732 04b2 7B48     		ldr	r0, .L101+36
 1733 04b4 FFF7FEFF 		bl	log_data
 1734              	.LVL145:
 537:Core/Src/main.c ****       }
 1735              		.loc 1 537 9 view .LVU376
 1736 04b8 9AE6     		b	.L72
 1737              	.L83:
 586:Core/Src/main.c ****       {
 1738              		.loc 1 586 7 view .LVU377
 586:Core/Src/main.c ****       {
 1739              		.loc 1 586 23 is_stmt 0 view .LVU378
 1740 04ba 7A4B     		ldr	r3, .L101+40
 1741 04bc 1B78     		ldrb	r3, [r3]	@ zero_extendqisi2
 586:Core/Src/main.c ****       {
 1742              		.loc 1 586 10 view .LVU379
 1743 04be ABB1     		cbz	r3, .L97
 1744              	.L76:
 745:Core/Src/main.c **** #endif
 1745              		.loc 1 745 5 is_stmt 1 view .LVU380
 1746 04c0 6420     		movs	r0, #100
 1747 04c2 FFF7FEFF 		bl	HAL_Delay
 1748              	.LVL146:
 577:Core/Src/main.c ****   {
 1749              		.loc 1 577 9 view .LVU381
 1750              	.L93:
 577:Core/Src/main.c ****   {
 1751              		.loc 1 577 3 view .LVU382
 583:Core/Src/main.c ****     {
ARM GAS  C:\Users\Admin\AppData\Local\Temp\ccE7ElAa.s 			page 59


 1752              		.loc 1 583 5 view .LVU383
 1753 04c6 784B     		ldr	r3, .L101+44
 1754 04c8 1B68     		ldr	r3, [r3]
 1755 04ca 052B     		cmp	r3, #5
 1756 04cc F8D8     		bhi	.L76
 1757 04ce 01A2     		adr	r2, .L78
 1758 04d0 52F823F0 		ldr	pc, [r2, r3, lsl #2]
 1759              		.p2align 2
 1760              	.L78:
 1761 04d4 BB040000 		.word	.L83+1
 1762 04d8 47050000 		.word	.L82+1
 1763 04dc 69050000 		.word	.L81+1
 1764 04e0 1D070000 		.word	.L80+1
 1765 04e4 D7070000 		.word	.L79+1
 1766 04e8 6D080000 		.word	.L77+1
 1767              		.p2align 1
 1768              	.L97:
 588:Core/Src/main.c ****         Taskperform.TaskSensors = true;
 1769              		.loc 1 588 9 view .LVU384
 1770 04ec 6F48     		ldr	r0, .L101+48
 1771 04ee FFF7FEFF 		bl	log_data
 1772              	.LVL147:
 589:Core/Src/main.c ****         ds18_temp = (int)DS18B20_Result();
 1773              		.loc 1 589 9 view .LVU385
 589:Core/Src/main.c ****         ds18_temp = (int)DS18B20_Result();
 1774              		.loc 1 589 33 is_stmt 0 view .LVU386
 1775 04f2 6C4B     		ldr	r3, .L101+40
 1776 04f4 0122     		movs	r2, #1
 1777 04f6 1A70     		strb	r2, [r3]
 590:Core/Src/main.c ****         // DHT11_Result(dht_temp, dht_hum);
 1778              		.loc 1 590 9 is_stmt 1 view .LVU387
 590:Core/Src/main.c ****         // DHT11_Result(dht_temp, dht_hum);
 1779              		.loc 1 590 26 is_stmt 0 view .LVU388
 1780 04f8 FFF7FEFF 		bl	DS18B20_Result
 1781              	.LVL148:
 590:Core/Src/main.c ****         // DHT11_Result(dht_temp, dht_hum);
 1782              		.loc 1 590 21 view .LVU389
 1783 04fc FFF7FEFF 		bl	__aeabi_f2iz
 1784              	.LVL149:
 1785 0500 0246     		mov	r2, r0
 590:Core/Src/main.c ****         // DHT11_Result(dht_temp, dht_hum);
 1786              		.loc 1 590 19 view .LVU390
 1787 0502 6B4B     		ldr	r3, .L101+52
 1788 0504 1860     		str	r0, [r3]
 592:Core/Src/main.c ****         // sprintf(sensors.dhtTemp_buff,"%d",(int)dht_temp);
 1789              		.loc 1 592 9 is_stmt 1 view .LVU391
 1790 0506 6B4C     		ldr	r4, .L101+56
 1791 0508 6B49     		ldr	r1, .L101+60
 1792 050a 2046     		mov	r0, r4
 1793 050c FFF7FEFF 		bl	sprintf
 1794              	.LVL150:
 599:Core/Src/main.c ****         strcpy(sensors.dhtHum_buff, "80");
 1795              		.loc 1 599 9 view .LVU392
 1796 0510 6A4B     		ldr	r3, .L101+64
 1797 0512 1A88     		ldrh	r2, [r3]	@ unaligned
 1798 0514 9B78     		ldrb	r3, [r3, #2]	@ zero_extendqisi2
 1799 0516 A4F80520 		strh	r2, [r4, #5]	@ unaligned
ARM GAS  C:\Users\Admin\AppData\Local\Temp\ccE7ElAa.s 			page 60


 1800 051a E371     		strb	r3, [r4, #7]
 600:Core/Src/main.c ****         // log_data("Nhiet do va do am moi truong: ");
 1801              		.loc 1 600 9 view .LVU393
 1802 051c 684B     		ldr	r3, .L101+68
 1803 051e 1A88     		ldrh	r2, [r3]	@ unaligned
 1804 0520 9B78     		ldrb	r3, [r3, #2]	@ zero_extendqisi2
 1805 0522 A4F83720 		strh	r2, [r4, #55]	@ unaligned
 1806 0526 84F83930 		strb	r3, [r4, #57]
 606:Core/Src/main.c ****         log_data("Nhiet do thiet bi: ");
 1807              		.loc 1 606 9 view .LVU394
 1808 052a A4F86920 		strh	r2, [r4, #105]	@ unaligned
 1809 052e 84F86B30 		strb	r3, [r4, #107]
 607:Core/Src/main.c ****         log_data(sensors.ds18_buff);
 1810              		.loc 1 607 9 view .LVU395
 1811 0532 6448     		ldr	r0, .L101+72
 1812 0534 FFF7FEFF 		bl	log_data
 1813              	.LVL151:
 608:Core/Src/main.c ****         log_data("\n");
 1814              		.loc 1 608 9 view .LVU396
 1815 0538 2046     		mov	r0, r4
 1816 053a FFF7FEFF 		bl	log_data
 1817              	.LVL152:
 609:Core/Src/main.c ****       }
 1818              		.loc 1 609 9 view .LVU397
 1819 053e 6248     		ldr	r0, .L101+76
 1820 0540 FFF7FEFF 		bl	log_data
 1821              	.LVL153:
 1822 0544 BCE7     		b	.L76
 1823              	.L82:
 613:Core/Src/main.c ****       {
 1824              		.loc 1 613 7 view .LVU398
 613:Core/Src/main.c ****       {
 1825              		.loc 1 613 23 is_stmt 0 view .LVU399
 1826 0546 574B     		ldr	r3, .L101+40
 1827 0548 5B78     		ldrb	r3, [r3, #1]	@ zero_extendqisi2
 613:Core/Src/main.c ****       {
 1828              		.loc 1 613 10 view .LVU400
 1829 054a 002B     		cmp	r3, #0
 1830 054c B8D1     		bne	.L76
 615:Core/Src/main.c ****         Taskperform.TaskGNSS = true;
 1831              		.loc 1 615 9 is_stmt 1 view .LVU401
 1832 054e 5F48     		ldr	r0, .L101+80
 1833 0550 FFF7FEFF 		bl	log_data
 1834              	.LVL154:
 616:Core/Src/main.c ****         GPSResponse = l70_receiveGPS();
 1835              		.loc 1 616 9 view .LVU402
 616:Core/Src/main.c ****         GPSResponse = l70_receiveGPS();
 1836              		.loc 1 616 30 is_stmt 0 view .LVU403
 1837 0554 534B     		ldr	r3, .L101+40
 1838 0556 0122     		movs	r2, #1
 1839 0558 5A70     		strb	r2, [r3, #1]
 617:Core/Src/main.c ****         l70_handleGPS(GPSResponse);
 1840              		.loc 1 617 9 is_stmt 1 view .LVU404
 617:Core/Src/main.c ****         l70_handleGPS(GPSResponse);
 1841              		.loc 1 617 23 is_stmt 0 view .LVU405
 1842 055a FFF7FEFF 		bl	l70_receiveGPS
 1843              	.LVL155:
ARM GAS  C:\Users\Admin\AppData\Local\Temp\ccE7ElAa.s 			page 61


 617:Core/Src/main.c ****         l70_handleGPS(GPSResponse);
 1844              		.loc 1 617 21 view .LVU406
 1845 055e 5C4B     		ldr	r3, .L101+84
 1846 0560 1860     		str	r0, [r3]
 618:Core/Src/main.c ****       }
 1847              		.loc 1 618 9 is_stmt 1 view .LVU407
 1848 0562 FFF7FEFF 		bl	l70_handleGPS
 1849              	.LVL156:
 1850 0566 ABE7     		b	.L76
 1851              	.L81:
 622:Core/Src/main.c ****       {
 1852              		.loc 1 622 7 view .LVU408
 622:Core/Src/main.c ****       {
 1853              		.loc 1 622 23 is_stmt 0 view .LVU409
 1854 0568 4E4B     		ldr	r3, .L101+40
 1855 056a 9B78     		ldrb	r3, [r3, #2]	@ zero_extendqisi2
 622:Core/Src/main.c ****       {
 1856              		.loc 1 622 10 view .LVU410
 1857 056c 002B     		cmp	r3, #0
 1858 056e A7D1     		bne	.L76
 624:Core/Src/main.c ****         Taskperform.TaskSIM = true;
 1859              		.loc 1 624 9 is_stmt 1 view .LVU411
 1860 0570 5848     		ldr	r0, .L101+88
 1861 0572 FFF7FEFF 		bl	log_data
 1862              	.LVL157:
 625:Core/Src/main.c ****         memset(Json_Data,'\0',sizeof(Json_Data));
 1863              		.loc 1 625 9 view .LVU412
 625:Core/Src/main.c ****         memset(Json_Data,'\0',sizeof(Json_Data));
 1864              		.loc 1 625 29 is_stmt 0 view .LVU413
 1865 0576 4B4B     		ldr	r3, .L101+40
 1866 0578 0122     		movs	r2, #1
 1867 057a 9A70     		strb	r2, [r3, #2]
 626:Core/Src/main.c ****         sprintf(totalMinute_OperateTime_buff, "%dh%d", time_hour, time_minute);
 1868              		.loc 1 626 9 is_stmt 1 view .LVU414
 1869 057c 564C     		ldr	r4, .L101+92
 1870 057e 4FF4FA72 		mov	r2, #500
 1871 0582 0021     		movs	r1, #0
 1872 0584 2046     		mov	r0, r4
 1873 0586 FFF7FEFF 		bl	memset
 1874              	.LVL158:
 627:Core/Src/main.c ****         sprintf(Json_Data, "{\"online\":%s,\"offline\":%s,\"sleep\":%s,\"deviceID\":%s,\"license\":
 1875              		.loc 1 627 9 view .LVU415
 1876 058a 544D     		ldr	r5, .L101+96
 1877 058c 544B     		ldr	r3, .L101+100
 1878 058e 1B68     		ldr	r3, [r3]
 1879 0590 544A     		ldr	r2, .L101+104
 1880 0592 1268     		ldr	r2, [r2]
 1881 0594 5449     		ldr	r1, .L101+108
 1882 0596 2846     		mov	r0, r5
 1883 0598 FFF7FEFF 		bl	sprintf
 1884              	.LVL159:
 628:Core/Src/main.c ****                 stateDevice.online, stateDevice.offline, stateDevice.sleep, infoUser.deviceID, info
 1885              		.loc 1 628 9 view .LVU416
 1886 059c 534A     		ldr	r2, .L101+112
 1887 059e 544B     		ldr	r3, .L101+116
 1888 05a0 0D93     		str	r3, [sp, #52]
 1889 05a2 0C95     		str	r5, [sp, #48]
ARM GAS  C:\Users\Admin\AppData\Local\Temp\ccE7ElAa.s 			page 62


 1890 05a4 4349     		ldr	r1, .L101+56
 1891 05a6 01F16900 		add	r0, r1, #105
 1892 05aa 0B90     		str	r0, [sp, #44]
 1893 05ac 01F13700 		add	r0, r1, #55
 1894 05b0 0A90     		str	r0, [sp, #40]
 1895 05b2 481D     		adds	r0, r1, #5
 1896 05b4 0990     		str	r0, [sp, #36]
 1897 05b6 0891     		str	r1, [sp, #32]
 1898 05b8 A3F11401 		sub	r1, r3, #20
 1899 05bc 0791     		str	r1, [sp, #28]
 1900 05be 283B     		subs	r3, r3, #40
 1901 05c0 0693     		str	r3, [sp, #24]
 1902 05c2 931D     		adds	r3, r2, #6
 1903 05c4 0593     		str	r3, [sp, #20]
 1904 05c6 334B     		ldr	r3, .L101+24
 1905 05c8 03F13201 		add	r1, r3, #50
 1906 05cc 0491     		str	r1, [sp, #16]
 1907 05ce 03F11401 		add	r1, r3, #20
 1908 05d2 0391     		str	r1, [sp, #12]
 1909 05d4 03F12801 		add	r1, r3, #40
 1910 05d8 0291     		str	r1, [sp, #8]
 1911 05da 4633     		adds	r3, r3, #70
 1912 05dc 0193     		str	r3, [sp, #4]
 1913 05de 131D     		adds	r3, r2, #4
 1914 05e0 0093     		str	r3, [sp]
 1915 05e2 931C     		adds	r3, r2, #2
 1916 05e4 4349     		ldr	r1, .L101+120
 1917 05e6 2046     		mov	r0, r4
 1918 05e8 FFF7FEFF 		bl	sprintf
 1919              	.LVL160:
 632:Core/Src/main.c ****         numCheck_time++;
 1920              		.loc 1 632 9 view .LVU417
 1921 05ec 2146     		mov	r1, r4
 1922 05ee 4248     		ldr	r0, .L101+124
 1923 05f0 FFF7FEFF 		bl	mqtt_pub
 1924              	.LVL161:
 633:Core/Src/main.c ****         if (numCheck_time == 10)
 1925              		.loc 1 633 9 view .LVU418
 633:Core/Src/main.c ****         if (numCheck_time == 10)
 1926              		.loc 1 633 22 is_stmt 0 view .LVU419
 1927 05f4 414A     		ldr	r2, .L101+128
 1928 05f6 1368     		ldr	r3, [r2]
 1929 05f8 0133     		adds	r3, r3, #1
 1930 05fa 1360     		str	r3, [r2]
 634:Core/Src/main.c ****         {
 1931              		.loc 1 634 9 is_stmt 1 view .LVU420
 634:Core/Src/main.c ****         {
 1932              		.loc 1 634 12 is_stmt 0 view .LVU421
 1933 05fc 0A2B     		cmp	r3, #10
 1934 05fe 7FF45FAF 		bne	.L76
 636:Core/Src/main.c ****           HAL_RTC_GetTime(&hrtc, &last_sTime, RTC_FORMAT_BIN);
 1935              		.loc 1 636 11 is_stmt 1 view .LVU422
 636:Core/Src/main.c ****           HAL_RTC_GetTime(&hrtc, &last_sTime, RTC_FORMAT_BIN);
 1936              		.loc 1 636 25 is_stmt 0 view .LVU423
 1937 0602 0025     		movs	r5, #0
 1938 0604 1560     		str	r5, [r2]
 637:Core/Src/main.c ****           HAL_RTC_GetDate(&hrtc, &last_sDate, RTC_FORMAT_BIN);
ARM GAS  C:\Users\Admin\AppData\Local\Temp\ccE7ElAa.s 			page 63


 1939              		.loc 1 637 11 is_stmt 1 view .LVU424
 1940 0606 3E4C     		ldr	r4, .L101+132
 1941 0608 3E4E     		ldr	r6, .L101+136
 1942 060a 2A46     		mov	r2, r5
 1943 060c 2146     		mov	r1, r4
 1944 060e 3046     		mov	r0, r6
 1945 0610 FFF7FEFF 		bl	HAL_RTC_GetTime
 1946              	.LVL162:
 638:Core/Src/main.c ****           totalMinute_OperateTime = (60 * last_sTime.Hours + last_sTime.Minutes) - (60 * current_sT
 1947              		.loc 1 638 11 view .LVU425
 1948 0614 2A46     		mov	r2, r5
 1949 0616 3C49     		ldr	r1, .L101+140
 1950 0618 3046     		mov	r0, r6
 1951 061a FFF7FEFF 		bl	HAL_RTC_GetDate
 1952              	.LVL163:
 639:Core/Src/main.c ****           time_hour = totalMinute_OperateTime / 60;
 1953              		.loc 1 639 11 view .LVU426
 639:Core/Src/main.c ****           time_hour = totalMinute_OperateTime / 60;
 1954              		.loc 1 639 53 is_stmt 0 view .LVU427
 1955 061e 2278     		ldrb	r2, [r4]	@ zero_extendqisi2
 639:Core/Src/main.c ****           time_hour = totalMinute_OperateTime / 60;
 1956              		.loc 1 639 72 view .LVU428
 1957 0620 6378     		ldrb	r3, [r4, #1]	@ zero_extendqisi2
 639:Core/Src/main.c ****           time_hour = totalMinute_OperateTime / 60;
 1958              		.loc 1 639 60 view .LVU429
 1959 0622 C2EB0212 		rsb	r2, r2, r2, lsl #4
 1960 0626 03EB8203 		add	r3, r3, r2, lsl #2
 1961 062a 9BB2     		uxth	r3, r3
 639:Core/Src/main.c ****           time_hour = totalMinute_OperateTime / 60;
 1962              		.loc 1 639 103 view .LVU430
 1963 062c 374A     		ldr	r2, .L101+144
 1964 062e 1178     		ldrb	r1, [r2]	@ zero_extendqisi2
 639:Core/Src/main.c ****           time_hour = totalMinute_OperateTime / 60;
 1965              		.loc 1 639 125 view .LVU431
 1966 0630 5278     		ldrb	r2, [r2, #1]	@ zero_extendqisi2
 639:Core/Src/main.c ****           time_hour = totalMinute_OperateTime / 60;
 1967              		.loc 1 639 110 view .LVU432
 1968 0632 C1EB0111 		rsb	r1, r1, r1, lsl #4
 1969 0636 02EB8102 		add	r2, r2, r1, lsl #2
 1970 063a 92B2     		uxth	r2, r2
 639:Core/Src/main.c ****           time_hour = totalMinute_OperateTime / 60;
 1971              		.loc 1 639 82 view .LVU433
 1972 063c 9B1A     		subs	r3, r3, r2
 1973 063e 9BB2     		uxth	r3, r3
 639:Core/Src/main.c ****           time_hour = totalMinute_OperateTime / 60;
 1974              		.loc 1 639 35 view .LVU434
 1975 0640 334A     		ldr	r2, .L101+148
 1976 0642 1380     		strh	r3, [r2]	@ movhi
 640:Core/Src/main.c ****           time_minute = totalMinute_OperateTime - time_hour * 60;
 1977              		.loc 1 640 11 is_stmt 1 view .LVU435
 640:Core/Src/main.c ****           time_minute = totalMinute_OperateTime - time_hour * 60;
 1978              		.loc 1 640 47 is_stmt 0 view .LVU436
 1979 0644 334A     		ldr	r2, .L101+152
 1980 0646 A2FB0312 		umull	r1, r2, r2, r3
 1981 064a 5209     		lsrs	r2, r2, #5
 640:Core/Src/main.c ****           time_minute = totalMinute_OperateTime - time_hour * 60;
 1982              		.loc 1 640 21 view .LVU437
ARM GAS  C:\Users\Admin\AppData\Local\Temp\ccE7ElAa.s 			page 64


 1983 064c 2549     		ldr	r1, .L101+104
 1984 064e 0A60     		str	r2, [r1]
 641:Core/Src/main.c ****           sprintf(totalMinute_OperateTime_buff, "%dh%d", time_hour, time_minute);
 1985              		.loc 1 641 11 is_stmt 1 view .LVU438
 641:Core/Src/main.c ****           sprintf(totalMinute_OperateTime_buff, "%dh%d", time_hour, time_minute);
 1986              		.loc 1 641 61 is_stmt 0 view .LVU439
 1987 0650 A2EB0211 		sub	r1, r2, r2, lsl #4
 641:Core/Src/main.c ****           sprintf(totalMinute_OperateTime_buff, "%dh%d", time_hour, time_minute);
 1988              		.loc 1 641 49 view .LVU440
 1989 0654 03EB8103 		add	r3, r3, r1, lsl #2
 641:Core/Src/main.c ****           sprintf(totalMinute_OperateTime_buff, "%dh%d", time_hour, time_minute);
 1990              		.loc 1 641 23 view .LVU441
 1991 0658 2149     		ldr	r1, .L101+100
 1992 065a 0B60     		str	r3, [r1]
 642:Core/Src/main.c ****           log_data("\nTotal time: ");
 1993              		.loc 1 642 11 is_stmt 1 view .LVU442
 1994 065c 1F4C     		ldr	r4, .L101+96
 1995 065e 2249     		ldr	r1, .L101+108
 1996 0660 2046     		mov	r0, r4
 1997 0662 FFF7FEFF 		bl	sprintf
 1998              	.LVL164:
 643:Core/Src/main.c ****           log_data(totalMinute_OperateTime_buff);
 1999              		.loc 1 643 11 view .LVU443
 2000 0666 2C48     		ldr	r0, .L101+156
 2001 0668 FFF7FEFF 		bl	log_data
 2002              	.LVL165:
 644:Core/Src/main.c ****           log_data("\n");
 2003              		.loc 1 644 11 view .LVU444
 2004 066c 2046     		mov	r0, r4
 2005 066e FFF7FEFF 		bl	log_data
 2006              	.LVL166:
 645:Core/Src/main.c ****         }
 2007              		.loc 1 645 11 view .LVU445
 2008 0672 1548     		ldr	r0, .L101+76
 2009 0674 FFF7FEFF 		bl	log_data
 2010              	.LVL167:
 2011 0678 22E7     		b	.L76
 2012              	.L102:
 2013 067a 00BF     		.align	2
 2014              	.L101:
 2015 067c 00000000 		.word	.LANCHOR12
 2016 0680 00000000 		.word	.LANCHOR22
 2017 0684 54010000 		.word	.LC23
 2018 0688 00000000 		.word	.LANCHOR20
 2019 068c 00000000 		.word	.LANCHOR21
 2020 0690 00000000 		.word	.LANCHOR13
 2021 0694 00000000 		.word	.LANCHOR0
 2022 0698 78010000 		.word	.LC25
 2023 069c 68010000 		.word	.LC24
 2024 06a0 88010000 		.word	.LC26
 2025 06a4 00000000 		.word	.LANCHOR15
 2026 06a8 00000000 		.word	.LANCHOR1
 2027 06ac D4010000 		.word	.LC33
 2028 06b0 00000000 		.word	.LANCHOR33
 2029 06b4 00000000 		.word	.LANCHOR34
 2030 06b8 E4010000 		.word	.LC34
 2031 06bc E8010000 		.word	.LC35
ARM GAS  C:\Users\Admin\AppData\Local\Temp\ccE7ElAa.s 			page 65


 2032 06c0 EC010000 		.word	.LC36
 2033 06c4 F0010000 		.word	.LC37
 2034 06c8 A4010000 		.word	.LC28
 2035 06cc 04020000 		.word	.LC38
 2036 06d0 00000000 		.word	.LANCHOR32
 2037 06d4 10020000 		.word	.LC39
 2038 06d8 00000000 		.word	.LANCHOR35
 2039 06dc 00000000 		.word	.LANCHOR31
 2040 06e0 00000000 		.word	.LANCHOR30
 2041 06e4 00000000 		.word	.LANCHOR29
 2042 06e8 B4010000 		.word	.LC30
 2043 06ec 00000000 		.word	.LANCHOR19
 2044 06f0 34000000 		.word	l70DataAfterHadler+52
 2045 06f4 1C020000 		.word	.LC40
 2046 06f8 E8020000 		.word	.LC41
 2047 06fc 00000000 		.word	.LANCHOR36
 2048 0700 00000000 		.word	.LANCHOR26
 2049 0704 00000000 		.word	hrtc
 2050 0708 00000000 		.word	.LANCHOR27
 2051 070c 00000000 		.word	.LANCHOR16
 2052 0710 00000000 		.word	.LANCHOR28
 2053 0714 89888888 		.word	-2004318071
 2054 0718 00030000 		.word	.LC42
 2055              	.L80:
 650:Core/Src/main.c ****       {
 2056              		.loc 1 650 7 view .LVU446
 650:Core/Src/main.c ****       {
 2057              		.loc 1 650 23 is_stmt 0 view .LVU447
 2058 071c 954B     		ldr	r3, .L103
 2059 071e DB78     		ldrb	r3, [r3, #3]	@ zero_extendqisi2
 650:Core/Src/main.c ****       {
 2060              		.loc 1 650 10 view .LVU448
 2061 0720 002B     		cmp	r3, #0
 2062 0722 7FF4CDAE 		bne	.L76
 652:Core/Src/main.c ****         Taskperform.TaskStore = true;
 2063              		.loc 1 652 9 is_stmt 1 view .LVU449
 2064 0726 9448     		ldr	r0, .L103+4
 2065 0728 FFF7FEFF 		bl	log_data
 2066              	.LVL168:
 653:Core/Src/main.c **** 
 2067              		.loc 1 653 9 view .LVU450
 653:Core/Src/main.c **** 
 2068              		.loc 1 653 31 is_stmt 0 view .LVU451
 2069 072c 914B     		ldr	r3, .L103
 2070 072e 0122     		movs	r2, #1
 2071 0730 DA70     		strb	r2, [r3, #3]
 655:Core/Src/main.c ****         if (fresult != FR_OK)
 2072              		.loc 1 655 9 is_stmt 1 view .LVU452
 655:Core/Src/main.c ****         if (fresult != FR_OK)
 2073              		.loc 1 655 19 is_stmt 0 view .LVU453
 2074 0732 0222     		movs	r2, #2
 2075 0734 9149     		ldr	r1, .L103+8
 2076 0736 9248     		ldr	r0, .L103+12
 2077 0738 FFF7FEFF 		bl	f_open
 2078              	.LVL169:
 655:Core/Src/main.c ****         if (fresult != FR_OK)
 2079              		.loc 1 655 17 view .LVU454
ARM GAS  C:\Users\Admin\AppData\Local\Temp\ccE7ElAa.s 			page 66


 2080 073c 914B     		ldr	r3, .L103+16
 2081 073e 1870     		strb	r0, [r3]
 656:Core/Src/main.c ****           log_data("open error...\n\n");
 2082              		.loc 1 656 9 is_stmt 1 view .LVU455
 656:Core/Src/main.c ****           log_data("open error...\n\n");
 2083              		.loc 1 656 12 is_stmt 0 view .LVU456
 2084 0740 0028     		cmp	r0, #0
 2085 0742 44D0     		beq	.L84
 657:Core/Src/main.c ****         else
 2086              		.loc 1 657 11 is_stmt 1 view .LVU457
 2087 0744 9048     		ldr	r0, .L103+20
 2088 0746 FFF7FEFF 		bl	log_data
 2089              	.LVL170:
 2090              	.L85:
 661:Core/Src/main.c **** 
 2091              		.loc 1 661 9 view .LVU458
 2092 074a 8D4C     		ldr	r4, .L103+12
 2093 074c 04F58053 		add	r3, r4, #4096
 2094 0750 D968     		ldr	r1, [r3, #12]
 2095 0752 2046     		mov	r0, r4
 2096 0754 FFF7FEFF 		bl	f_lseek
 2097              	.LVL171:
 663:Core/Src/main.c ****         f_puts("\t", &fil);
 2098              		.loc 1 663 9 view .LVU459
 2099 0758 8C4E     		ldr	r6, .L103+24
 2100 075a 2146     		mov	r1, r4
 2101 075c 3046     		mov	r0, r6
 2102 075e FFF7FEFF 		bl	f_puts
 2103              	.LVL172:
 664:Core/Src/main.c ****         f_puts(Card_Startbuff, &fil);
 2104              		.loc 1 664 9 view .LVU460
 2105 0762 8B4D     		ldr	r5, .L103+28
 2106 0764 2146     		mov	r1, r4
 2107 0766 2846     		mov	r0, r5
 2108 0768 FFF7FEFF 		bl	f_puts
 2109              	.LVL173:
 665:Core/Src/main.c ****         f_puts("\t", &fil);
 2110              		.loc 1 665 9 view .LVU461
 2111 076c 2146     		mov	r1, r4
 2112 076e 8948     		ldr	r0, .L103+32
 2113 0770 FFF7FEFF 		bl	f_puts
 2114              	.LVL174:
 666:Core/Src/main.c ****         f_puts(l70DataAfterHadler.latitude, &fil);
 2115              		.loc 1 666 9 view .LVU462
 2116 0774 2146     		mov	r1, r4
 2117 0776 2846     		mov	r0, r5
 2118 0778 FFF7FEFF 		bl	f_puts
 2119              	.LVL175:
 667:Core/Src/main.c ****         f_puts("\t", &fil);
 2120              		.loc 1 667 9 view .LVU463
 2121 077c 2146     		mov	r1, r4
 2122 077e 06F10C00 		add	r0, r6, #12
 2123 0782 FFF7FEFF 		bl	f_puts
 2124              	.LVL176:
 668:Core/Src/main.c ****         f_puts(l70DataAfterHadler.longitude, &fil);
 2125              		.loc 1 668 9 view .LVU464
 2126 0786 2146     		mov	r1, r4
ARM GAS  C:\Users\Admin\AppData\Local\Temp\ccE7ElAa.s 			page 67


 2127 0788 2846     		mov	r0, r5
 2128 078a FFF7FEFF 		bl	f_puts
 2129              	.LVL177:
 669:Core/Src/main.c ****         f_puts("\t", &fil);
 2130              		.loc 1 669 9 view .LVU465
 2131 078e 2146     		mov	r1, r4
 2132 0790 06F12000 		add	r0, r6, #32
 2133 0794 FFF7FEFF 		bl	f_puts
 2134              	.LVL178:
 670:Core/Src/main.c ****         f_puts(l70DataAfterHadler.Speed, &fil);
 2135              		.loc 1 670 9 view .LVU466
 2136 0798 2146     		mov	r1, r4
 2137 079a 2846     		mov	r0, r5
 2138 079c FFF7FEFF 		bl	f_puts
 2139              	.LVL179:
 671:Core/Src/main.c ****         f_puts("\t", &fil);
 2140              		.loc 1 671 9 view .LVU467
 2141 07a0 2146     		mov	r1, r4
 2142 07a2 06F13400 		add	r0, r6, #52
 2143 07a6 FFF7FEFF 		bl	f_puts
 2144              	.LVL180:
 672:Core/Src/main.c ****         f_puts(sensors.ds18_buff, &fil);
 2145              		.loc 1 672 9 view .LVU468
 2146 07aa 2146     		mov	r1, r4
 2147 07ac 2846     		mov	r0, r5
 2148 07ae FFF7FEFF 		bl	f_puts
 2149              	.LVL181:
 673:Core/Src/main.c ****         f_puts("\n", &fil);
 2150              		.loc 1 673 9 view .LVU469
 2151 07b2 2146     		mov	r1, r4
 2152 07b4 7848     		ldr	r0, .L103+36
 2153 07b6 FFF7FEFF 		bl	f_puts
 2154              	.LVL182:
 674:Core/Src/main.c **** 
 2155              		.loc 1 674 9 view .LVU470
 2156 07ba 2146     		mov	r1, r4
 2157 07bc 7748     		ldr	r0, .L103+40
 2158 07be FFF7FEFF 		bl	f_puts
 2159              	.LVL183:
 676:Core/Src/main.c ****       }
 2160              		.loc 1 676 9 view .LVU471
 676:Core/Src/main.c ****       }
 2161              		.loc 1 676 19 is_stmt 0 view .LVU472
 2162 07c2 2046     		mov	r0, r4
 2163 07c4 FFF7FEFF 		bl	f_close
 2164              	.LVL184:
 676:Core/Src/main.c ****       }
 2165              		.loc 1 676 17 view .LVU473
 2166 07c8 6E4B     		ldr	r3, .L103+16
 2167 07ca 1870     		strb	r0, [r3]
 2168 07cc 78E6     		b	.L76
 2169              	.L84:
 659:Core/Src/main.c **** 
 2170              		.loc 1 659 11 is_stmt 1 view .LVU474
 2171 07ce 7448     		ldr	r0, .L103+44
 2172 07d0 FFF7FEFF 		bl	log_data
 2173              	.LVL185:
ARM GAS  C:\Users\Admin\AppData\Local\Temp\ccE7ElAa.s 			page 68


 2174 07d4 B9E7     		b	.L85
 2175              	.L79:
 680:Core/Src/main.c ****       {
 2176              		.loc 1 680 7 view .LVU475
 680:Core/Src/main.c ****       {
 2177              		.loc 1 680 23 is_stmt 0 view .LVU476
 2178 07d6 674B     		ldr	r3, .L103
 2179 07d8 1B79     		ldrb	r3, [r3, #4]	@ zero_extendqisi2
 680:Core/Src/main.c ****       {
 2180              		.loc 1 680 10 view .LVU477
 2181 07da 002B     		cmp	r3, #0
 2182 07dc 7FF470AE 		bne	.L76
 682:Core/Src/main.c ****         Taskperform.TaskDisplay = true;
 2183              		.loc 1 682 9 is_stmt 1 view .LVU478
 2184 07e0 7048     		ldr	r0, .L103+48
 2185 07e2 FFF7FEFF 		bl	log_data
 2186              	.LVL186:
 683:Core/Src/main.c ****         memset(utctime_buff,'\0',sizeof(utctime_buff));
 2187              		.loc 1 683 9 view .LVU479
 683:Core/Src/main.c ****         memset(utctime_buff,'\0',sizeof(utctime_buff));
 2188              		.loc 1 683 33 is_stmt 0 view .LVU480
 2189 07e6 0124     		movs	r4, #1
 2190 07e8 624B     		ldr	r3, .L103
 2191 07ea 1C71     		strb	r4, [r3, #4]
 684:Core/Src/main.c ****         strncpy(utctime_buff,l70DataAfterHadler.utcTime,5);
 2192              		.loc 1 684 9 is_stmt 1 view .LVU481
 2193 07ec 6E4F     		ldr	r7, .L103+52
 2194 07ee 0023     		movs	r3, #0
 2195 07f0 3B60     		str	r3, [r7]
 2196 07f2 7B60     		str	r3, [r7, #4]
 2197 07f4 3B81     		strh	r3, [r7, #8]	@ movhi
 685:Core/Src/main.c ****         SSD1306_GotoXY(75, 2);
 2198              		.loc 1 685 9 view .LVU482
 2199 07f6 654D     		ldr	r5, .L103+24
 2200 07f8 0522     		movs	r2, #5
 2201 07fa 2946     		mov	r1, r5
 2202 07fc 3846     		mov	r0, r7
 2203 07fe FFF7FEFF 		bl	strncpy
 2204              	.LVL187:
 686:Core/Src/main.c ****         SSD1306_Puts(utctime_buff, &Font_7x10, 1);
 2205              		.loc 1 686 9 view .LVU483
 2206 0802 0221     		movs	r1, #2
 2207 0804 4B20     		movs	r0, #75
 2208 0806 FFF7FEFF 		bl	SSD1306_GotoXY
 2209              	.LVL188:
 687:Core/Src/main.c ****         SSD1306_GotoXY(30, 16);
 2210              		.loc 1 687 9 view .LVU484
 2211 080a 684E     		ldr	r6, .L103+56
 2212 080c 2246     		mov	r2, r4
 2213 080e 3146     		mov	r1, r6
 2214 0810 3846     		mov	r0, r7
 2215 0812 FFF7FEFF 		bl	SSD1306_Puts
 2216              	.LVL189:
 688:Core/Src/main.c ****         SSD1306_Puts(l70DataAfterHadler.Date, &Font_7x10, 1);
 2217              		.loc 1 688 9 view .LVU485
 2218 0816 1021     		movs	r1, #16
 2219 0818 1E20     		movs	r0, #30
ARM GAS  C:\Users\Admin\AppData\Local\Temp\ccE7ElAa.s 			page 69


 2220 081a FFF7FEFF 		bl	SSD1306_GotoXY
 2221              	.LVL190:
 689:Core/Src/main.c ****         SSD1306_GotoXY(30, 28);
 2222              		.loc 1 689 9 view .LVU486
 2223 081e 2246     		mov	r2, r4
 2224 0820 3146     		mov	r1, r6
 2225 0822 05F14800 		add	r0, r5, #72
 2226 0826 FFF7FEFF 		bl	SSD1306_Puts
 2227              	.LVL191:
 690:Core/Src/main.c ****         SSD1306_Puts(l70DataAfterHadler.longitude, &Font_7x10, 1);
 2228              		.loc 1 690 9 view .LVU487
 2229 082a 1C21     		movs	r1, #28
 2230 082c 1E20     		movs	r0, #30
 2231 082e FFF7FEFF 		bl	SSD1306_GotoXY
 2232              	.LVL192:
 691:Core/Src/main.c ****         SSD1306_GotoXY(30, 40);
 2233              		.loc 1 691 9 view .LVU488
 2234 0832 2246     		mov	r2, r4
 2235 0834 3146     		mov	r1, r6
 2236 0836 05F12000 		add	r0, r5, #32
 2237 083a FFF7FEFF 		bl	SSD1306_Puts
 2238              	.LVL193:
 692:Core/Src/main.c ****         SSD1306_Puts(l70DataAfterHadler.latitude, &Font_7x10, 1);
 2239              		.loc 1 692 9 view .LVU489
 2240 083e 2821     		movs	r1, #40
 2241 0840 1E20     		movs	r0, #30
 2242 0842 FFF7FEFF 		bl	SSD1306_GotoXY
 2243              	.LVL194:
 693:Core/Src/main.c ****         SSD1306_GotoXY(45, 52);
 2244              		.loc 1 693 9 view .LVU490
 2245 0846 2246     		mov	r2, r4
 2246 0848 3146     		mov	r1, r6
 2247 084a 05F10C00 		add	r0, r5, #12
 2248 084e FFF7FEFF 		bl	SSD1306_Puts
 2249              	.LVL195:
 694:Core/Src/main.c ****         SSD1306_Puts(l70DataAfterHadler.Speed, &Font_7x10, 1);
 2250              		.loc 1 694 9 view .LVU491
 2251 0852 3421     		movs	r1, #52
 2252 0854 2D20     		movs	r0, #45
 2253 0856 FFF7FEFF 		bl	SSD1306_GotoXY
 2254              	.LVL196:
 695:Core/Src/main.c ****         SSD1306_UpdateScreen();
 2255              		.loc 1 695 9 view .LVU492
 2256 085a 2246     		mov	r2, r4
 2257 085c 3146     		mov	r1, r6
 2258 085e 05F13400 		add	r0, r5, #52
 2259 0862 FFF7FEFF 		bl	SSD1306_Puts
 2260              	.LVL197:
 696:Core/Src/main.c ****       }
 2261              		.loc 1 696 9 view .LVU493
 2262 0866 FFF7FEFF 		bl	SSD1306_UpdateScreen
 2263              	.LVL198:
 2264 086a 29E6     		b	.L76
 2265              	.L77:
 701:Core/Src/main.c ****       {
 2266              		.loc 1 701 7 view .LVU494
 701:Core/Src/main.c ****       {
ARM GAS  C:\Users\Admin\AppData\Local\Temp\ccE7ElAa.s 			page 70


 2267              		.loc 1 701 11 is_stmt 0 view .LVU495
 2268 086c 504B     		ldr	r3, .L103+60
 2269 086e 1B78     		ldrb	r3, [r3]	@ zero_extendqisi2
 701:Core/Src/main.c ****       {
 2270              		.loc 1 701 10 view .LVU496
 2271 0870 F3B9     		cbnz	r3, .L98
 2272              	.L86:
 726:Core/Src/main.c ****       {
 2273              		.loc 1 726 7 is_stmt 1 view .LVU497
 726:Core/Src/main.c ****       {
 2274              		.loc 1 726 11 is_stmt 0 view .LVU498
 2275 0872 504B     		ldr	r3, .L103+64
 2276 0874 1B78     		ldrb	r3, [r3]	@ zero_extendqisi2
 726:Core/Src/main.c ****       {
 2277              		.loc 1 726 10 view .LVU499
 2278 0876 002B     		cmp	r3, #0
 2279 0878 3FF422AE 		beq	.L76
 728:Core/Src/main.c ****         rs232_logdata("READ\n");
 2280              		.loc 1 728 9 is_stmt 1 view .LVU500
 728:Core/Src/main.c ****         rs232_logdata("READ\n");
 2281              		.loc 1 728 20 is_stmt 0 view .LVU501
 2282 087c 4D4B     		ldr	r3, .L103+64
 2283 087e 0022     		movs	r2, #0
 2284 0880 1A70     		strb	r2, [r3]
 729:Core/Src/main.c ****         if (strstr(rs232_buff, "Trichxuatdulieu") != NULL)
 2285              		.loc 1 729 9 is_stmt 1 view .LVU502
 2286 0882 4D48     		ldr	r0, .L103+68
 2287 0884 FFF7FEFF 		bl	rs232_logdata
 2288              	.LVL199:
 730:Core/Src/main.c ****         {
 2289              		.loc 1 730 9 view .LVU503
 730:Core/Src/main.c ****         {
 2290              		.loc 1 730 13 is_stmt 0 view .LVU504
 2291 0888 4C49     		ldr	r1, .L103+72
 2292 088a 4D48     		ldr	r0, .L103+76
 2293 088c FFF7FEFF 		bl	strstr
 2294              	.LVL200:
 730:Core/Src/main.c ****         {
 2295              		.loc 1 730 12 view .LVU505
 2296 0890 0028     		cmp	r0, #0
 2297 0892 3FF415AE 		beq	.L76
 732:Core/Src/main.c ****           if (fresult != FR_OK)
 2298              		.loc 1 732 11 is_stmt 1 view .LVU506
 732:Core/Src/main.c ****           if (fresult != FR_OK)
 2299              		.loc 1 732 21 is_stmt 0 view .LVU507
 2300 0896 0122     		movs	r2, #1
 2301 0898 3849     		ldr	r1, .L103+8
 2302 089a 3948     		ldr	r0, .L103+12
 2303 089c FFF7FEFF 		bl	f_open
 2304              	.LVL201:
 732:Core/Src/main.c ****           if (fresult != FR_OK)
 2305              		.loc 1 732 19 view .LVU508
 2306 08a0 384B     		ldr	r3, .L103+16
 2307 08a2 1870     		strb	r0, [r3]
 733:Core/Src/main.c ****             log_data("open error...\n\n");
 2308              		.loc 1 733 11 is_stmt 1 view .LVU509
 733:Core/Src/main.c ****             log_data("open error...\n\n");
ARM GAS  C:\Users\Admin\AppData\Local\Temp\ccE7ElAa.s 			page 71


 2309              		.loc 1 733 14 is_stmt 0 view .LVU510
 2310 08a4 0028     		cmp	r0, #0
 2311 08a6 54D0     		beq	.L89
 734:Core/Src/main.c ****           else
 2312              		.loc 1 734 13 is_stmt 1 view .LVU511
 2313 08a8 3748     		ldr	r0, .L103+20
 2314 08aa FFF7FEFF 		bl	log_data
 2315              	.LVL202:
 2316 08ae 57E0     		b	.L91
 2317              	.L98:
 703:Core/Src/main.c ****         sprintf(Card_Endbuff, "%02X%02X%02X%02X", CardID[0], CardID[1], CardID[2], CardID[3]);
 2318              		.loc 1 703 9 view .LVU512
 703:Core/Src/main.c ****         sprintf(Card_Endbuff, "%02X%02X%02X%02X", CardID[0], CardID[1], CardID[2], CardID[3]);
 2319              		.loc 1 703 16 is_stmt 0 view .LVU513
 2320 08b0 3F4B     		ldr	r3, .L103+60
 2321 08b2 0022     		movs	r2, #0
 2322 08b4 1A70     		strb	r2, [r3]
 704:Core/Src/main.c ****         if (strcmp(Card_Startbuff, Card_Endbuff) != 0)
 2323              		.loc 1 704 9 is_stmt 1 view .LVU514
 704:Core/Src/main.c ****         if (strcmp(Card_Startbuff, Card_Endbuff) != 0)
 2324              		.loc 1 704 57 is_stmt 0 view .LVU515
 2325 08b6 434A     		ldr	r2, .L103+80
 704:Core/Src/main.c ****         if (strcmp(Card_Startbuff, Card_Endbuff) != 0)
 2326              		.loc 1 704 79 view .LVU516
 2327 08b8 9378     		ldrb	r3, [r2, #2]	@ zero_extendqisi2
 704:Core/Src/main.c ****         if (strcmp(Card_Startbuff, Card_Endbuff) != 0)
 2328              		.loc 1 704 90 view .LVU517
 2329 08ba D178     		ldrb	r1, [r2, #3]	@ zero_extendqisi2
 704:Core/Src/main.c ****         if (strcmp(Card_Startbuff, Card_Endbuff) != 0)
 2330              		.loc 1 704 9 view .LVU518
 2331 08bc 424C     		ldr	r4, .L103+84
 2332 08be 0191     		str	r1, [sp, #4]
 2333 08c0 0093     		str	r3, [sp]
 2334 08c2 5378     		ldrb	r3, [r2, #1]	@ zero_extendqisi2
 2335 08c4 1278     		ldrb	r2, [r2]	@ zero_extendqisi2
 2336 08c6 4149     		ldr	r1, .L103+88
 2337 08c8 2046     		mov	r0, r4
 2338 08ca FFF7FEFF 		bl	sprintf
 2339              	.LVL203:
 705:Core/Src/main.c ****         {
 2340              		.loc 1 705 9 is_stmt 1 view .LVU519
 705:Core/Src/main.c ****         {
 2341              		.loc 1 705 13 is_stmt 0 view .LVU520
 2342 08ce 2146     		mov	r1, r4
 2343 08d0 3048     		ldr	r0, .L103+32
 2344 08d2 FFF7FEFF 		bl	strcmp
 2345              	.LVL204:
 705:Core/Src/main.c ****         {
 2346              		.loc 1 705 12 view .LVU521
 2347 08d6 50B1     		cbz	r0, .L87
 707:Core/Src/main.c ****         }
 2348              		.loc 1 707 11 is_stmt 1 view .LVU522
 2349 08d8 3D48     		ldr	r0, .L103+92
 2350 08da FFF7FEFF 		bl	log_data
 2351              	.LVL205:
 2352              	.L88:
 723:Core/Src/main.c ****         log_data("Device start sleep\n");
ARM GAS  C:\Users\Admin\AppData\Local\Temp\ccE7ElAa.s 			page 72


 2353              		.loc 1 723 9 view .LVU523
 2354 08de 4FF47A70 		mov	r0, #1000
 2355 08e2 FFF7FEFF 		bl	HAL_Delay
 2356              	.LVL206:
 724:Core/Src/main.c ****       }
 2357              		.loc 1 724 9 view .LVU524
 2358 08e6 3B48     		ldr	r0, .L103+96
 2359 08e8 FFF7FEFF 		bl	log_data
 2360              	.LVL207:
 2361 08ec C1E7     		b	.L86
 2362              	.L87:
 711:Core/Src/main.c ****           // write flash totaltime
 2363              		.loc 1 711 11 view .LVU525
 2364 08ee 3A48     		ldr	r0, .L103+100
 2365 08f0 FFF7FEFF 		bl	log_data
 2366              	.LVL208:
 713:Core/Src/main.c ****           HAL_RTC_GetTime(&hrtc, &last_sTime, RTC_FORMAT_BIN);
 2367              		.loc 1 713 11 view .LVU526
 2368 08f4 3949     		ldr	r1, .L103+104
 2369 08f6 3A48     		ldr	r0, .L103+108
 2370 08f8 FFF7FEFF 		bl	mqtt_pub
 2371              	.LVL209:
 714:Core/Src/main.c ****           HAL_RTC_GetDate(&hrtc, &last_sDate, RTC_FORMAT_BIN);
 2372              		.loc 1 714 11 view .LVU527
 2373 08fc 394C     		ldr	r4, .L103+112
 2374 08fe 3A4D     		ldr	r5, .L103+116
 2375 0900 0022     		movs	r2, #0
 2376 0902 2146     		mov	r1, r4
 2377 0904 2846     		mov	r0, r5
 2378 0906 FFF7FEFF 		bl	HAL_RTC_GetTime
 2379              	.LVL210:
 715:Core/Src/main.c ****           totalMinute_OperateTime = (60 * last_sTime.Hours + last_sTime.Minutes) - (60 * current_sT
 2380              		.loc 1 715 11 view .LVU528
 2381 090a 0022     		movs	r2, #0
 2382 090c 3749     		ldr	r1, .L103+120
 2383 090e 2846     		mov	r0, r5
 2384 0910 FFF7FEFF 		bl	HAL_RTC_GetDate
 2385              	.LVL211:
 716:Core/Src/main.c ****           set_alarm(10);
 2386              		.loc 1 716 11 view .LVU529
 716:Core/Src/main.c ****           set_alarm(10);
 2387              		.loc 1 716 53 is_stmt 0 view .LVU530
 2388 0914 2278     		ldrb	r2, [r4]	@ zero_extendqisi2
 716:Core/Src/main.c ****           set_alarm(10);
 2389              		.loc 1 716 72 view .LVU531
 2390 0916 6378     		ldrb	r3, [r4, #1]	@ zero_extendqisi2
 716:Core/Src/main.c ****           set_alarm(10);
 2391              		.loc 1 716 60 view .LVU532
 2392 0918 C2EB0212 		rsb	r2, r2, r2, lsl #4
 2393 091c 03EB8203 		add	r3, r3, r2, lsl #2
 2394 0920 9BB2     		uxth	r3, r3
 716:Core/Src/main.c ****           set_alarm(10);
 2395              		.loc 1 716 103 view .LVU533
 2396 0922 334A     		ldr	r2, .L103+124
 2397 0924 1178     		ldrb	r1, [r2]	@ zero_extendqisi2
 716:Core/Src/main.c ****           set_alarm(10);
 2398              		.loc 1 716 125 view .LVU534
ARM GAS  C:\Users\Admin\AppData\Local\Temp\ccE7ElAa.s 			page 73


 2399 0926 5278     		ldrb	r2, [r2, #1]	@ zero_extendqisi2
 716:Core/Src/main.c ****           set_alarm(10);
 2400              		.loc 1 716 110 view .LVU535
 2401 0928 C1EB0111 		rsb	r1, r1, r1, lsl #4
 2402 092c 02EB8102 		add	r2, r2, r1, lsl #2
 2403 0930 92B2     		uxth	r2, r2
 716:Core/Src/main.c ****           set_alarm(10);
 2404              		.loc 1 716 82 view .LVU536
 2405 0932 9B1A     		subs	r3, r3, r2
 716:Core/Src/main.c ****           set_alarm(10);
 2406              		.loc 1 716 35 view .LVU537
 2407 0934 2F4A     		ldr	r2, .L103+128
 2408 0936 1380     		strh	r3, [r2]	@ movhi
 717:Core/Src/main.c ****           buzzer(200);
 2409              		.loc 1 717 11 is_stmt 1 view .LVU538
 2410 0938 0A20     		movs	r0, #10
 2411 093a FFF7FEFF 		bl	set_alarm
 2412              	.LVL212:
 718:Core/Src/main.c ****           HAL_Delay(200);
 2413              		.loc 1 718 11 view .LVU539
 2414 093e C820     		movs	r0, #200
 2415 0940 FFF7FEFF 		bl	buzzer
 2416              	.LVL213:
 719:Core/Src/main.c ****           buzzer(200);
 2417              		.loc 1 719 11 view .LVU540
 2418 0944 C820     		movs	r0, #200
 2419 0946 FFF7FEFF 		bl	HAL_Delay
 2420              	.LVL214:
 720:Core/Src/main.c ****         }
 2421              		.loc 1 720 11 view .LVU541
 2422 094a C820     		movs	r0, #200
 2423 094c FFF7FEFF 		bl	buzzer
 2424              	.LVL215:
 2425 0950 C5E7     		b	.L88
 2426              	.L89:
 736:Core/Src/main.c ****           while (f_gets(SD_read, sizeof(SD_read), &fil) != NULL)
 2427              		.loc 1 736 13 view .LVU542
 2428 0952 1348     		ldr	r0, .L103+44
 2429 0954 FFF7FEFF 		bl	log_data
 2430              	.LVL216:
 2431 0958 02E0     		b	.L91
 2432              	.L92:
 739:Core/Src/main.c ****           }
 2433              		.loc 1 739 13 view .LVU543
 2434 095a 2748     		ldr	r0, .L103+132
 2435 095c FFF7FEFF 		bl	rs232_logdata
 2436              	.LVL217:
 2437              	.L91:
 737:Core/Src/main.c ****           {
 2438              		.loc 1 737 17 view .LVU544
 737:Core/Src/main.c ****           {
 2439              		.loc 1 737 18 is_stmt 0 view .LVU545
 2440 0960 074A     		ldr	r2, .L103+12
 2441 0962 4FF48071 		mov	r1, #256
 2442 0966 2448     		ldr	r0, .L103+132
 2443 0968 FFF7FEFF 		bl	f_gets
 2444              	.LVL218:
ARM GAS  C:\Users\Admin\AppData\Local\Temp\ccE7ElAa.s 			page 74


 737:Core/Src/main.c ****           {
 2445              		.loc 1 737 17 view .LVU546
 2446 096c 0028     		cmp	r0, #0
 2447 096e F4D1     		bne	.L92
 2448 0970 A6E5     		b	.L76
 2449              	.L104:
 2450 0972 00BF     		.align	2
 2451              	.L103:
 2452 0974 00000000 		.word	.LANCHOR15
 2453 0978 10030000 		.word	.LC43
 2454 097c 1C030000 		.word	.LC44
 2455 0980 00000000 		.word	fil
 2456 0984 00000000 		.word	.LANCHOR18
 2457 0988 28030000 		.word	.LC45
 2458 098c 00000000 		.word	l70DataAfterHadler
 2459 0990 50030000 		.word	.LC47
 2460 0994 00000000 		.word	.LANCHOR22
 2461 0998 00000000 		.word	.LANCHOR34
 2462 099c A4010000 		.word	.LC28
 2463 09a0 38030000 		.word	.LC46
 2464 09a4 54030000 		.word	.LC48
 2465 09a8 00000000 		.word	.LANCHOR37
 2466 09ac 00000000 		.word	Font_7x10
 2467 09b0 00000000 		.word	.LANCHOR14
 2468 09b4 00000000 		.word	.LANCHOR5
 2469 09b8 B8030000 		.word	.LC53
 2470 09bc 00000000 		.word	.LC1
 2471 09c0 00000000 		.word	.LANCHOR3
 2472 09c4 00000000 		.word	.LANCHOR12
 2473 09c8 00000000 		.word	.LANCHOR38
 2474 09cc 54010000 		.word	.LC23
 2475 09d0 64030000 		.word	.LC49
 2476 09d4 A4030000 		.word	.LC52
 2477 09d8 74030000 		.word	.LC50
 2478 09dc 90030000 		.word	.LC51
 2479 09e0 E8020000 		.word	.LC41
 2480 09e4 00000000 		.word	.LANCHOR26
 2481 09e8 00000000 		.word	hrtc
 2482 09ec 00000000 		.word	.LANCHOR27
 2483 09f0 00000000 		.word	.LANCHOR16
 2484 09f4 00000000 		.word	.LANCHOR28
 2485 09f8 00000000 		.word	.LANCHOR39
 2486              		.cfi_endproc
 2487              	.LFE76:
 2489              		.global	rs232_flag
 2490              		.global	rs232_index
 2491              		.global	rs232_buff
 2492              		.global	rs232_data
 2493              		.global	flash_Readbuff
 2494              		.global	sensors
 2495              		.global	dht_hum
 2496              		.global	dht_temp
 2497              		.global	ds18_temp
 2498              		.global	Task_Mode
 2499              		.global	Taskperform
 2500              		.global	Type_Task
 2501              		.global	infoUser2
ARM GAS  C:\Users\Admin\AppData\Local\Temp\ccE7ElAa.s 			page 75


 2502              		.global	infoUser1
 2503              		.global	infoUser
 2504              		.global	id_ref
 2505              		.section	.rodata.str1.4,"aMS",%progbits,1
 2506              		.align	2
 2507              	.LC54:
 2508 0000 00       		.ascii	"\000"
 2509              		.global	Card_Endbuff
 2510              		.global	Card_Startbuff
 2511              		.global	Json_Data
 2512              		.global	stateDevice
 2513              		.global	SD_read
 2514              		.global	free_space
 2515              		.global	total
 2516              		.global	fre_clust
 2517              		.global	pfs
 2518              		.global	bw
 2519              		.global	br
 2520              		.global	SD_file_name
 2521              		.global	SD_buffer_r
 2522              		.global	SD_buffer_w
 2523              		.global	fresult
 2524              		.global	fil
 2525              		.global	fs
 2526              		.global	gnss_str
 2527              		.global	l70Data1
 2528              		.global	simMessage
 2529              		.global	longData
 2530              		.global	latData
 2531              		.global	GPSResponse
 2532              		.global	utctime_buff
 2533              		.global	numCheck_time
 2534              		.global	totalMinute_OperateTime_buff
 2535              		.global	time_minute
 2536              		.global	time_hour
 2537              		.global	totalMinute_OperateTime
 2538              		.global	check
 2539              		.global	date_buff
 2540              		.global	time_buff
 2541              		.global	year
 2542              		.global	month
 2543              		.global	day
 2544              		.global	date
 2545              		.global	hour
 2546              		.global	minute
 2547              		.global	sencond
 2548              		.global	sAlarm
 2549              		.global	last_sDate
 2550              		.global	last_sTime
 2551              		.global	current_sDate
 2552              		.global	current_sTime
 2553              		.global	Vehical_veloc
 2554              		.global	last_time
 2555              		.global	current_time
 2556              		.global	Vehical_State
 2557              		.global	npn_count
 2558              		.global	npn_flag_check
ARM GAS  C:\Users\Admin\AppData\Local\Temp\ccE7ElAa.s 			page 76


 2559              		.global	Logout
 2560              		.global	waiting4LogOut
 2561              		.global	szBuff
 2562              		.global	CardID
 2563              		.global	bitmap
 2564              		.section	.bss.CardID,"aw",%nobits
 2565              		.align	2
 2566              		.set	.LANCHOR12,. + 0
 2569              	CardID:
 2570 0000 00000000 		.space	5
 2570      00
 2571              		.section	.bss.Card_Endbuff,"aw",%nobits
 2572              		.align	2
 2573              		.set	.LANCHOR38,. + 0
 2576              	Card_Endbuff:
 2577 0000 00000000 		.space	20
 2577      00000000 
 2577      00000000 
 2577      00000000 
 2577      00000000 
 2578              		.section	.bss.Card_Startbuff,"aw",%nobits
 2579              		.align	2
 2580              		.set	.LANCHOR22,. + 0
 2583              	Card_Startbuff:
 2584 0000 00000000 		.space	20
 2584      00000000 
 2584      00000000 
 2584      00000000 
 2584      00000000 
 2585              		.section	.bss.GPSResponse,"aw",%nobits
 2586              		.align	2
 2587              		.set	.LANCHOR32,. + 0
 2590              	GPSResponse:
 2591 0000 00000000 		.space	4
 2592              		.section	.bss.Json_Data,"aw",%nobits
 2593              		.align	2
 2594              		.set	.LANCHOR35,. + 0
 2597              	Json_Data:
 2598 0000 00000000 		.space	500
 2598      00000000 
 2598      00000000 
 2598      00000000 
 2598      00000000 
 2599              		.section	.bss.Logout,"aw",%nobits
 2600              		.set	.LANCHOR14,. + 0
 2603              	Logout:
 2604 0000 00       		.space	1
 2605              		.section	.bss.SD_buffer_r,"aw",%nobits
 2606              		.align	2
 2609              	SD_buffer_r:
 2610 0000 00000000 		.space	10224
 2610      00000000 
 2610      00000000 
 2610      00000000 
 2610      00000000 
 2611              		.section	.bss.SD_buffer_w,"aw",%nobits
 2612              		.align	2
ARM GAS  C:\Users\Admin\AppData\Local\Temp\ccE7ElAa.s 			page 77


 2615              	SD_buffer_w:
 2616 0000 00000000 		.space	1024
 2616      00000000 
 2616      00000000 
 2616      00000000 
 2616      00000000 
 2617              		.section	.bss.SD_file_name,"aw",%nobits
 2618              		.align	2
 2621              	SD_file_name:
 2622 0000 00000000 		.space	50
 2622      00000000 
 2622      00000000 
 2622      00000000 
 2622      00000000 
 2623              		.section	.bss.SD_read,"aw",%nobits
 2624              		.align	2
 2625              		.set	.LANCHOR39,. + 0
 2628              	SD_read:
 2629 0000 00000000 		.space	256
 2629      00000000 
 2629      00000000 
 2629      00000000 
 2629      00000000 
 2630              		.section	.bss.Task_Mode,"aw",%nobits
 2631              		.align	2
 2634              	Task_Mode:
 2635 0000 00000000 		.space	4
 2636              		.section	.bss.Taskperform,"aw",%nobits
 2637              		.align	2
 2638              		.set	.LANCHOR15,. + 0
 2641              	Taskperform:
 2642 0000 00000000 		.space	5
 2642      00
 2643              		.section	.bss.Vehical_State,"aw",%nobits
 2644              		.align	2
 2645              		.set	.LANCHOR8,. + 0
 2648              	Vehical_State:
 2649 0000 00000000 		.space	4
 2650              		.section	.bss.Vehical_veloc,"aw",%nobits
 2651              		.align	2
 2652              		.set	.LANCHOR11,. + 0
 2655              	Vehical_veloc:
 2656 0000 00000000 		.space	4
 2657              		.section	.bss.br,"aw",%nobits
 2658              		.align	2
 2661              	br:
 2662 0000 00000000 		.space	4
 2663              		.section	.bss.bw,"aw",%nobits
 2664              		.align	2
 2667              	bw:
 2668 0000 00000000 		.space	4
 2669              		.section	.bss.check,"aw",%nobits
 2670              		.align	2
 2673              	check:
 2674 0000 00000000 		.space	4
 2675              		.section	.bss.current_sDate,"aw",%nobits
 2676              		.align	2
ARM GAS  C:\Users\Admin\AppData\Local\Temp\ccE7ElAa.s 			page 78


 2677              		.set	.LANCHOR23,. + 0
 2680              	current_sDate:
 2681 0000 00000000 		.space	4
 2682              		.section	.bss.current_sTime,"aw",%nobits
 2683              		.align	2
 2684              		.set	.LANCHOR16,. + 0
 2687              	current_sTime:
 2688 0000 000000   		.space	3
 2689              		.section	.bss.current_time,"aw",%nobits
 2690              		.align	2
 2691              		.set	.LANCHOR6,. + 0
 2694              	current_time:
 2695 0000 00000000 		.space	4
 2696              		.section	.bss.date,"aw",%nobits
 2699              	date:
 2700 0000 00       		.space	1
 2701              		.section	.bss.date_buff,"aw",%nobits
 2702              		.align	2
 2703              		.set	.LANCHOR25,. + 0
 2706              	date_buff:
 2707 0000 00000000 		.space	20
 2707      00000000 
 2707      00000000 
 2707      00000000 
 2707      00000000 
 2708              		.section	.bss.day,"aw",%nobits
 2711              	day:
 2712 0000 00       		.space	1
 2713              		.section	.bss.dht_hum,"aw",%nobits
 2714              		.align	2
 2717              	dht_hum:
 2718 0000 00000000 		.space	4
 2719              		.section	.bss.dht_temp,"aw",%nobits
 2720              		.align	2
 2723              	dht_temp:
 2724 0000 00000000 		.space	4
 2725              		.section	.bss.ds18_temp,"aw",%nobits
 2726              		.align	2
 2727              		.set	.LANCHOR33,. + 0
 2730              	ds18_temp:
 2731 0000 00000000 		.space	4
 2732              		.section	.bss.fil,"aw",%nobits
 2733              		.align	2
 2736              	fil:
 2737 0000 00000000 		.space	4140
 2737      00000000 
 2737      00000000 
 2737      00000000 
 2737      00000000 
 2738              		.section	.bss.flash_Readbuff,"aw",%nobits
 2739              		.align	2
 2742              	flash_Readbuff:
 2743 0000 00000000 		.space	1024
 2743      00000000 
 2743      00000000 
 2743      00000000 
 2743      00000000 
ARM GAS  C:\Users\Admin\AppData\Local\Temp\ccE7ElAa.s 			page 79


 2744              		.section	.bss.fre_clust,"aw",%nobits
 2745              		.align	2
 2748              	fre_clust:
 2749 0000 00000000 		.space	4
 2750              		.section	.bss.free_space,"aw",%nobits
 2751              		.align	2
 2754              	free_space:
 2755 0000 00000000 		.space	4
 2756              		.section	.bss.fresult,"aw",%nobits
 2757              		.set	.LANCHOR18,. + 0
 2760              	fresult:
 2761 0000 00       		.space	1
 2762              		.section	.bss.fs,"aw",%nobits
 2763              		.align	2
 2766              	fs:
 2767 0000 00000000 		.space	4144
 2767      00000000 
 2767      00000000 
 2767      00000000 
 2767      00000000 
 2768              		.section	.bss.gnss_str,"aw",%nobits
 2769              		.align	2
 2772              	gnss_str:
 2773 0000 00000000 		.space	100
 2773      00000000 
 2773      00000000 
 2773      00000000 
 2773      00000000 
 2774              		.section	.bss.hour,"aw",%nobits
 2777              	hour:
 2778 0000 00       		.space	1
 2779              		.section	.bss.infoUser,"aw",%nobits
 2780              		.align	2
 2781              		.set	.LANCHOR0,. + 0
 2784              	infoUser:
 2785 0000 00000000 		.space	90
 2785      00000000 
 2785      00000000 
 2785      00000000 
 2785      00000000 
 2786              		.section	.bss.infoUser1,"aw",%nobits
 2787              		.align	2
 2788              		.set	.LANCHOR20,. + 0
 2791              	infoUser1:
 2792 0000 00000000 		.space	90
 2792      00000000 
 2792      00000000 
 2792      00000000 
 2792      00000000 
 2793              		.section	.bss.infoUser2,"aw",%nobits
 2794              		.align	2
 2795              		.set	.LANCHOR21,. + 0
 2798              	infoUser2:
 2799 0000 00000000 		.space	90
 2799      00000000 
 2799      00000000 
 2799      00000000 
ARM GAS  C:\Users\Admin\AppData\Local\Temp\ccE7ElAa.s 			page 80


 2799      00000000 
 2800              		.section	.bss.l70Data1,"aw",%nobits
 2803              	l70Data1:
 2804 0000 00       		.space	1
 2805              		.section	.bss.last_sDate,"aw",%nobits
 2806              		.align	2
 2807              		.set	.LANCHOR27,. + 0
 2810              	last_sDate:
 2811 0000 00000000 		.space	4
 2812              		.section	.bss.last_sTime,"aw",%nobits
 2813              		.align	2
 2814              		.set	.LANCHOR26,. + 0
 2817              	last_sTime:
 2818 0000 000000   		.space	3
 2819              		.section	.bss.last_time,"aw",%nobits
 2820              		.align	2
 2821              		.set	.LANCHOR10,. + 0
 2824              	last_time:
 2825 0000 00000000 		.space	4
 2826              		.section	.bss.latData,"aw",%nobits
 2827              		.align	2
 2830              	latData:
 2831 0000 00000000 		.space	15
 2831      00000000 
 2831      00000000 
 2831      000000
 2832              		.section	.bss.longData,"aw",%nobits
 2833              		.align	2
 2836              	longData:
 2837 0000 00000000 		.space	15
 2837      00000000 
 2837      00000000 
 2837      000000
 2838              		.section	.bss.minute,"aw",%nobits
 2841              	minute:
 2842 0000 00       		.space	1
 2843              		.section	.bss.month,"aw",%nobits
 2846              	month:
 2847 0000 00       		.space	1
 2848              		.section	.bss.npn_count,"aw",%nobits
 2849              		.align	2
 2850              		.set	.LANCHOR9,. + 0
 2853              	npn_count:
 2854 0000 00000000 		.space	4
 2855              		.section	.bss.numCheck_time,"aw",%nobits
 2856              		.align	2
 2857              		.set	.LANCHOR36,. + 0
 2860              	numCheck_time:
 2861 0000 00000000 		.space	4
 2862              		.section	.bss.pfs,"aw",%nobits
 2863              		.align	2
 2866              	pfs:
 2867 0000 00000000 		.space	4
 2868              		.section	.bss.rs232_buff,"aw",%nobits
 2869              		.align	2
 2870              		.set	.LANCHOR3,. + 0
 2873              	rs232_buff:
ARM GAS  C:\Users\Admin\AppData\Local\Temp\ccE7ElAa.s 			page 81


 2874 0000 00000000 		.space	50
 2874      00000000 
 2874      00000000 
 2874      00000000 
 2874      00000000 
 2875              		.section	.bss.rs232_data,"aw",%nobits
 2876              		.set	.LANCHOR4,. + 0
 2879              	rs232_data:
 2880 0000 00       		.space	1
 2881              		.section	.bss.rs232_flag,"aw",%nobits
 2882              		.set	.LANCHOR5,. + 0
 2885              	rs232_flag:
 2886 0000 00       		.space	1
 2887              		.section	.bss.rs232_index,"aw",%nobits
 2888              		.align	2
 2889              		.set	.LANCHOR2,. + 0
 2892              	rs232_index:
 2893 0000 00000000 		.space	4
 2894              		.section	.bss.sAlarm,"aw",%nobits
 2895              		.align	2
 2898              	sAlarm:
 2899 0000 00000000 		.space	8
 2899      00000000 
 2900              		.section	.bss.sencond,"aw",%nobits
 2903              	sencond:
 2904 0000 00       		.space	1
 2905              		.section	.bss.sensors,"aw",%nobits
 2906              		.align	2
 2907              		.set	.LANCHOR34,. + 0
 2910              	sensors:
 2911 0000 00000000 		.space	110
 2911      00000000 
 2911      00000000 
 2911      00000000 
 2911      00000000 
 2912              		.section	.bss.simMessage,"aw",%nobits
 2913              		.align	2
 2916              	simMessage:
 2917 0000 00000000 		.space	200
 2917      00000000 
 2917      00000000 
 2917      00000000 
 2917      00000000 
 2918              		.section	.bss.stateDevice,"aw",%nobits
 2919              		.align	2
 2920              		.set	.LANCHOR19,. + 0
 2923              	stateDevice:
 2924 0000 00000000 		.space	11
 2924      00000000 
 2924      000000
 2925              		.section	.bss.szBuff,"aw",%nobits
 2926              		.align	2
 2929              	szBuff:
 2930 0000 00000000 		.space	20
 2930      00000000 
 2930      00000000 
 2930      00000000 
ARM GAS  C:\Users\Admin\AppData\Local\Temp\ccE7ElAa.s 			page 82


 2930      00000000 
 2931              		.section	.bss.time_buff,"aw",%nobits
 2932              		.align	2
 2933              		.set	.LANCHOR24,. + 0
 2936              	time_buff:
 2937 0000 00000000 		.space	20
 2937      00000000 
 2937      00000000 
 2937      00000000 
 2937      00000000 
 2938              		.section	.bss.time_hour,"aw",%nobits
 2939              		.align	2
 2940              		.set	.LANCHOR29,. + 0
 2943              	time_hour:
 2944 0000 00000000 		.space	4
 2945              		.section	.bss.time_minute,"aw",%nobits
 2946              		.align	2
 2947              		.set	.LANCHOR30,. + 0
 2950              	time_minute:
 2951 0000 00000000 		.space	4
 2952              		.section	.bss.total,"aw",%nobits
 2953              		.align	2
 2956              	total:
 2957 0000 00000000 		.space	4
 2958              		.section	.bss.totalMinute_OperateTime,"aw",%nobits
 2959              		.align	1
 2960              		.set	.LANCHOR28,. + 0
 2963              	totalMinute_OperateTime:
 2964 0000 0000     		.space	2
 2965              		.section	.bss.totalMinute_OperateTime_buff,"aw",%nobits
 2966              		.align	2
 2967              		.set	.LANCHOR31,. + 0
 2970              	totalMinute_OperateTime_buff:
 2971 0000 00000000 		.space	30
 2971      00000000 
 2971      00000000 
 2971      00000000 
 2971      00000000 
 2972              		.section	.bss.utctime_buff,"aw",%nobits
 2973              		.align	2
 2974              		.set	.LANCHOR37,. + 0
 2977              	utctime_buff:
 2978 0000 00000000 		.space	10
 2978      00000000 
 2978      0000
 2979              		.section	.bss.waiting4LogOut,"aw",%nobits
 2980              		.set	.LANCHOR13,. + 0
 2983              	waiting4LogOut:
 2984 0000 00       		.space	1
 2985              		.section	.bss.year,"aw",%nobits
 2988              	year:
 2989 0000 00       		.space	1
 2990              		.section	.data.Type_Task,"aw"
 2991              		.align	2
 2992              		.set	.LANCHOR1,. + 0
 2995              	Type_Task:
 2996 0000 04000000 		.word	4
ARM GAS  C:\Users\Admin\AppData\Local\Temp\ccE7ElAa.s 			page 83


 2997              		.section	.data.id_ref,"aw"
 2998              		.align	2
 3001              	id_ref:
 3002 0000 00000000 		.word	.LC54
 3003              		.section	.data.npn_flag_check,"aw"
 3004              		.align	2
 3005              		.set	.LANCHOR7,. + 0
 3008              	npn_flag_check:
 3009 0000 01000000 		.word	1
 3010              		.section	.rodata.bitmap,"a"
 3011              		.align	2
 3012              		.set	.LANCHOR17,. + 0
 3015              	bitmap:
 3016 0000 00       		.byte	0
 3017 0001 00       		.byte	0
 3018 0002 00       		.byte	0
 3019 0003 00       		.byte	0
 3020 0004 00       		.byte	0
 3021 0005 00       		.byte	0
 3022 0006 00       		.byte	0
 3023 0007 00       		.byte	0
 3024 0008 00       		.byte	0
 3025 0009 00       		.byte	0
 3026 000a 00       		.byte	0
 3027 000b 00       		.byte	0
 3028 000c 00       		.byte	0
 3029 000d 00       		.byte	0
 3030 000e 00       		.byte	0
 3031 000f 00       		.byte	0
 3032 0010 7F       		.byte	127
 3033 0011 C0       		.byte	-64
 3034 0012 00       		.byte	0
 3035 0013 01       		.byte	1
 3036 0014 8F       		.byte	-113
 3037 0015 C0       		.byte	-64
 3038 0016 42       		.byte	66
 3039 0017 00       		.byte	0
 3040 0018 80       		.byte	-128
 3041 0019 00       		.byte	0
 3042 001a 00       		.byte	0
 3043 001b 00       		.byte	0
 3044 001c 00       		.byte	0
 3045 001d 00       		.byte	0
 3046 001e 00       		.byte	0
 3047 001f 00       		.byte	0
 3048 0020 20       		.byte	32
 3049 0021 80       		.byte	-128
 3050 0022 18       		.byte	24
 3051 0023 02       		.byte	2
 3052 0024 90       		.byte	-112
 3053 0025 20       		.byte	32
 3054 0026 E2       		.byte	-30
 3055 0027 01       		.byte	1
 3056 0028 C0       		.byte	-64
 3057 0029 00       		.byte	0
 3058 002a 00       		.byte	0
 3059 002b 00       		.byte	0
ARM GAS  C:\Users\Admin\AppData\Local\Temp\ccE7ElAa.s 			page 84


 3060 002c 00       		.byte	0
 3061 002d 00       		.byte	0
 3062 002e 00       		.byte	0
 3063 002f 00       		.byte	0
 3064 0030 11       		.byte	17
 3065 0031 00       		.byte	0
 3066 0032 18       		.byte	24
 3067 0033 04       		.byte	4
 3068 0034 90       		.byte	-112
 3069 0035 21       		.byte	33
 3070 0036 52       		.byte	82
 3071 0037 02       		.byte	2
 3072 0038 20       		.byte	32
 3073 0039 00       		.byte	0
 3074 003a 00       		.byte	0
 3075 003b 00       		.byte	0
 3076 003c 00       		.byte	0
 3077 003d 03       		.byte	3
 3078 003e FF       		.byte	-1
 3079 003f FE       		.byte	-2
 3080 0040 0A       		.byte	10
 3081 0041 00       		.byte	0
 3082 0042 D8       		.byte	-40
 3083 0043 08       		.byte	8
 3084 0044 90       		.byte	-112
 3085 0045 00       		.byte	0
 3086 0046 42       		.byte	66
 3087 0047 04       		.byte	4
 3088 0048 10       		.byte	16
 3089 0049 00       		.byte	0
 3090 004a 00       		.byte	0
 3091 004b 00       		.byte	0
 3092 004c 00       		.byte	0
 3093 004d 03       		.byte	3
 3094 004e FF       		.byte	-1
 3095 004f FE       		.byte	-2
 3096 0050 04       		.byte	4
 3097 0051 00       		.byte	0
 3098 0052 D8       		.byte	-40
 3099 0053 10       		.byte	16
 3100 0054 90       		.byte	-112
 3101 0055 00       		.byte	0
 3102 0056 42       		.byte	66
 3103 0057 08       		.byte	8
 3104 0058 08       		.byte	8
 3105 0059 00       		.byte	0
 3106 005a 00       		.byte	0
 3107 005b 00       		.byte	0
 3108 005c 00       		.byte	0
 3109 005d 03       		.byte	3
 3110 005e FF       		.byte	-1
 3111 005f FE       		.byte	-2
 3112 0060 04       		.byte	4
 3113 0061 06       		.byte	6
 3114 0062 D8       		.byte	-40
 3115 0063 20       		.byte	32
 3116 0064 90       		.byte	-112
ARM GAS  C:\Users\Admin\AppData\Local\Temp\ccE7ElAa.s 			page 85


 3117 0065 00       		.byte	0
 3118 0066 42       		.byte	66
 3119 0067 18       		.byte	24
 3120 0068 8C       		.byte	-116
 3121 0069 00       		.byte	0
 3122 006a 00       		.byte	0
 3123 006b 00       		.byte	0
 3124 006c 00       		.byte	0
 3125 006d 1F       		.byte	31
 3126 006e FF       		.byte	-1
 3127 006f FE       		.byte	-2
 3128 0070 04       		.byte	4
 3129 0071 06       		.byte	6
 3130 0072 D8       		.byte	-40
 3131 0073 20       		.byte	32
 3132 0074 91       		.byte	-111
 3133 0075 E0       		.byte	-32
 3134 0076 42       		.byte	66
 3135 0077 08       		.byte	8
 3136 0078 08       		.byte	8
 3137 0079 00       		.byte	0
 3138 007a 00       		.byte	0
 3139 007b 00       		.byte	0
 3140 007c 00       		.byte	0
 3141 007d 1F       		.byte	31
 3142 007e FF       		.byte	-1
 3143 007f FE       		.byte	-2
 3144 0080 04       		.byte	4
 3145 0081 36       		.byte	54
 3146 0082 D8       		.byte	-40
 3147 0083 3F       		.byte	63
 3148 0084 D0       		.byte	-48
 3149 0085 20       		.byte	32
 3150 0086 42       		.byte	66
 3151 0087 04       		.byte	4
 3152 0088 10       		.byte	16
 3153 0089 00       		.byte	0
 3154 008a 00       		.byte	0
 3155 008b 00       		.byte	0
 3156 008c 00       		.byte	0
 3157 008d 03       		.byte	3
 3158 008e FF       		.byte	-1
 3159 008f FE       		.byte	-2
 3160 0090 04       		.byte	4
 3161 0091 36       		.byte	54
 3162 0092 D8       		.byte	-40
 3163 0093 00       		.byte	0
 3164 0094 90       		.byte	-112
 3165 0095 20       		.byte	32
 3166 0096 4A       		.byte	74
 3167 0097 82       		.byte	-126
 3168 0098 20       		.byte	32
 3169 0099 00       		.byte	0
 3170 009a 00       		.byte	0
 3171 009b 00       		.byte	0
 3172 009c 00       		.byte	0
 3173 009d 03       		.byte	3
ARM GAS  C:\Users\Admin\AppData\Local\Temp\ccE7ElAa.s 			page 86


 3174 009e FF       		.byte	-1
 3175 009f FE       		.byte	-2
 3176 00a0 05       		.byte	5
 3177 00a1 B6       		.byte	-74
 3178 00a2 D8       		.byte	-40
 3179 00a3 00       		.byte	0
 3180 00a4 90       		.byte	-112
 3181 00a5 20       		.byte	32
 3182 00a6 47       		.byte	71
 3183 00a7 01       		.byte	1
 3184 00a8 C0       		.byte	-64
 3185 00a9 00       		.byte	0
 3186 00aa 00       		.byte	0
 3187 00ab 00       		.byte	0
 3188 00ac 00       		.byte	0
 3189 00ad 03       		.byte	3
 3190 00ae FF       		.byte	-1
 3191 00af FE       		.byte	-2
 3192 00b0 05       		.byte	5
 3193 00b1 B6       		.byte	-74
 3194 00b2 D8       		.byte	-40
 3195 00b3 00       		.byte	0
 3196 00b4 8F       		.byte	-113
 3197 00b5 C0       		.byte	-64
 3198 00b6 42       		.byte	66
 3199 00b7 00       		.byte	0
 3200 00b8 80       		.byte	-128
 3201 00b9 00       		.byte	0
 3202 00ba 00       		.byte	0
 3203 00bb 00       		.byte	0
 3204 00bc 00       		.byte	0
 3205 00bd 00       		.byte	0
 3206 00be 00       		.byte	0
 3207 00bf 00       		.byte	0
 3208 00c0 FF       		.byte	-1
 3209 00c1 FF       		.byte	-1
 3210 00c2 FF       		.byte	-1
 3211 00c3 FF       		.byte	-1
 3212 00c4 FF       		.byte	-1
 3213 00c5 FF       		.byte	-1
 3214 00c6 FF       		.byte	-1
 3215 00c7 FF       		.byte	-1
 3216 00c8 FF       		.byte	-1
 3217 00c9 FF       		.byte	-1
 3218 00ca FF       		.byte	-1
 3219 00cb FF       		.byte	-1
 3220 00cc FF       		.byte	-1
 3221 00cd FF       		.byte	-1
 3222 00ce FF       		.byte	-1
 3223 00cf FF       		.byte	-1
 3224 00d0 00       		.byte	0
 3225 00d1 00       		.byte	0
 3226 00d2 00       		.byte	0
 3227 00d3 00       		.byte	0
 3228 00d4 00       		.byte	0
 3229 00d5 00       		.byte	0
 3230 00d6 00       		.byte	0
ARM GAS  C:\Users\Admin\AppData\Local\Temp\ccE7ElAa.s 			page 87


 3231 00d7 00       		.byte	0
 3232 00d8 00       		.byte	0
 3233 00d9 00       		.byte	0
 3234 00da 00       		.byte	0
 3235 00db 00       		.byte	0
 3236 00dc 00       		.byte	0
 3237 00dd 00       		.byte	0
 3238 00de 00       		.byte	0
 3239 00df 00       		.byte	0
 3240 00e0 00       		.byte	0
 3241 00e1 00       		.byte	0
 3242 00e2 00       		.byte	0
 3243 00e3 00       		.byte	0
 3244 00e4 00       		.byte	0
 3245 00e5 00       		.byte	0
 3246 00e6 00       		.byte	0
 3247 00e7 00       		.byte	0
 3248 00e8 00       		.byte	0
 3249 00e9 00       		.byte	0
 3250 00ea 00       		.byte	0
 3251 00eb 00       		.byte	0
 3252 00ec 00       		.byte	0
 3253 00ed 00       		.byte	0
 3254 00ee 00       		.byte	0
 3255 00ef 00       		.byte	0
 3256 00f0 00       		.byte	0
 3257 00f1 00       		.byte	0
 3258 00f2 00       		.byte	0
 3259 00f3 00       		.byte	0
 3260 00f4 00       		.byte	0
 3261 00f5 00       		.byte	0
 3262 00f6 00       		.byte	0
 3263 00f7 00       		.byte	0
 3264 00f8 00       		.byte	0
 3265 00f9 00       		.byte	0
 3266 00fa 00       		.byte	0
 3267 00fb 00       		.byte	0
 3268 00fc 00       		.byte	0
 3269 00fd 00       		.byte	0
 3270 00fe 00       		.byte	0
 3271 00ff 00       		.byte	0
 3272 0100 00       		.byte	0
 3273 0101 00       		.byte	0
 3274 0102 00       		.byte	0
 3275 0103 00       		.byte	0
 3276 0104 00       		.byte	0
 3277 0105 00       		.byte	0
 3278 0106 00       		.byte	0
 3279 0107 00       		.byte	0
 3280 0108 00       		.byte	0
 3281 0109 00       		.byte	0
 3282 010a 00       		.byte	0
 3283 010b 00       		.byte	0
 3284 010c 00       		.byte	0
 3285 010d 00       		.byte	0
 3286 010e 00       		.byte	0
 3287 010f 00       		.byte	0
ARM GAS  C:\Users\Admin\AppData\Local\Temp\ccE7ElAa.s 			page 88


 3288 0110 00       		.byte	0
 3289 0111 00       		.byte	0
 3290 0112 00       		.byte	0
 3291 0113 00       		.byte	0
 3292 0114 00       		.byte	0
 3293 0115 00       		.byte	0
 3294 0116 00       		.byte	0
 3295 0117 00       		.byte	0
 3296 0118 00       		.byte	0
 3297 0119 00       		.byte	0
 3298 011a 00       		.byte	0
 3299 011b 00       		.byte	0
 3300 011c 00       		.byte	0
 3301 011d 00       		.byte	0
 3302 011e 00       		.byte	0
 3303 011f 00       		.byte	0
 3304 0120 00       		.byte	0
 3305 0121 00       		.byte	0
 3306 0122 00       		.byte	0
 3307 0123 00       		.byte	0
 3308 0124 00       		.byte	0
 3309 0125 00       		.byte	0
 3310 0126 00       		.byte	0
 3311 0127 00       		.byte	0
 3312 0128 00       		.byte	0
 3313 0129 00       		.byte	0
 3314 012a 00       		.byte	0
 3315 012b 00       		.byte	0
 3316 012c 00       		.byte	0
 3317 012d 00       		.byte	0
 3318 012e 00       		.byte	0
 3319 012f 00       		.byte	0
 3320 0130 00       		.byte	0
 3321 0131 00       		.byte	0
 3322 0132 00       		.byte	0
 3323 0133 00       		.byte	0
 3324 0134 00       		.byte	0
 3325 0135 00       		.byte	0
 3326 0136 00       		.byte	0
 3327 0137 00       		.byte	0
 3328 0138 00       		.byte	0
 3329 0139 00       		.byte	0
 3330 013a 00       		.byte	0
 3331 013b 00       		.byte	0
 3332 013c 00       		.byte	0
 3333 013d 00       		.byte	0
 3334 013e 00       		.byte	0
 3335 013f 00       		.byte	0
 3336 0140 00       		.byte	0
 3337 0141 00       		.byte	0
 3338 0142 00       		.byte	0
 3339 0143 00       		.byte	0
 3340 0144 00       		.byte	0
 3341 0145 00       		.byte	0
 3342 0146 00       		.byte	0
 3343 0147 00       		.byte	0
 3344 0148 00       		.byte	0
ARM GAS  C:\Users\Admin\AppData\Local\Temp\ccE7ElAa.s 			page 89


 3345 0149 00       		.byte	0
 3346 014a 00       		.byte	0
 3347 014b 00       		.byte	0
 3348 014c 00       		.byte	0
 3349 014d 00       		.byte	0
 3350 014e 00       		.byte	0
 3351 014f 00       		.byte	0
 3352 0150 00       		.byte	0
 3353 0151 00       		.byte	0
 3354 0152 00       		.byte	0
 3355 0153 00       		.byte	0
 3356 0154 00       		.byte	0
 3357 0155 00       		.byte	0
 3358 0156 00       		.byte	0
 3359 0157 00       		.byte	0
 3360 0158 00       		.byte	0
 3361 0159 00       		.byte	0
 3362 015a 00       		.byte	0
 3363 015b 00       		.byte	0
 3364 015c 00       		.byte	0
 3365 015d 00       		.byte	0
 3366 015e 00       		.byte	0
 3367 015f 00       		.byte	0
 3368 0160 00       		.byte	0
 3369 0161 00       		.byte	0
 3370 0162 00       		.byte	0
 3371 0163 00       		.byte	0
 3372 0164 00       		.byte	0
 3373 0165 00       		.byte	0
 3374 0166 00       		.byte	0
 3375 0167 00       		.byte	0
 3376 0168 00       		.byte	0
 3377 0169 00       		.byte	0
 3378 016a 00       		.byte	0
 3379 016b 00       		.byte	0
 3380 016c 00       		.byte	0
 3381 016d 00       		.byte	0
 3382 016e 00       		.byte	0
 3383 016f 00       		.byte	0
 3384 0170 00       		.byte	0
 3385 0171 00       		.byte	0
 3386 0172 00       		.byte	0
 3387 0173 00       		.byte	0
 3388 0174 00       		.byte	0
 3389 0175 00       		.byte	0
 3390 0176 00       		.byte	0
 3391 0177 00       		.byte	0
 3392 0178 00       		.byte	0
 3393 0179 00       		.byte	0
 3394 017a 00       		.byte	0
 3395 017b 00       		.byte	0
 3396 017c 00       		.byte	0
 3397 017d 00       		.byte	0
 3398 017e 00       		.byte	0
 3399 017f 00       		.byte	0
 3400 0180 00       		.byte	0
 3401 0181 00       		.byte	0
ARM GAS  C:\Users\Admin\AppData\Local\Temp\ccE7ElAa.s 			page 90


 3402 0182 00       		.byte	0
 3403 0183 00       		.byte	0
 3404 0184 00       		.byte	0
 3405 0185 00       		.byte	0
 3406 0186 00       		.byte	0
 3407 0187 00       		.byte	0
 3408 0188 00       		.byte	0
 3409 0189 00       		.byte	0
 3410 018a 00       		.byte	0
 3411 018b 00       		.byte	0
 3412 018c 00       		.byte	0
 3413 018d 00       		.byte	0
 3414 018e 00       		.byte	0
 3415 018f 00       		.byte	0
 3416 0190 00       		.byte	0
 3417 0191 00       		.byte	0
 3418 0192 00       		.byte	0
 3419 0193 00       		.byte	0
 3420 0194 00       		.byte	0
 3421 0195 00       		.byte	0
 3422 0196 00       		.byte	0
 3423 0197 00       		.byte	0
 3424 0198 00       		.byte	0
 3425 0199 00       		.byte	0
 3426 019a 00       		.byte	0
 3427 019b 00       		.byte	0
 3428 019c 00       		.byte	0
 3429 019d 00       		.byte	0
 3430 019e 00       		.byte	0
 3431 019f 00       		.byte	0
 3432 01a0 00       		.byte	0
 3433 01a1 00       		.byte	0
 3434 01a2 00       		.byte	0
 3435 01a3 00       		.byte	0
 3436 01a4 00       		.byte	0
 3437 01a5 00       		.byte	0
 3438 01a6 00       		.byte	0
 3439 01a7 00       		.byte	0
 3440 01a8 00       		.byte	0
 3441 01a9 00       		.byte	0
 3442 01aa 00       		.byte	0
 3443 01ab 00       		.byte	0
 3444 01ac 00       		.byte	0
 3445 01ad 00       		.byte	0
 3446 01ae 00       		.byte	0
 3447 01af 00       		.byte	0
 3448 01b0 00       		.byte	0
 3449 01b1 00       		.byte	0
 3450 01b2 00       		.byte	0
 3451 01b3 00       		.byte	0
 3452 01b4 00       		.byte	0
 3453 01b5 00       		.byte	0
 3454 01b6 00       		.byte	0
 3455 01b7 00       		.byte	0
 3456 01b8 00       		.byte	0
 3457 01b9 00       		.byte	0
 3458 01ba 00       		.byte	0
ARM GAS  C:\Users\Admin\AppData\Local\Temp\ccE7ElAa.s 			page 91


 3459 01bb 00       		.byte	0
 3460 01bc 00       		.byte	0
 3461 01bd 00       		.byte	0
 3462 01be 00       		.byte	0
 3463 01bf 00       		.byte	0
 3464 01c0 00       		.byte	0
 3465 01c1 00       		.byte	0
 3466 01c2 00       		.byte	0
 3467 01c3 00       		.byte	0
 3468 01c4 00       		.byte	0
 3469 01c5 00       		.byte	0
 3470 01c6 00       		.byte	0
 3471 01c7 00       		.byte	0
 3472 01c8 00       		.byte	0
 3473 01c9 00       		.byte	0
 3474 01ca 00       		.byte	0
 3475 01cb 00       		.byte	0
 3476 01cc 00       		.byte	0
 3477 01cd 00       		.byte	0
 3478 01ce 00       		.byte	0
 3479 01cf 00       		.byte	0
 3480 01d0 00       		.byte	0
 3481 01d1 00       		.byte	0
 3482 01d2 00       		.byte	0
 3483 01d3 00       		.byte	0
 3484 01d4 00       		.byte	0
 3485 01d5 00       		.byte	0
 3486 01d6 00       		.byte	0
 3487 01d7 00       		.byte	0
 3488 01d8 00       		.byte	0
 3489 01d9 00       		.byte	0
 3490 01da 00       		.byte	0
 3491 01db 00       		.byte	0
 3492 01dc 00       		.byte	0
 3493 01dd 00       		.byte	0
 3494 01de 00       		.byte	0
 3495 01df 00       		.byte	0
 3496 01e0 00       		.byte	0
 3497 01e1 00       		.byte	0
 3498 01e2 00       		.byte	0
 3499 01e3 00       		.byte	0
 3500 01e4 00       		.byte	0
 3501 01e5 00       		.byte	0
 3502 01e6 00       		.byte	0
 3503 01e7 00       		.byte	0
 3504 01e8 00       		.byte	0
 3505 01e9 00       		.byte	0
 3506 01ea 00       		.byte	0
 3507 01eb 00       		.byte	0
 3508 01ec 00       		.byte	0
 3509 01ed 00       		.byte	0
 3510 01ee 00       		.byte	0
 3511 01ef 00       		.byte	0
 3512 01f0 00       		.byte	0
 3513 01f1 00       		.byte	0
 3514 01f2 00       		.byte	0
 3515 01f3 00       		.byte	0
ARM GAS  C:\Users\Admin\AppData\Local\Temp\ccE7ElAa.s 			page 92


 3516 01f4 00       		.byte	0
 3517 01f5 00       		.byte	0
 3518 01f6 00       		.byte	0
 3519 01f7 00       		.byte	0
 3520 01f8 00       		.byte	0
 3521 01f9 00       		.byte	0
 3522 01fa 00       		.byte	0
 3523 01fb 00       		.byte	0
 3524 01fc 00       		.byte	0
 3525 01fd 00       		.byte	0
 3526 01fe 00       		.byte	0
 3527 01ff 00       		.byte	0
 3528 0200 00       		.byte	0
 3529 0201 00       		.byte	0
 3530 0202 00       		.byte	0
 3531 0203 00       		.byte	0
 3532 0204 00       		.byte	0
 3533 0205 00       		.byte	0
 3534 0206 00       		.byte	0
 3535 0207 00       		.byte	0
 3536 0208 00       		.byte	0
 3537 0209 00       		.byte	0
 3538 020a 00       		.byte	0
 3539 020b 00       		.byte	0
 3540 020c 00       		.byte	0
 3541 020d 00       		.byte	0
 3542 020e 00       		.byte	0
 3543 020f 00       		.byte	0
 3544 0210 00       		.byte	0
 3545 0211 00       		.byte	0
 3546 0212 00       		.byte	0
 3547 0213 00       		.byte	0
 3548 0214 00       		.byte	0
 3549 0215 00       		.byte	0
 3550 0216 00       		.byte	0
 3551 0217 00       		.byte	0
 3552 0218 00       		.byte	0
 3553 0219 00       		.byte	0
 3554 021a 00       		.byte	0
 3555 021b 00       		.byte	0
 3556 021c 00       		.byte	0
 3557 021d 00       		.byte	0
 3558 021e 00       		.byte	0
 3559 021f 00       		.byte	0
 3560 0220 00       		.byte	0
 3561 0221 00       		.byte	0
 3562 0222 00       		.byte	0
 3563 0223 00       		.byte	0
 3564 0224 00       		.byte	0
 3565 0225 00       		.byte	0
 3566 0226 00       		.byte	0
 3567 0227 00       		.byte	0
 3568 0228 00       		.byte	0
 3569 0229 00       		.byte	0
 3570 022a 00       		.byte	0
 3571 022b 00       		.byte	0
 3572 022c 00       		.byte	0
ARM GAS  C:\Users\Admin\AppData\Local\Temp\ccE7ElAa.s 			page 93


 3573 022d 00       		.byte	0
 3574 022e 00       		.byte	0
 3575 022f 00       		.byte	0
 3576 0230 00       		.byte	0
 3577 0231 00       		.byte	0
 3578 0232 00       		.byte	0
 3579 0233 00       		.byte	0
 3580 0234 00       		.byte	0
 3581 0235 00       		.byte	0
 3582 0236 00       		.byte	0
 3583 0237 00       		.byte	0
 3584 0238 00       		.byte	0
 3585 0239 00       		.byte	0
 3586 023a 00       		.byte	0
 3587 023b 00       		.byte	0
 3588 023c 00       		.byte	0
 3589 023d 00       		.byte	0
 3590 023e 00       		.byte	0
 3591 023f 00       		.byte	0
 3592 0240 00       		.byte	0
 3593 0241 00       		.byte	0
 3594 0242 00       		.byte	0
 3595 0243 00       		.byte	0
 3596 0244 00       		.byte	0
 3597 0245 00       		.byte	0
 3598 0246 00       		.byte	0
 3599 0247 00       		.byte	0
 3600 0248 00       		.byte	0
 3601 0249 00       		.byte	0
 3602 024a 00       		.byte	0
 3603 024b 00       		.byte	0
 3604 024c 00       		.byte	0
 3605 024d 00       		.byte	0
 3606 024e 00       		.byte	0
 3607 024f 00       		.byte	0
 3608 0250 00       		.byte	0
 3609 0251 00       		.byte	0
 3610 0252 00       		.byte	0
 3611 0253 00       		.byte	0
 3612 0254 00       		.byte	0
 3613 0255 00       		.byte	0
 3614 0256 00       		.byte	0
 3615 0257 00       		.byte	0
 3616 0258 00       		.byte	0
 3617 0259 00       		.byte	0
 3618 025a 00       		.byte	0
 3619 025b 00       		.byte	0
 3620 025c 00       		.byte	0
 3621 025d 00       		.byte	0
 3622 025e 00       		.byte	0
 3623 025f 00       		.byte	0
 3624 0260 00       		.byte	0
 3625 0261 00       		.byte	0
 3626 0262 00       		.byte	0
 3627 0263 00       		.byte	0
 3628 0264 00       		.byte	0
 3629 0265 00       		.byte	0
ARM GAS  C:\Users\Admin\AppData\Local\Temp\ccE7ElAa.s 			page 94


 3630 0266 00       		.byte	0
 3631 0267 00       		.byte	0
 3632 0268 00       		.byte	0
 3633 0269 00       		.byte	0
 3634 026a 00       		.byte	0
 3635 026b 00       		.byte	0
 3636 026c 00       		.byte	0
 3637 026d 00       		.byte	0
 3638 026e 00       		.byte	0
 3639 026f 00       		.byte	0
 3640 0270 00       		.byte	0
 3641 0271 00       		.byte	0
 3642 0272 00       		.byte	0
 3643 0273 00       		.byte	0
 3644 0274 00       		.byte	0
 3645 0275 00       		.byte	0
 3646 0276 00       		.byte	0
 3647 0277 00       		.byte	0
 3648 0278 00       		.byte	0
 3649 0279 00       		.byte	0
 3650 027a 00       		.byte	0
 3651 027b 00       		.byte	0
 3652 027c 00       		.byte	0
 3653 027d 00       		.byte	0
 3654 027e 00       		.byte	0
 3655 027f 00       		.byte	0
 3656 0280 00       		.byte	0
 3657 0281 00       		.byte	0
 3658 0282 00       		.byte	0
 3659 0283 00       		.byte	0
 3660 0284 00       		.byte	0
 3661 0285 00       		.byte	0
 3662 0286 00       		.byte	0
 3663 0287 00       		.byte	0
 3664 0288 00       		.byte	0
 3665 0289 00       		.byte	0
 3666 028a 00       		.byte	0
 3667 028b 00       		.byte	0
 3668 028c 00       		.byte	0
 3669 028d 00       		.byte	0
 3670 028e 00       		.byte	0
 3671 028f 00       		.byte	0
 3672 0290 00       		.byte	0
 3673 0291 00       		.byte	0
 3674 0292 00       		.byte	0
 3675 0293 00       		.byte	0
 3676 0294 00       		.byte	0
 3677 0295 00       		.byte	0
 3678 0296 00       		.byte	0
 3679 0297 00       		.byte	0
 3680 0298 00       		.byte	0
 3681 0299 00       		.byte	0
 3682 029a 00       		.byte	0
 3683 029b 00       		.byte	0
 3684 029c 00       		.byte	0
 3685 029d 00       		.byte	0
 3686 029e 00       		.byte	0
ARM GAS  C:\Users\Admin\AppData\Local\Temp\ccE7ElAa.s 			page 95


 3687 029f 00       		.byte	0
 3688 02a0 00       		.byte	0
 3689 02a1 00       		.byte	0
 3690 02a2 00       		.byte	0
 3691 02a3 00       		.byte	0
 3692 02a4 00       		.byte	0
 3693 02a5 00       		.byte	0
 3694 02a6 00       		.byte	0
 3695 02a7 00       		.byte	0
 3696 02a8 00       		.byte	0
 3697 02a9 00       		.byte	0
 3698 02aa 00       		.byte	0
 3699 02ab 00       		.byte	0
 3700 02ac 00       		.byte	0
 3701 02ad 00       		.byte	0
 3702 02ae 00       		.byte	0
 3703 02af 00       		.byte	0
 3704 02b0 00       		.byte	0
 3705 02b1 00       		.byte	0
 3706 02b2 00       		.byte	0
 3707 02b3 00       		.byte	0
 3708 02b4 00       		.byte	0
 3709 02b5 00       		.byte	0
 3710 02b6 00       		.byte	0
 3711 02b7 00       		.byte	0
 3712 02b8 00       		.byte	0
 3713 02b9 00       		.byte	0
 3714 02ba 00       		.byte	0
 3715 02bb 00       		.byte	0
 3716 02bc 00       		.byte	0
 3717 02bd 00       		.byte	0
 3718 02be 00       		.byte	0
 3719 02bf 00       		.byte	0
 3720 02c0 00       		.byte	0
 3721 02c1 00       		.byte	0
 3722 02c2 00       		.byte	0
 3723 02c3 00       		.byte	0
 3724 02c4 00       		.byte	0
 3725 02c5 00       		.byte	0
 3726 02c6 00       		.byte	0
 3727 02c7 00       		.byte	0
 3728 02c8 00       		.byte	0
 3729 02c9 00       		.byte	0
 3730 02ca 00       		.byte	0
 3731 02cb 00       		.byte	0
 3732 02cc 00       		.byte	0
 3733 02cd 00       		.byte	0
 3734 02ce 00       		.byte	0
 3735 02cf 00       		.byte	0
 3736 02d0 00       		.byte	0
 3737 02d1 00       		.byte	0
 3738 02d2 00       		.byte	0
 3739 02d3 00       		.byte	0
 3740 02d4 00       		.byte	0
 3741 02d5 00       		.byte	0
 3742 02d6 00       		.byte	0
 3743 02d7 00       		.byte	0
ARM GAS  C:\Users\Admin\AppData\Local\Temp\ccE7ElAa.s 			page 96


 3744 02d8 00       		.byte	0
 3745 02d9 00       		.byte	0
 3746 02da 00       		.byte	0
 3747 02db 00       		.byte	0
 3748 02dc 00       		.byte	0
 3749 02dd 00       		.byte	0
 3750 02de 00       		.byte	0
 3751 02df 00       		.byte	0
 3752 02e0 00       		.byte	0
 3753 02e1 00       		.byte	0
 3754 02e2 00       		.byte	0
 3755 02e3 00       		.byte	0
 3756 02e4 00       		.byte	0
 3757 02e5 00       		.byte	0
 3758 02e6 00       		.byte	0
 3759 02e7 00       		.byte	0
 3760 02e8 00       		.byte	0
 3761 02e9 00       		.byte	0
 3762 02ea 00       		.byte	0
 3763 02eb 00       		.byte	0
 3764 02ec 00       		.byte	0
 3765 02ed 00       		.byte	0
 3766 02ee 00       		.byte	0
 3767 02ef 00       		.byte	0
 3768 02f0 00       		.byte	0
 3769 02f1 00       		.byte	0
 3770 02f2 00       		.byte	0
 3771 02f3 00       		.byte	0
 3772 02f4 00       		.byte	0
 3773 02f5 00       		.byte	0
 3774 02f6 00       		.byte	0
 3775 02f7 00       		.byte	0
 3776 02f8 00       		.byte	0
 3777 02f9 00       		.byte	0
 3778 02fa 00       		.byte	0
 3779 02fb 00       		.byte	0
 3780 02fc 00       		.byte	0
 3781 02fd 00       		.byte	0
 3782 02fe 00       		.byte	0
 3783 02ff 00       		.byte	0
 3784 0300 00       		.byte	0
 3785 0301 00       		.byte	0
 3786 0302 00       		.byte	0
 3787 0303 00       		.byte	0
 3788 0304 00       		.byte	0
 3789 0305 00       		.byte	0
 3790 0306 00       		.byte	0
 3791 0307 00       		.byte	0
 3792 0308 00       		.byte	0
 3793 0309 00       		.byte	0
 3794 030a 00       		.byte	0
 3795 030b 00       		.byte	0
 3796 030c 00       		.byte	0
 3797 030d 00       		.byte	0
 3798 030e 00       		.byte	0
 3799 030f 00       		.byte	0
 3800 0310 00       		.byte	0
ARM GAS  C:\Users\Admin\AppData\Local\Temp\ccE7ElAa.s 			page 97


 3801 0311 00       		.byte	0
 3802 0312 00       		.byte	0
 3803 0313 00       		.byte	0
 3804 0314 00       		.byte	0
 3805 0315 00       		.byte	0
 3806 0316 00       		.byte	0
 3807 0317 00       		.byte	0
 3808 0318 00       		.byte	0
 3809 0319 00       		.byte	0
 3810 031a 00       		.byte	0
 3811 031b 00       		.byte	0
 3812 031c 00       		.byte	0
 3813 031d 00       		.byte	0
 3814 031e 00       		.byte	0
 3815 031f 00       		.byte	0
 3816 0320 00       		.byte	0
 3817 0321 00       		.byte	0
 3818 0322 00       		.byte	0
 3819 0323 00       		.byte	0
 3820 0324 00       		.byte	0
 3821 0325 00       		.byte	0
 3822 0326 00       		.byte	0
 3823 0327 00       		.byte	0
 3824 0328 00       		.byte	0
 3825 0329 00       		.byte	0
 3826 032a 00       		.byte	0
 3827 032b 00       		.byte	0
 3828 032c 00       		.byte	0
 3829 032d 00       		.byte	0
 3830 032e 00       		.byte	0
 3831 032f 00       		.byte	0
 3832 0330 00       		.byte	0
 3833 0331 00       		.byte	0
 3834 0332 00       		.byte	0
 3835 0333 00       		.byte	0
 3836 0334 00       		.byte	0
 3837 0335 00       		.byte	0
 3838 0336 00       		.byte	0
 3839 0337 00       		.byte	0
 3840 0338 00       		.byte	0
 3841 0339 00       		.byte	0
 3842 033a 00       		.byte	0
 3843 033b 00       		.byte	0
 3844 033c 00       		.byte	0
 3845 033d 00       		.byte	0
 3846 033e 00       		.byte	0
 3847 033f 00       		.byte	0
 3848 0340 00       		.byte	0
 3849 0341 00       		.byte	0
 3850 0342 00       		.byte	0
 3851 0343 00       		.byte	0
 3852 0344 00       		.byte	0
 3853 0345 00       		.byte	0
 3854 0346 00       		.byte	0
 3855 0347 00       		.byte	0
 3856 0348 00       		.byte	0
 3857 0349 00       		.byte	0
ARM GAS  C:\Users\Admin\AppData\Local\Temp\ccE7ElAa.s 			page 98


 3858 034a 00       		.byte	0
 3859 034b 00       		.byte	0
 3860 034c 00       		.byte	0
 3861 034d 00       		.byte	0
 3862 034e 00       		.byte	0
 3863 034f 00       		.byte	0
 3864 0350 00       		.byte	0
 3865 0351 00       		.byte	0
 3866 0352 00       		.byte	0
 3867 0353 00       		.byte	0
 3868 0354 00       		.byte	0
 3869 0355 00       		.byte	0
 3870 0356 00       		.byte	0
 3871 0357 00       		.byte	0
 3872 0358 00       		.byte	0
 3873 0359 00       		.byte	0
 3874 035a 00       		.byte	0
 3875 035b 00       		.byte	0
 3876 035c 00       		.byte	0
 3877 035d 00       		.byte	0
 3878 035e 00       		.byte	0
 3879 035f 00       		.byte	0
 3880 0360 00       		.byte	0
 3881 0361 00       		.byte	0
 3882 0362 00       		.byte	0
 3883 0363 00       		.byte	0
 3884 0364 00       		.byte	0
 3885 0365 00       		.byte	0
 3886 0366 00       		.byte	0
 3887 0367 00       		.byte	0
 3888 0368 00       		.byte	0
 3889 0369 00       		.byte	0
 3890 036a 00       		.byte	0
 3891 036b 00       		.byte	0
 3892 036c 00       		.byte	0
 3893 036d 00       		.byte	0
 3894 036e 00       		.byte	0
 3895 036f 00       		.byte	0
 3896 0370 00       		.byte	0
 3897 0371 00       		.byte	0
 3898 0372 00       		.byte	0
 3899 0373 00       		.byte	0
 3900 0374 00       		.byte	0
 3901 0375 00       		.byte	0
 3902 0376 00       		.byte	0
 3903 0377 00       		.byte	0
 3904 0378 00       		.byte	0
 3905 0379 00       		.byte	0
 3906 037a 00       		.byte	0
 3907 037b 00       		.byte	0
 3908 037c 00       		.byte	0
 3909 037d 00       		.byte	0
 3910 037e 00       		.byte	0
 3911 037f 00       		.byte	0
 3912 0380 00       		.byte	0
 3913 0381 00       		.byte	0
 3914 0382 00       		.byte	0
ARM GAS  C:\Users\Admin\AppData\Local\Temp\ccE7ElAa.s 			page 99


 3915 0383 00       		.byte	0
 3916 0384 00       		.byte	0
 3917 0385 00       		.byte	0
 3918 0386 00       		.byte	0
 3919 0387 00       		.byte	0
 3920 0388 00       		.byte	0
 3921 0389 00       		.byte	0
 3922 038a 00       		.byte	0
 3923 038b 00       		.byte	0
 3924 038c 00       		.byte	0
 3925 038d 00       		.byte	0
 3926 038e 00       		.byte	0
 3927 038f 00       		.byte	0
 3928 0390 00       		.byte	0
 3929 0391 00       		.byte	0
 3930 0392 00       		.byte	0
 3931 0393 00       		.byte	0
 3932 0394 00       		.byte	0
 3933 0395 00       		.byte	0
 3934 0396 00       		.byte	0
 3935 0397 00       		.byte	0
 3936 0398 00       		.byte	0
 3937 0399 00       		.byte	0
 3938 039a 00       		.byte	0
 3939 039b 00       		.byte	0
 3940 039c 00       		.byte	0
 3941 039d 00       		.byte	0
 3942 039e 00       		.byte	0
 3943 039f 00       		.byte	0
 3944 03a0 00       		.byte	0
 3945 03a1 00       		.byte	0
 3946 03a2 00       		.byte	0
 3947 03a3 00       		.byte	0
 3948 03a4 00       		.byte	0
 3949 03a5 00       		.byte	0
 3950 03a6 00       		.byte	0
 3951 03a7 00       		.byte	0
 3952 03a8 00       		.byte	0
 3953 03a9 00       		.byte	0
 3954 03aa 00       		.byte	0
 3955 03ab 00       		.byte	0
 3956 03ac 00       		.byte	0
 3957 03ad 00       		.byte	0
 3958 03ae 00       		.byte	0
 3959 03af 00       		.byte	0
 3960 03b0 00       		.byte	0
 3961 03b1 00       		.byte	0
 3962 03b2 00       		.byte	0
 3963 03b3 00       		.byte	0
 3964 03b4 00       		.byte	0
 3965 03b5 00       		.byte	0
 3966 03b6 00       		.byte	0
 3967 03b7 00       		.byte	0
 3968 03b8 00       		.byte	0
 3969 03b9 00       		.byte	0
 3970 03ba 00       		.byte	0
 3971 03bb 00       		.byte	0
ARM GAS  C:\Users\Admin\AppData\Local\Temp\ccE7ElAa.s 			page 100


 3972 03bc 00       		.byte	0
 3973 03bd 00       		.byte	0
 3974 03be 00       		.byte	0
 3975 03bf 00       		.byte	0
 3976 03c0 00       		.byte	0
 3977 03c1 00       		.byte	0
 3978 03c2 00       		.byte	0
 3979 03c3 00       		.byte	0
 3980 03c4 00       		.byte	0
 3981 03c5 00       		.byte	0
 3982 03c6 00       		.byte	0
 3983 03c7 00       		.byte	0
 3984 03c8 00       		.byte	0
 3985 03c9 00       		.byte	0
 3986 03ca 00       		.byte	0
 3987 03cb 00       		.byte	0
 3988 03cc 00       		.byte	0
 3989 03cd 00       		.byte	0
 3990 03ce 00       		.byte	0
 3991 03cf 00       		.byte	0
 3992 03d0 00       		.byte	0
 3993 03d1 00       		.byte	0
 3994 03d2 00       		.byte	0
 3995 03d3 00       		.byte	0
 3996 03d4 00       		.byte	0
 3997 03d5 00       		.byte	0
 3998 03d6 00       		.byte	0
 3999 03d7 00       		.byte	0
 4000 03d8 00       		.byte	0
 4001 03d9 00       		.byte	0
 4002 03da 00       		.byte	0
 4003 03db 00       		.byte	0
 4004 03dc 00       		.byte	0
 4005 03dd 00       		.byte	0
 4006 03de 00       		.byte	0
 4007 03df 00       		.byte	0
 4008 03e0 00       		.byte	0
 4009 03e1 00       		.byte	0
 4010 03e2 00       		.byte	0
 4011 03e3 00       		.byte	0
 4012 03e4 00       		.byte	0
 4013 03e5 00       		.byte	0
 4014 03e6 00       		.byte	0
 4015 03e7 00       		.byte	0
 4016 03e8 00       		.byte	0
 4017 03e9 00       		.byte	0
 4018 03ea 00       		.byte	0
 4019 03eb 00       		.byte	0
 4020 03ec 00       		.byte	0
 4021 03ed 00       		.byte	0
 4022 03ee 00       		.byte	0
 4023 03ef 00       		.byte	0
 4024 03f0 00       		.byte	0
 4025 03f1 00       		.byte	0
 4026 03f2 00       		.byte	0
 4027 03f3 00       		.byte	0
 4028 03f4 00       		.byte	0
ARM GAS  C:\Users\Admin\AppData\Local\Temp\ccE7ElAa.s 			page 101


 4029 03f5 00       		.byte	0
 4030 03f6 00       		.byte	0
 4031 03f7 00       		.byte	0
 4032 03f8 00       		.byte	0
 4033 03f9 00       		.byte	0
 4034 03fa 00       		.byte	0
 4035 03fb 00       		.byte	0
 4036 03fc 00       		.byte	0
 4037 03fd 00       		.byte	0
 4038 03fe 00       		.byte	0
 4039 03ff 00       		.byte	0
 4040              		.text
 4041              	.Letext0:
 4042              		.file 3 "d:\\10 2021.10\\arm-none-eabi\\include\\machine\\_default_types.h"
 4043              		.file 4 "d:\\10 2021.10\\arm-none-eabi\\include\\sys\\_stdint.h"
 4044              		.file 5 "Drivers/CMSIS/Device/ST/STM32F1xx/Include/stm32f103xe.h"
 4045              		.file 6 "Drivers/STM32F1xx_HAL_Driver/Inc/stm32f1xx_hal_def.h"
 4046              		.file 7 "Drivers/STM32F1xx_HAL_Driver/Inc/stm32f1xx_hal_rcc.h"
 4047              		.file 8 "Drivers/STM32F1xx_HAL_Driver/Inc/stm32f1xx_hal_rcc_ex.h"
 4048              		.file 9 "Drivers/STM32F1xx_HAL_Driver/Inc/stm32f1xx_hal_gpio.h"
 4049              		.file 10 "Drivers/STM32F1xx_HAL_Driver/Inc/stm32f1xx_hal_dma.h"
 4050              		.file 11 "Drivers/STM32F1xx_HAL_Driver/Inc/stm32f1xx_hal_rtc.h"
 4051              		.file 12 "Drivers/STM32F1xx_HAL_Driver/Inc/stm32f1xx_hal_tim.h"
 4052              		.file 13 "Drivers/STM32F1xx_HAL_Driver/Inc/stm32f1xx_hal_uart.h"
 4053              		.file 14 "Middlewares/Third_Party/FatFs/src/integer.h"
 4054              		.file 15 "Middlewares/Third_Party/FatFs/src/ff.h"
 4055              		.file 16 "Core/Inc/rtc.h"
 4056              		.file 17 "Core/Inc/tim.h"
 4057              		.file 18 "Core/Inc/usart.h"
 4058              		.file 19 "Core/Inc/rc522.h"
 4059              		.file 20 "Core/Inc/gnss.h"
 4060              		.file 21 "Core/Inc/fonts.h"
 4061              		.file 22 "Core/Inc/bitmap.h"
 4062              		.file 23 "Drivers/STM32F1xx_HAL_Driver/Inc/stm32f1xx_hal.h"
 4063              		.file 24 "Core/Inc/gpio.h"
 4064              		.file 25 "Core/Inc/adc.h"
 4065              		.file 26 "Core/Inc/spi.h"
 4066              		.file 27 "Core/Inc/i2c.h"
 4067              		.file 28 "FATFS/App/fatfs.h"
 4068              		.file 29 "Core/Inc/debug.h"
 4069              		.file 30 "Core/Inc/sim4g_lte.h"
 4070              		.file 31 "Core/Inc/mqtt.h"
 4071              		.file 32 "Core/Inc/ssd1306.h"
 4072              		.file 33 "d:\\10 2021.10\\arm-none-eabi\\include\\string.h"
 4073              		.file 34 "d:\\10 2021.10\\arm-none-eabi\\include\\stdio.h"
 4074              		.file 35 "Core/Inc/sensors.h"
 4075              		.file 36 "<built-in>"
ARM GAS  C:\Users\Admin\AppData\Local\Temp\ccE7ElAa.s 			page 102


DEFINED SYMBOLS
                            *ABS*:00000000 main.c
C:\Users\Admin\AppData\Local\Temp\ccE7ElAa.s:18     .text.rs232_logdata:00000000 $t
C:\Users\Admin\AppData\Local\Temp\ccE7ElAa.s:24     .text.rs232_logdata:00000000 rs232_logdata
C:\Users\Admin\AppData\Local\Temp\ccE7ElAa.s:57     .text.rs232_logdata:00000018 $d
C:\Users\Admin\AppData\Local\Temp\ccE7ElAa.s:62     .text.buzzer:00000000 $t
C:\Users\Admin\AppData\Local\Temp\ccE7ElAa.s:68     .text.buzzer:00000000 buzzer
C:\Users\Admin\AppData\Local\Temp\ccE7ElAa.s:110    .text.buzzer:00000024 $d
C:\Users\Admin\AppData\Local\Temp\ccE7ElAa.s:115    .text.set_timer:00000000 $t
C:\Users\Admin\AppData\Local\Temp\ccE7ElAa.s:121    .text.set_timer:00000000 set_timer
C:\Users\Admin\AppData\Local\Temp\ccE7ElAa.s:142    .text.set_timer:00000014 $d
C:\Users\Admin\AppData\Local\Temp\ccE7ElAa.s:147    .rodata.HAL_RTC_AlarmAEventCallback.str1.4:00000000 $d
C:\Users\Admin\AppData\Local\Temp\ccE7ElAa.s:151    .text.HAL_RTC_AlarmAEventCallback:00000000 $t
C:\Users\Admin\AppData\Local\Temp\ccE7ElAa.s:157    .text.HAL_RTC_AlarmAEventCallback:00000000 HAL_RTC_AlarmAEventCallback
C:\Users\Admin\AppData\Local\Temp\ccE7ElAa.s:186    .text.HAL_RTC_AlarmAEventCallback:00000014 $d
C:\Users\Admin\AppData\Local\Temp\ccE7ElAa.s:192    .rodata.HAL_UART_RxCpltCallback.str1.4:00000000 $d
C:\Users\Admin\AppData\Local\Temp\ccE7ElAa.s:199    .text.HAL_UART_RxCpltCallback:00000000 $t
C:\Users\Admin\AppData\Local\Temp\ccE7ElAa.s:205    .text.HAL_UART_RxCpltCallback:00000000 HAL_UART_RxCpltCallback
C:\Users\Admin\AppData\Local\Temp\ccE7ElAa.s:301    .text.HAL_UART_RxCpltCallback:00000060 $d
C:\Users\Admin\AppData\Local\Temp\ccE7ElAa.s:318    .text.HAL_GPIO_EXTI_Callback:00000000 $t
C:\Users\Admin\AppData\Local\Temp\ccE7ElAa.s:324    .text.HAL_GPIO_EXTI_Callback:00000000 HAL_GPIO_EXTI_Callback
C:\Users\Admin\AppData\Local\Temp\ccE7ElAa.s:407    .text.HAL_GPIO_EXTI_Callback:00000050 $d
C:\Users\Admin\AppData\Local\Temp\ccE7ElAa.s:420    .text.HAL_TIM_PeriodElapsedCallback:00000000 $t
C:\Users\Admin\AppData\Local\Temp\ccE7ElAa.s:426    .text.HAL_TIM_PeriodElapsedCallback:00000000 HAL_TIM_PeriodElapsedCallback
C:\Users\Admin\AppData\Local\Temp\ccE7ElAa.s:610    .text.HAL_TIM_PeriodElapsedCallback:000000c4 $d
C:\Users\Admin\AppData\Local\Temp\ccE7ElAa.s:621    .text.Error_Handler:00000000 $t
C:\Users\Admin\AppData\Local\Temp\ccE7ElAa.s:627    .text.Error_Handler:00000000 Error_Handler
C:\Users\Admin\AppData\Local\Temp\ccE7ElAa.s:659    .text.set_alarm:00000000 $t
C:\Users\Admin\AppData\Local\Temp\ccE7ElAa.s:665    .text.set_alarm:00000000 set_alarm
C:\Users\Admin\AppData\Local\Temp\ccE7ElAa.s:730    .text.set_alarm:00000034 $d
C:\Users\Admin\AppData\Local\Temp\ccE7ElAa.s:736    .text.SystemClock_Config:00000000 $t
C:\Users\Admin\AppData\Local\Temp\ccE7ElAa.s:742    .text.SystemClock_Config:00000000 SystemClock_Config
C:\Users\Admin\AppData\Local\Temp\ccE7ElAa.s:882    .rodata.main.str1.4:00000000 $d
C:\Users\Admin\AppData\Local\Temp\ccE7ElAa.s:1041   .text.main:00000000 $t
C:\Users\Admin\AppData\Local\Temp\ccE7ElAa.s:1047   .text.main:00000000 main
C:\Users\Admin\AppData\Local\Temp\ccE7ElAa.s:1548   .text.main:00000300 $d
C:\Users\Admin\AppData\Local\Temp\ccE7ElAa.s:2766   .bss.fs:00000000 fs
C:\Users\Admin\AppData\Local\Temp\ccE7ElAa.s:1608   .text.main:000003e4 $t
C:\Users\Admin\AppData\Local\Temp\ccE7ElAa.s:1761   .text.main:000004d4 $d
C:\Users\Admin\AppData\Local\Temp\ccE7ElAa.s:1767   .text.main:000004ec $t
C:\Users\Admin\AppData\Local\Temp\ccE7ElAa.s:2015   .text.main:0000067c $d
C:\Users\Admin\AppData\Local\Temp\ccE7ElAa.s:2058   .text.main:0000071c $t
C:\Users\Admin\AppData\Local\Temp\ccE7ElAa.s:2452   .text.main:00000974 $d
C:\Users\Admin\AppData\Local\Temp\ccE7ElAa.s:2736   .bss.fil:00000000 fil
C:\Users\Admin\AppData\Local\Temp\ccE7ElAa.s:2885   .bss.rs232_flag:00000000 rs232_flag
C:\Users\Admin\AppData\Local\Temp\ccE7ElAa.s:2892   .bss.rs232_index:00000000 rs232_index
C:\Users\Admin\AppData\Local\Temp\ccE7ElAa.s:2873   .bss.rs232_buff:00000000 rs232_buff
C:\Users\Admin\AppData\Local\Temp\ccE7ElAa.s:2879   .bss.rs232_data:00000000 rs232_data
C:\Users\Admin\AppData\Local\Temp\ccE7ElAa.s:2742   .bss.flash_Readbuff:00000000 flash_Readbuff
C:\Users\Admin\AppData\Local\Temp\ccE7ElAa.s:2910   .bss.sensors:00000000 sensors
C:\Users\Admin\AppData\Local\Temp\ccE7ElAa.s:2717   .bss.dht_hum:00000000 dht_hum
C:\Users\Admin\AppData\Local\Temp\ccE7ElAa.s:2723   .bss.dht_temp:00000000 dht_temp
C:\Users\Admin\AppData\Local\Temp\ccE7ElAa.s:2730   .bss.ds18_temp:00000000 ds18_temp
C:\Users\Admin\AppData\Local\Temp\ccE7ElAa.s:2634   .bss.Task_Mode:00000000 Task_Mode
C:\Users\Admin\AppData\Local\Temp\ccE7ElAa.s:2641   .bss.Taskperform:00000000 Taskperform
C:\Users\Admin\AppData\Local\Temp\ccE7ElAa.s:2995   .data.Type_Task:00000000 Type_Task
C:\Users\Admin\AppData\Local\Temp\ccE7ElAa.s:2798   .bss.infoUser2:00000000 infoUser2
ARM GAS  C:\Users\Admin\AppData\Local\Temp\ccE7ElAa.s 			page 103


C:\Users\Admin\AppData\Local\Temp\ccE7ElAa.s:2791   .bss.infoUser1:00000000 infoUser1
C:\Users\Admin\AppData\Local\Temp\ccE7ElAa.s:2784   .bss.infoUser:00000000 infoUser
C:\Users\Admin\AppData\Local\Temp\ccE7ElAa.s:3001   .data.id_ref:00000000 id_ref
C:\Users\Admin\AppData\Local\Temp\ccE7ElAa.s:2506   .rodata.str1.4:00000000 $d
C:\Users\Admin\AppData\Local\Temp\ccE7ElAa.s:2576   .bss.Card_Endbuff:00000000 Card_Endbuff
C:\Users\Admin\AppData\Local\Temp\ccE7ElAa.s:2583   .bss.Card_Startbuff:00000000 Card_Startbuff
C:\Users\Admin\AppData\Local\Temp\ccE7ElAa.s:2597   .bss.Json_Data:00000000 Json_Data
C:\Users\Admin\AppData\Local\Temp\ccE7ElAa.s:2923   .bss.stateDevice:00000000 stateDevice
C:\Users\Admin\AppData\Local\Temp\ccE7ElAa.s:2628   .bss.SD_read:00000000 SD_read
C:\Users\Admin\AppData\Local\Temp\ccE7ElAa.s:2754   .bss.free_space:00000000 free_space
C:\Users\Admin\AppData\Local\Temp\ccE7ElAa.s:2956   .bss.total:00000000 total
C:\Users\Admin\AppData\Local\Temp\ccE7ElAa.s:2748   .bss.fre_clust:00000000 fre_clust
C:\Users\Admin\AppData\Local\Temp\ccE7ElAa.s:2866   .bss.pfs:00000000 pfs
C:\Users\Admin\AppData\Local\Temp\ccE7ElAa.s:2667   .bss.bw:00000000 bw
C:\Users\Admin\AppData\Local\Temp\ccE7ElAa.s:2661   .bss.br:00000000 br
C:\Users\Admin\AppData\Local\Temp\ccE7ElAa.s:2621   .bss.SD_file_name:00000000 SD_file_name
C:\Users\Admin\AppData\Local\Temp\ccE7ElAa.s:2609   .bss.SD_buffer_r:00000000 SD_buffer_r
C:\Users\Admin\AppData\Local\Temp\ccE7ElAa.s:2615   .bss.SD_buffer_w:00000000 SD_buffer_w
C:\Users\Admin\AppData\Local\Temp\ccE7ElAa.s:2760   .bss.fresult:00000000 fresult
C:\Users\Admin\AppData\Local\Temp\ccE7ElAa.s:2772   .bss.gnss_str:00000000 gnss_str
C:\Users\Admin\AppData\Local\Temp\ccE7ElAa.s:2803   .bss.l70Data1:00000000 l70Data1
C:\Users\Admin\AppData\Local\Temp\ccE7ElAa.s:2916   .bss.simMessage:00000000 simMessage
C:\Users\Admin\AppData\Local\Temp\ccE7ElAa.s:2836   .bss.longData:00000000 longData
C:\Users\Admin\AppData\Local\Temp\ccE7ElAa.s:2830   .bss.latData:00000000 latData
C:\Users\Admin\AppData\Local\Temp\ccE7ElAa.s:2590   .bss.GPSResponse:00000000 GPSResponse
C:\Users\Admin\AppData\Local\Temp\ccE7ElAa.s:2977   .bss.utctime_buff:00000000 utctime_buff
C:\Users\Admin\AppData\Local\Temp\ccE7ElAa.s:2860   .bss.numCheck_time:00000000 numCheck_time
C:\Users\Admin\AppData\Local\Temp\ccE7ElAa.s:2970   .bss.totalMinute_OperateTime_buff:00000000 totalMinute_OperateTime_buff
C:\Users\Admin\AppData\Local\Temp\ccE7ElAa.s:2950   .bss.time_minute:00000000 time_minute
C:\Users\Admin\AppData\Local\Temp\ccE7ElAa.s:2943   .bss.time_hour:00000000 time_hour
C:\Users\Admin\AppData\Local\Temp\ccE7ElAa.s:2963   .bss.totalMinute_OperateTime:00000000 totalMinute_OperateTime
C:\Users\Admin\AppData\Local\Temp\ccE7ElAa.s:2673   .bss.check:00000000 check
C:\Users\Admin\AppData\Local\Temp\ccE7ElAa.s:2706   .bss.date_buff:00000000 date_buff
C:\Users\Admin\AppData\Local\Temp\ccE7ElAa.s:2936   .bss.time_buff:00000000 time_buff
C:\Users\Admin\AppData\Local\Temp\ccE7ElAa.s:2988   .bss.year:00000000 year
C:\Users\Admin\AppData\Local\Temp\ccE7ElAa.s:2846   .bss.month:00000000 month
C:\Users\Admin\AppData\Local\Temp\ccE7ElAa.s:2711   .bss.day:00000000 day
C:\Users\Admin\AppData\Local\Temp\ccE7ElAa.s:2699   .bss.date:00000000 date
C:\Users\Admin\AppData\Local\Temp\ccE7ElAa.s:2777   .bss.hour:00000000 hour
C:\Users\Admin\AppData\Local\Temp\ccE7ElAa.s:2841   .bss.minute:00000000 minute
C:\Users\Admin\AppData\Local\Temp\ccE7ElAa.s:2903   .bss.sencond:00000000 sencond
C:\Users\Admin\AppData\Local\Temp\ccE7ElAa.s:2898   .bss.sAlarm:00000000 sAlarm
C:\Users\Admin\AppData\Local\Temp\ccE7ElAa.s:2810   .bss.last_sDate:00000000 last_sDate
C:\Users\Admin\AppData\Local\Temp\ccE7ElAa.s:2817   .bss.last_sTime:00000000 last_sTime
C:\Users\Admin\AppData\Local\Temp\ccE7ElAa.s:2680   .bss.current_sDate:00000000 current_sDate
C:\Users\Admin\AppData\Local\Temp\ccE7ElAa.s:2687   .bss.current_sTime:00000000 current_sTime
C:\Users\Admin\AppData\Local\Temp\ccE7ElAa.s:2655   .bss.Vehical_veloc:00000000 Vehical_veloc
C:\Users\Admin\AppData\Local\Temp\ccE7ElAa.s:2824   .bss.last_time:00000000 last_time
C:\Users\Admin\AppData\Local\Temp\ccE7ElAa.s:2694   .bss.current_time:00000000 current_time
C:\Users\Admin\AppData\Local\Temp\ccE7ElAa.s:2648   .bss.Vehical_State:00000000 Vehical_State
C:\Users\Admin\AppData\Local\Temp\ccE7ElAa.s:2853   .bss.npn_count:00000000 npn_count
C:\Users\Admin\AppData\Local\Temp\ccE7ElAa.s:3008   .data.npn_flag_check:00000000 npn_flag_check
C:\Users\Admin\AppData\Local\Temp\ccE7ElAa.s:2603   .bss.Logout:00000000 Logout
C:\Users\Admin\AppData\Local\Temp\ccE7ElAa.s:2983   .bss.waiting4LogOut:00000000 waiting4LogOut
C:\Users\Admin\AppData\Local\Temp\ccE7ElAa.s:2929   .bss.szBuff:00000000 szBuff
C:\Users\Admin\AppData\Local\Temp\ccE7ElAa.s:2569   .bss.CardID:00000000 CardID
C:\Users\Admin\AppData\Local\Temp\ccE7ElAa.s:3015   .rodata.bitmap:00000000 bitmap
ARM GAS  C:\Users\Admin\AppData\Local\Temp\ccE7ElAa.s 			page 104


C:\Users\Admin\AppData\Local\Temp\ccE7ElAa.s:2565   .bss.CardID:00000000 $d
C:\Users\Admin\AppData\Local\Temp\ccE7ElAa.s:2572   .bss.Card_Endbuff:00000000 $d
C:\Users\Admin\AppData\Local\Temp\ccE7ElAa.s:2579   .bss.Card_Startbuff:00000000 $d
C:\Users\Admin\AppData\Local\Temp\ccE7ElAa.s:2586   .bss.GPSResponse:00000000 $d
C:\Users\Admin\AppData\Local\Temp\ccE7ElAa.s:2593   .bss.Json_Data:00000000 $d
C:\Users\Admin\AppData\Local\Temp\ccE7ElAa.s:2604   .bss.Logout:00000000 $d
C:\Users\Admin\AppData\Local\Temp\ccE7ElAa.s:2606   .bss.SD_buffer_r:00000000 $d
C:\Users\Admin\AppData\Local\Temp\ccE7ElAa.s:2612   .bss.SD_buffer_w:00000000 $d
C:\Users\Admin\AppData\Local\Temp\ccE7ElAa.s:2618   .bss.SD_file_name:00000000 $d
C:\Users\Admin\AppData\Local\Temp\ccE7ElAa.s:2624   .bss.SD_read:00000000 $d
C:\Users\Admin\AppData\Local\Temp\ccE7ElAa.s:2631   .bss.Task_Mode:00000000 $d
C:\Users\Admin\AppData\Local\Temp\ccE7ElAa.s:2637   .bss.Taskperform:00000000 $d
C:\Users\Admin\AppData\Local\Temp\ccE7ElAa.s:2644   .bss.Vehical_State:00000000 $d
C:\Users\Admin\AppData\Local\Temp\ccE7ElAa.s:2651   .bss.Vehical_veloc:00000000 $d
C:\Users\Admin\AppData\Local\Temp\ccE7ElAa.s:2658   .bss.br:00000000 $d
C:\Users\Admin\AppData\Local\Temp\ccE7ElAa.s:2664   .bss.bw:00000000 $d
C:\Users\Admin\AppData\Local\Temp\ccE7ElAa.s:2670   .bss.check:00000000 $d
C:\Users\Admin\AppData\Local\Temp\ccE7ElAa.s:2676   .bss.current_sDate:00000000 $d
C:\Users\Admin\AppData\Local\Temp\ccE7ElAa.s:2683   .bss.current_sTime:00000000 $d
C:\Users\Admin\AppData\Local\Temp\ccE7ElAa.s:2690   .bss.current_time:00000000 $d
C:\Users\Admin\AppData\Local\Temp\ccE7ElAa.s:2700   .bss.date:00000000 $d
C:\Users\Admin\AppData\Local\Temp\ccE7ElAa.s:2702   .bss.date_buff:00000000 $d
C:\Users\Admin\AppData\Local\Temp\ccE7ElAa.s:2712   .bss.day:00000000 $d
C:\Users\Admin\AppData\Local\Temp\ccE7ElAa.s:2714   .bss.dht_hum:00000000 $d
C:\Users\Admin\AppData\Local\Temp\ccE7ElAa.s:2720   .bss.dht_temp:00000000 $d
C:\Users\Admin\AppData\Local\Temp\ccE7ElAa.s:2726   .bss.ds18_temp:00000000 $d
C:\Users\Admin\AppData\Local\Temp\ccE7ElAa.s:2733   .bss.fil:00000000 $d
C:\Users\Admin\AppData\Local\Temp\ccE7ElAa.s:2739   .bss.flash_Readbuff:00000000 $d
C:\Users\Admin\AppData\Local\Temp\ccE7ElAa.s:2745   .bss.fre_clust:00000000 $d
C:\Users\Admin\AppData\Local\Temp\ccE7ElAa.s:2751   .bss.free_space:00000000 $d
C:\Users\Admin\AppData\Local\Temp\ccE7ElAa.s:2761   .bss.fresult:00000000 $d
C:\Users\Admin\AppData\Local\Temp\ccE7ElAa.s:2763   .bss.fs:00000000 $d
C:\Users\Admin\AppData\Local\Temp\ccE7ElAa.s:2769   .bss.gnss_str:00000000 $d
C:\Users\Admin\AppData\Local\Temp\ccE7ElAa.s:2778   .bss.hour:00000000 $d
C:\Users\Admin\AppData\Local\Temp\ccE7ElAa.s:2780   .bss.infoUser:00000000 $d
C:\Users\Admin\AppData\Local\Temp\ccE7ElAa.s:2787   .bss.infoUser1:00000000 $d
C:\Users\Admin\AppData\Local\Temp\ccE7ElAa.s:2794   .bss.infoUser2:00000000 $d
C:\Users\Admin\AppData\Local\Temp\ccE7ElAa.s:2804   .bss.l70Data1:00000000 $d
C:\Users\Admin\AppData\Local\Temp\ccE7ElAa.s:2806   .bss.last_sDate:00000000 $d
C:\Users\Admin\AppData\Local\Temp\ccE7ElAa.s:2813   .bss.last_sTime:00000000 $d
C:\Users\Admin\AppData\Local\Temp\ccE7ElAa.s:2820   .bss.last_time:00000000 $d
C:\Users\Admin\AppData\Local\Temp\ccE7ElAa.s:2827   .bss.latData:00000000 $d
C:\Users\Admin\AppData\Local\Temp\ccE7ElAa.s:2833   .bss.longData:00000000 $d
C:\Users\Admin\AppData\Local\Temp\ccE7ElAa.s:2842   .bss.minute:00000000 $d
C:\Users\Admin\AppData\Local\Temp\ccE7ElAa.s:2847   .bss.month:00000000 $d
C:\Users\Admin\AppData\Local\Temp\ccE7ElAa.s:2849   .bss.npn_count:00000000 $d
C:\Users\Admin\AppData\Local\Temp\ccE7ElAa.s:2856   .bss.numCheck_time:00000000 $d
C:\Users\Admin\AppData\Local\Temp\ccE7ElAa.s:2863   .bss.pfs:00000000 $d
C:\Users\Admin\AppData\Local\Temp\ccE7ElAa.s:2869   .bss.rs232_buff:00000000 $d
C:\Users\Admin\AppData\Local\Temp\ccE7ElAa.s:2880   .bss.rs232_data:00000000 $d
C:\Users\Admin\AppData\Local\Temp\ccE7ElAa.s:2886   .bss.rs232_flag:00000000 $d
C:\Users\Admin\AppData\Local\Temp\ccE7ElAa.s:2888   .bss.rs232_index:00000000 $d
C:\Users\Admin\AppData\Local\Temp\ccE7ElAa.s:2895   .bss.sAlarm:00000000 $d
C:\Users\Admin\AppData\Local\Temp\ccE7ElAa.s:2904   .bss.sencond:00000000 $d
C:\Users\Admin\AppData\Local\Temp\ccE7ElAa.s:2906   .bss.sensors:00000000 $d
C:\Users\Admin\AppData\Local\Temp\ccE7ElAa.s:2913   .bss.simMessage:00000000 $d
C:\Users\Admin\AppData\Local\Temp\ccE7ElAa.s:2919   .bss.stateDevice:00000000 $d
ARM GAS  C:\Users\Admin\AppData\Local\Temp\ccE7ElAa.s 			page 105


C:\Users\Admin\AppData\Local\Temp\ccE7ElAa.s:2926   .bss.szBuff:00000000 $d
C:\Users\Admin\AppData\Local\Temp\ccE7ElAa.s:2932   .bss.time_buff:00000000 $d
C:\Users\Admin\AppData\Local\Temp\ccE7ElAa.s:2939   .bss.time_hour:00000000 $d
C:\Users\Admin\AppData\Local\Temp\ccE7ElAa.s:2946   .bss.time_minute:00000000 $d
C:\Users\Admin\AppData\Local\Temp\ccE7ElAa.s:2953   .bss.total:00000000 $d
C:\Users\Admin\AppData\Local\Temp\ccE7ElAa.s:2959   .bss.totalMinute_OperateTime:00000000 $d
C:\Users\Admin\AppData\Local\Temp\ccE7ElAa.s:2966   .bss.totalMinute_OperateTime_buff:00000000 $d
C:\Users\Admin\AppData\Local\Temp\ccE7ElAa.s:2973   .bss.utctime_buff:00000000 $d
C:\Users\Admin\AppData\Local\Temp\ccE7ElAa.s:2984   .bss.waiting4LogOut:00000000 $d
C:\Users\Admin\AppData\Local\Temp\ccE7ElAa.s:2989   .bss.year:00000000 $d
C:\Users\Admin\AppData\Local\Temp\ccE7ElAa.s:2991   .data.Type_Task:00000000 $d
C:\Users\Admin\AppData\Local\Temp\ccE7ElAa.s:2998   .data.id_ref:00000000 $d
C:\Users\Admin\AppData\Local\Temp\ccE7ElAa.s:3004   .data.npn_flag_check:00000000 $d
C:\Users\Admin\AppData\Local\Temp\ccE7ElAa.s:3011   .rodata.bitmap:00000000 $d

UNDEFINED SYMBOLS
strlen
HAL_UART_Transmit
huart2
HAL_GPIO_WritePin
HAL_Delay
sim7672_sendSMS
sim7672_callback
l70_callback
strstr
HAL_UART_Receive_IT
huart1
huart4
__aeabi_ui2f
__aeabi_fsub
__aeabi_fdiv
HAL_TIM_Base_Stop
HAL_GetTick
HAL_TIM_Base_Start_IT
htim2
rc522_check
htim3
HAL_RTC_SetAlarm_IT
hrtc
memset
HAL_RCC_OscConfig
HAL_RCC_ClockConfig
HAL_RCCEx_PeriphCLKConfig
__aeabi_f2iz
HAL_Init
MX_GPIO_Init
MX_ADC1_Init
MX_SPI1_Init
MX_ADC2_Init
MX_TIM1_Init
MX_UART5_Init
MX_I2C1_Init
MX_SPI2_Init
MX_SPI3_Init
MX_UART4_Init
MX_USART1_UART_Init
MX_USART2_UART_Init
ARM GAS  C:\Users\Admin\AppData\Local\Temp\ccE7ElAa.s 			page 106


MX_TIM2_Init
MX_TIM3_Init
MX_RTC_Init
MX_FATFS_Init
log_data
rc522_init
l70_init
sim7672_init
sim7672_check_signalStrength
mqtt_connectServer
SSD1306_Init
SSD1306_Clear
SSD1306_DrawBitmap
SSD1306_GotoXY
SSD1306_Puts
SSD1306_UpdateScreen
f_mount
strcmp
HAL_RTC_GetTime
HAL_RTC_GetDate
sprintf
l70_receiveGPS
l70_handleGPS
HAL_TIM_Base_Start
Font_7x10
l70DataAfterHadler
htim1
strcpy
DS18B20_Result
mqtt_pub
f_open
f_lseek
f_puts
f_close
strncpy
f_gets
