ARM GAS  C:\Users\Admin\AppData\Local\Temp\ccobVlDV.s 			page 1


   1              		.cpu cortex-m3
   2              		.arch armv7-m
   3              		.fpu softvfp
   4              		.eabi_attribute 20, 1
   5              		.eabi_attribute 21, 1
   6              		.eabi_attribute 23, 3
   7              		.eabi_attribute 24, 1
   8              		.eabi_attribute 25, 1
   9              		.eabi_attribute 26, 1
  10              		.eabi_attribute 30, 1
  11              		.eabi_attribute 34, 1
  12              		.eabi_attribute 18, 4
  13              		.file	"main.c"
  14              		.text
  15              	.Ltext0:
  16              		.cfi_sections	.debug_frame
  17              		.section	.text.set_timer,"ax",%progbits
  18              		.align	1
  19              		.global	set_timer
  20              		.syntax unified
  21              		.thumb
  22              		.thumb_func
  24              	set_timer:
  25              	.LVL0:
  26              	.LFB68:
  27              		.file 1 "Core/Src/main.c"
   1:Core/Src/main.c **** /* USER CODE BEGIN Header */
   2:Core/Src/main.c **** /**
   3:Core/Src/main.c ****   ******************************************************************************
   4:Core/Src/main.c ****   * @file           : main.c
   5:Core/Src/main.c ****   * @brief          : Main program body
   6:Core/Src/main.c ****   ******************************************************************************
   7:Core/Src/main.c ****   * @attention
   8:Core/Src/main.c ****   *
   9:Core/Src/main.c ****   * Copyright (c) 2023 STMicroelectronics.
  10:Core/Src/main.c ****   * All rights reserved.
  11:Core/Src/main.c ****   *
  12:Core/Src/main.c ****   * This software is licensed under terms that can be found in the LICENSE file
  13:Core/Src/main.c ****   * in the root directory of this software component.
  14:Core/Src/main.c ****   * If no LICENSE file comes with this software, it is provided AS-IS.
  15:Core/Src/main.c ****   *
  16:Core/Src/main.c ****   ******************************************************************************
  17:Core/Src/main.c ****   SIM   ------> UART1 115200
  18:Core/Src/main.c ****   RS232 ------> UART2 9600
  19:Core/Src/main.c ****   GNSS  ------> UART4 9600
  20:Core/Src/main.c ****   DEBUG ------> UART5 115200
  21:Core/Src/main.c **** 
  22:Core/Src/main.c ****   RFID  ------> SPI1  18Mb/s
  23:Core/Src/main.c ****   SDCAD ------> SPI3
  24:Core/Src/main.c ****   FLASH ------> SPI2
  25:Core/Src/main.c **** 
  26:Core/Src/main.c ****   SENSOR -----> TIM1
  27:Core/Src/main.c ****   MOve/stop --> TIM2
  28:Core/Src/main.c ****   4G LTE   ---> TIM3
  29:Core/Src/main.c ****   */
  30:Core/Src/main.c **** /* USER CODE END Header */
  31:Core/Src/main.c **** /* Includes ------------------------------------------------------------------*/
ARM GAS  C:\Users\Admin\AppData\Local\Temp\ccobVlDV.s 			page 2


  32:Core/Src/main.c **** #include "main.h"
  33:Core/Src/main.c **** #include "adc.h"
  34:Core/Src/main.c **** #include "fatfs.h"
  35:Core/Src/main.c **** #include "i2c.h"
  36:Core/Src/main.c **** #include "rtc.h"
  37:Core/Src/main.c **** #include "spi.h"
  38:Core/Src/main.c **** #include "tim.h"
  39:Core/Src/main.c **** #include "usart.h"
  40:Core/Src/main.c **** #include "gpio.h"
  41:Core/Src/main.c **** 
  42:Core/Src/main.c **** /* Private includes ----------------------------------------------------------*/
  43:Core/Src/main.c **** /* USER CODE BEGIN Includes */
  44:Core/Src/main.c **** #include "sensors.h"
  45:Core/Src/main.c **** #include "rc522.h"
  46:Core/Src/main.c **** #include "debug.h"
  47:Core/Src/main.c **** #include "sim4g_lte.h"
  48:Core/Src/main.c **** #include "gnss.h"
  49:Core/Src/main.c **** #include "fatfs_sd.h"
  50:Core/Src/main.c **** #include "mqtt.h"
  51:Core/Src/main.c **** 
  52:Core/Src/main.c **** #include <stdio.h>
  53:Core/Src/main.c **** #include <stdint.h>
  54:Core/Src/main.c **** #include <string.h>
  55:Core/Src/main.c **** /* USER CODE END Includes */
  56:Core/Src/main.c **** 
  57:Core/Src/main.c **** /* Private typedef -----------------------------------------------------------*/
  58:Core/Src/main.c **** /* USER CODE BEGIN PTD */
  59:Core/Src/main.c **** 
  60:Core/Src/main.c **** /* USER CODE END PTD */
  61:Core/Src/main.c **** 
  62:Core/Src/main.c **** /* Private define ------------------------------------------------------------*/
  63:Core/Src/main.c **** /* USER CODE BEGIN PD */
  64:Core/Src/main.c **** 
  65:Core/Src/main.c **** /* USER CODE END PD */
  66:Core/Src/main.c **** 
  67:Core/Src/main.c **** /* Private macro -------------------------------------------------------------*/
  68:Core/Src/main.c **** /* USER CODE BEGIN PM */
  69:Core/Src/main.c **** 
  70:Core/Src/main.c **** /* USER CODE END PM */
  71:Core/Src/main.c **** 
  72:Core/Src/main.c **** /* Private variables ---------------------------------------------------------*/
  73:Core/Src/main.c **** 
  74:Core/Src/main.c **** /* USER CODE BEGIN PV */
  75:Core/Src/main.c **** uint8_t CardID[5];
  76:Core/Src/main.c **** char szBuff[20];
  77:Core/Src/main.c **** 
  78:Core/Src/main.c **** enum check
  79:Core/Src/main.c **** {
  80:Core/Src/main.c ****   CHANGE,
  81:Core/Src/main.c ****   NOT_CHANGE
  82:Core/Src/main.c **** };
  83:Core/Src/main.c **** 
  84:Core/Src/main.c **** volatile int npn_flag_check = NOT_CHANGE;
  85:Core/Src/main.c **** int npn_count = 0;
  86:Core/Src/main.c **** 
  87:Core/Src/main.c **** enum State
  88:Core/Src/main.c **** {
ARM GAS  C:\Users\Admin\AppData\Local\Temp\ccobVlDV.s 			page 3


  89:Core/Src/main.c ****   Stop,
  90:Core/Src/main.c ****   Move
  91:Core/Src/main.c **** };
  92:Core/Src/main.c **** 
  93:Core/Src/main.c **** int Vehical_State;
  94:Core/Src/main.c **** 
  95:Core/Src/main.c **** float current_time, last_time;
  96:Core/Src/main.c **** float Vehical_veloc;
  97:Core/Src/main.c **** 
  98:Core/Src/main.c **** /************************************RTC************************/
  99:Core/Src/main.c **** RTC_TimeTypeDef sTime = {0};
 100:Core/Src/main.c **** RTC_DateTypeDef sDate = {0};
 101:Core/Src/main.c **** RTC_AlarmTypeDef sAlarm = {0};
 102:Core/Src/main.c **** uint8_t sencond = 0;
 103:Core/Src/main.c **** uint8_t minute = 0;
 104:Core/Src/main.c **** uint8_t hour = 0;
 105:Core/Src/main.c **** uint8_t date = 0;
 106:Core/Src/main.c **** uint8_t day = 0;
 107:Core/Src/main.c **** uint8_t month = 0;
 108:Core/Src/main.c **** uint8_t year = 0;
 109:Core/Src/main.c **** 
 110:Core/Src/main.c **** volatile int check = 0;
 111:Core/Src/main.c **** 
 112:Core/Src/main.c **** volatile uint8_t buftest[100] = {0};
 113:Core/Src/main.c **** volatile uint8_t buffchar;
 114:Core/Src/main.c **** volatile int k1 = 0;
 115:Core/Src/main.c **** /*********************************** GPS************************/
 116:Core/Src/main.c **** #define GPS 1
 117:Core/Src/main.c **** char *GPSResponse;
 118:Core/Src/main.c **** char latData[15] = {0};
 119:Core/Src/main.c **** char longData[15] = {0};
 120:Core/Src/main.c **** char simMessage[200] = {0};
 121:Core/Src/main.c **** 
 122:Core/Src/main.c **** char l70Data1;
 123:Core/Src/main.c **** char gnss_str[100] = {0};
 124:Core/Src/main.c **** 
 125:Core/Src/main.c **** /************************************* SSDCARD*******************/
 126:Core/Src/main.c **** #define SDCard 0
 127:Core/Src/main.c **** FATFS fs;                      // file system
 128:Core/Src/main.c **** FIL fil;                       // file
 129:Core/Src/main.c **** FRESULT fresult;               // store the result
 130:Core/Src/main.c **** char SD_buffer_w[1024] = {0};  // write data
 131:Core/Src/main.c **** char SD_buffer_r[10224] = {0}; // read data
 132:Core/Src/main.c **** char SD_file_name[50] = {0};
 133:Core/Src/main.c **** UINT br, bw; // file read.write count
 134:Core/Src/main.c **** 
 135:Core/Src/main.c **** FATFS *pfs;
 136:Core/Src/main.c **** DWORD fre_clust;
 137:Core/Src/main.c **** uint32_t total, free_space;
 138:Core/Src/main.c **** 
 139:Core/Src/main.c **** /**************************************SIM 4G***************************/
 140:Core/Src/main.c **** #define SIM 0
 141:Core/Src/main.c **** /* USER CODE END PV */
 142:Core/Src/main.c **** 
 143:Core/Src/main.c **** /* Private function prototypes -----------------------------------------------*/
 144:Core/Src/main.c **** void SystemClock_Config(void);
 145:Core/Src/main.c **** /* USER CODE BEGIN PFP */
ARM GAS  C:\Users\Admin\AppData\Local\Temp\ccobVlDV.s 			page 4


 146:Core/Src/main.c **** 
 147:Core/Src/main.c **** /* USER CODE END PFP */
 148:Core/Src/main.c **** 
 149:Core/Src/main.c **** /* Private user code ---------------------------------------------------------*/
 150:Core/Src/main.c **** /* USER CODE BEGIN 0 */
 151:Core/Src/main.c **** void set_timer(long time)
 152:Core/Src/main.c **** {
  28              		.loc 1 152 1 view -0
  29              		.cfi_startproc
  30              		@ args = 0, pretend = 0, frame = 0
  31              		@ frame_needed = 0, uses_anonymous_args = 0
  32              		@ link register save eliminated.
 153:Core/Src/main.c ****   TIM3->CNT = 60000 - time * 10;
  33              		.loc 1 153 3 view .LVU1
  34              		.loc 1 153 21 is_stmt 0 view .LVU2
  35 0000 6FF00902 		mvn	r2, #9
  36 0004 4EF66023 		movw	r3, #60000
  37 0008 02FB0033 		mla	r3, r2, r0, r3
  38              		.loc 1 153 13 view .LVU3
  39 000c 014A     		ldr	r2, .L2
  40 000e 5362     		str	r3, [r2, #36]
 154:Core/Src/main.c **** }
  41              		.loc 1 154 1 view .LVU4
  42 0010 7047     		bx	lr
  43              	.L3:
  44 0012 00BF     		.align	2
  45              	.L2:
  46 0014 00040040 		.word	1073742848
  47              		.cfi_endproc
  48              	.LFE68:
  50              		.section	.text.HAL_UART_RxCpltCallback,"ax",%progbits
  51              		.align	1
  52              		.global	HAL_UART_RxCpltCallback
  53              		.syntax unified
  54              		.thumb
  55              		.thumb_func
  57              	HAL_UART_RxCpltCallback:
  58              	.LVL1:
  59              	.LFB69:
 155:Core/Src/main.c **** 
 156:Core/Src/main.c **** void HAL_UART_RxCpltCallback(UART_HandleTypeDef *huart)
 157:Core/Src/main.c **** {
  60              		.loc 1 157 1 is_stmt 1 view -0
  61              		.cfi_startproc
  62              		@ args = 0, pretend = 0, frame = 0
  63              		@ frame_needed = 0, uses_anonymous_args = 0
  64              		.loc 1 157 1 is_stmt 0 view .LVU6
  65 0000 10B5     		push	{r4, lr}
  66              	.LCFI0:
  67              		.cfi_def_cfa_offset 8
  68              		.cfi_offset 4, -8
  69              		.cfi_offset 14, -4
  70 0002 0446     		mov	r4, r0
 158:Core/Src/main.c ****   if (huart == &huart1)
  71              		.loc 1 158 3 is_stmt 1 view .LVU7
  72              		.loc 1 158 6 is_stmt 0 view .LVU8
  73 0004 064B     		ldr	r3, .L10
ARM GAS  C:\Users\Admin\AppData\Local\Temp\ccobVlDV.s 			page 5


  74 0006 9842     		cmp	r0, r3
  75 0008 03D0     		beq	.L8
  76              	.LVL2:
  77              	.L5:
 159:Core/Src/main.c ****   {
 160:Core/Src/main.c ****     sim7672_callback();
 161:Core/Src/main.c ****   }
 162:Core/Src/main.c **** 
 163:Core/Src/main.c ****   if (huart == &huart4)
  78              		.loc 1 163 3 is_stmt 1 view .LVU9
  79              		.loc 1 163 6 is_stmt 0 view .LVU10
  80 000a 064B     		ldr	r3, .L10+4
  81 000c 9C42     		cmp	r4, r3
  82 000e 03D0     		beq	.L9
  83              	.L4:
 164:Core/Src/main.c ****   {
 165:Core/Src/main.c ****     l70_callback();
 166:Core/Src/main.c ****   }
 167:Core/Src/main.c **** }
  84              		.loc 1 167 1 view .LVU11
  85 0010 10BD     		pop	{r4, pc}
  86              	.LVL3:
  87              	.L8:
 160:Core/Src/main.c ****   }
  88              		.loc 1 160 5 is_stmt 1 view .LVU12
  89 0012 FFF7FEFF 		bl	sim7672_callback
  90              	.LVL4:
 160:Core/Src/main.c ****   }
  91              		.loc 1 160 5 is_stmt 0 view .LVU13
  92 0016 F8E7     		b	.L5
  93              	.L9:
 165:Core/Src/main.c ****   }
  94              		.loc 1 165 5 is_stmt 1 view .LVU14
  95 0018 FFF7FEFF 		bl	l70_callback
  96              	.LVL5:
  97              		.loc 1 167 1 is_stmt 0 view .LVU15
  98 001c F8E7     		b	.L4
  99              	.L11:
 100 001e 00BF     		.align	2
 101              	.L10:
 102 0020 00000000 		.word	huart1
 103 0024 00000000 		.word	huart4
 104              		.cfi_endproc
 105              	.LFE69:
 107              		.global	__aeabi_ui2f
 108              		.global	__aeabi_fsub
 109              		.global	__aeabi_fdiv
 110              		.section	.text.HAL_GPIO_EXTI_Callback,"ax",%progbits
 111              		.align	1
 112              		.global	HAL_GPIO_EXTI_Callback
 113              		.syntax unified
 114              		.thumb
 115              		.thumb_func
 117              	HAL_GPIO_EXTI_Callback:
 118              	.LVL6:
 119              	.LFB70:
 168:Core/Src/main.c **** 
ARM GAS  C:\Users\Admin\AppData\Local\Temp\ccobVlDV.s 			page 6


 169:Core/Src/main.c **** void HAL_GPIO_EXTI_Callback(uint16_t GPIO_Pin)
 170:Core/Src/main.c **** {
 120              		.loc 1 170 1 is_stmt 1 view -0
 121              		.cfi_startproc
 122              		@ args = 0, pretend = 0, frame = 0
 123              		@ frame_needed = 0, uses_anonymous_args = 0
 124              		.loc 1 170 1 is_stmt 0 view .LVU17
 125 0000 10B5     		push	{r4, lr}
 126              	.LCFI1:
 127              		.cfi_def_cfa_offset 8
 128              		.cfi_offset 4, -8
 129              		.cfi_offset 14, -4
 171:Core/Src/main.c ****   // reset timer 2
 172:Core/Src/main.c ****   HAL_TIM_Base_Stop(&htim2);
 130              		.loc 1 172 3 is_stmt 1 view .LVU18
 131 0002 1348     		ldr	r0, .L16
 132              	.LVL7:
 133              		.loc 1 172 3 is_stmt 0 view .LVU19
 134 0004 FFF7FEFF 		bl	HAL_TIM_Base_Stop
 135              	.LVL8:
 173:Core/Src/main.c ****   TIM2->CNT = 0;
 136              		.loc 1 173 3 is_stmt 1 view .LVU20
 137              		.loc 1 173 13 is_stmt 0 view .LVU21
 138 0008 0024     		movs	r4, #0
 139 000a 4FF08043 		mov	r3, #1073741824
 140 000e 5C62     		str	r4, [r3, #36]
 174:Core/Src/main.c **** 
 175:Core/Src/main.c ****   current_time = HAL_GetTick();
 141              		.loc 1 175 3 is_stmt 1 view .LVU22
 142              		.loc 1 175 18 is_stmt 0 view .LVU23
 143 0010 FFF7FEFF 		bl	HAL_GetTick
 144              	.LVL9:
 145              		.loc 1 175 16 view .LVU24
 146 0014 FFF7FEFF 		bl	__aeabi_ui2f
 147              	.LVL10:
 148 0018 0E4B     		ldr	r3, .L16+4
 149 001a 1860     		str	r0, [r3]	@ float
 176:Core/Src/main.c **** 
 177:Core/Src/main.c ****   npn_flag_check = CHANGE;
 150              		.loc 1 177 3 is_stmt 1 view .LVU25
 151              		.loc 1 177 18 is_stmt 0 view .LVU26
 152 001c 0E4B     		ldr	r3, .L16+8
 153 001e 1C60     		str	r4, [r3]
 178:Core/Src/main.c ****   Vehical_State = Move;
 154              		.loc 1 178 3 is_stmt 1 view .LVU27
 155              		.loc 1 178 17 is_stmt 0 view .LVU28
 156 0020 0E4B     		ldr	r3, .L16+12
 157 0022 0122     		movs	r2, #1
 158 0024 1A60     		str	r2, [r3]
 179:Core/Src/main.c ****   npn_count++;
 159              		.loc 1 179 3 is_stmt 1 view .LVU29
 160              		.loc 1 179 12 is_stmt 0 view .LVU30
 161 0026 0E4A     		ldr	r2, .L16+16
 162 0028 1368     		ldr	r3, [r2]
 163 002a 0133     		adds	r3, r3, #1
 164 002c 1360     		str	r3, [r2]
 180:Core/Src/main.c ****   if (npn_count == 20)
ARM GAS  C:\Users\Admin\AppData\Local\Temp\ccobVlDV.s 			page 7


 165              		.loc 1 180 3 is_stmt 1 view .LVU31
 166              		.loc 1 180 6 is_stmt 0 view .LVU32
 167 002e 142B     		cmp	r3, #20
 168 0030 03D0     		beq	.L15
 169              	.L13:
 181:Core/Src/main.c ****   {
 182:Core/Src/main.c ****     float time_cycle = current_time - last_time;
 183:Core/Src/main.c ****     Vehical_veloc = (1.0 * 3000) / (time_cycle);
 184:Core/Src/main.c ****     // tinh toan van toc
 185:Core/Src/main.c ****   }
 186:Core/Src/main.c ****   // start timer2
 187:Core/Src/main.c ****   HAL_TIM_Base_Start_IT(&htim2);
 170              		.loc 1 187 3 is_stmt 1 view .LVU33
 171 0032 0748     		ldr	r0, .L16
 172 0034 FFF7FEFF 		bl	HAL_TIM_Base_Start_IT
 173              	.LVL11:
 188:Core/Src/main.c **** }
 174              		.loc 1 188 1 is_stmt 0 view .LVU34
 175 0038 10BD     		pop	{r4, pc}
 176              	.L15:
 177              	.LBB4:
 182:Core/Src/main.c ****     Vehical_veloc = (1.0 * 3000) / (time_cycle);
 178              		.loc 1 182 5 is_stmt 1 view .LVU35
 182:Core/Src/main.c ****     Vehical_veloc = (1.0 * 3000) / (time_cycle);
 179              		.loc 1 182 11 is_stmt 0 view .LVU36
 180 003a 0A4B     		ldr	r3, .L16+20
 181 003c 1968     		ldr	r1, [r3]	@ float
 182 003e FFF7FEFF 		bl	__aeabi_fsub
 183              	.LVL12:
 184 0042 0146     		mov	r1, r0
 185              	.LVL13:
 183:Core/Src/main.c ****     // tinh toan van toc
 186              		.loc 1 183 5 is_stmt 1 view .LVU37
 183:Core/Src/main.c ****     // tinh toan van toc
 187              		.loc 1 183 34 is_stmt 0 view .LVU38
 188 0044 0848     		ldr	r0, .L16+24
 189              	.LVL14:
 183:Core/Src/main.c ****     // tinh toan van toc
 190              		.loc 1 183 34 view .LVU39
 191 0046 FFF7FEFF 		bl	__aeabi_fdiv
 192              	.LVL15:
 183:Core/Src/main.c ****     // tinh toan van toc
 193              		.loc 1 183 19 view .LVU40
 194 004a 084B     		ldr	r3, .L16+28
 195 004c 1860     		str	r0, [r3]	@ float
 196 004e F0E7     		b	.L13
 197              	.L17:
 198              		.align	2
 199              	.L16:
 200 0050 00000000 		.word	htim2
 201 0054 00000000 		.word	.LANCHOR0
 202 0058 00000000 		.word	.LANCHOR1
 203 005c 00000000 		.word	.LANCHOR2
 204 0060 00000000 		.word	.LANCHOR3
 205 0064 00000000 		.word	.LANCHOR4
 206 0068 00803B45 		.word	1161527296
 207 006c 00000000 		.word	.LANCHOR5
ARM GAS  C:\Users\Admin\AppData\Local\Temp\ccobVlDV.s 			page 8


 208              	.LBE4:
 209              		.cfi_endproc
 210              	.LFE70:
 212              		.section	.text.HAL_TIM_PeriodElapsedCallback,"ax",%progbits
 213              		.align	1
 214              		.global	HAL_TIM_PeriodElapsedCallback
 215              		.syntax unified
 216              		.thumb
 217              		.thumb_func
 219              	HAL_TIM_PeriodElapsedCallback:
 220              	.LVL16:
 221              	.LFB71:
 189:Core/Src/main.c **** 
 190:Core/Src/main.c **** void HAL_TIM_PeriodElapsedCallback(TIM_HandleTypeDef *htim)
 191:Core/Src/main.c **** {
 222              		.loc 1 191 1 is_stmt 1 view -0
 223              		.cfi_startproc
 224              		@ args = 0, pretend = 0, frame = 0
 225              		@ frame_needed = 0, uses_anonymous_args = 0
 226              		@ link register save eliminated.
 192:Core/Src/main.c ****   if (htim == &htim2)
 227              		.loc 1 192 3 view .LVU42
 228              		.loc 1 192 6 is_stmt 0 view .LVU43
 229 0000 054B     		ldr	r3, .L21
 230 0002 8342     		cmp	r3, r0
 231 0004 00D0     		beq	.L20
 232              	.L18:
 193:Core/Src/main.c ****   {
 194:Core/Src/main.c ****     npn_flag_check = NOT_CHANGE;
 195:Core/Src/main.c ****     Vehical_State = Stop;
 196:Core/Src/main.c ****   }
 197:Core/Src/main.c ****   if (htim == &htim3)
 198:Core/Src/main.c ****   {
 199:Core/Src/main.c **** 
 200:Core/Src/main.c ****   }
 201:Core/Src/main.c **** }
 233              		.loc 1 201 1 view .LVU44
 234 0006 7047     		bx	lr
 235              	.L20:
 194:Core/Src/main.c ****     Vehical_State = Stop;
 236              		.loc 1 194 5 is_stmt 1 view .LVU45
 194:Core/Src/main.c ****     Vehical_State = Stop;
 237              		.loc 1 194 20 is_stmt 0 view .LVU46
 238 0008 044B     		ldr	r3, .L21+4
 239 000a 0122     		movs	r2, #1
 240 000c 1A60     		str	r2, [r3]
 195:Core/Src/main.c ****   }
 241              		.loc 1 195 5 is_stmt 1 view .LVU47
 195:Core/Src/main.c ****   }
 242              		.loc 1 195 19 is_stmt 0 view .LVU48
 243 000e 044B     		ldr	r3, .L21+8
 244 0010 0022     		movs	r2, #0
 245 0012 1A60     		str	r2, [r3]
 197:Core/Src/main.c ****   {
 246              		.loc 1 197 3 is_stmt 1 view .LVU49
 200:Core/Src/main.c **** }
 247              		.loc 1 200 3 view .LVU50
ARM GAS  C:\Users\Admin\AppData\Local\Temp\ccobVlDV.s 			page 9


 248              		.loc 1 201 1 is_stmt 0 view .LVU51
 249 0014 F7E7     		b	.L18
 250              	.L22:
 251 0016 00BF     		.align	2
 252              	.L21:
 253 0018 00000000 		.word	htim2
 254 001c 00000000 		.word	.LANCHOR1
 255 0020 00000000 		.word	.LANCHOR2
 256              		.cfi_endproc
 257              	.LFE71:
 259              		.section	.text.Error_Handler,"ax",%progbits
 260              		.align	1
 261              		.global	Error_Handler
 262              		.syntax unified
 263              		.thumb
 264              		.thumb_func
 266              	Error_Handler:
 267              	.LFB74:
 202:Core/Src/main.c **** 
 203:Core/Src/main.c **** /* USER CODE END 0 */
 204:Core/Src/main.c **** 
 205:Core/Src/main.c **** /**
 206:Core/Src/main.c ****   * @brief  The application entry point.
 207:Core/Src/main.c ****   * @retval int
 208:Core/Src/main.c ****   */
 209:Core/Src/main.c **** int main(void)
 210:Core/Src/main.c **** {
 211:Core/Src/main.c ****   /* USER CODE BEGIN 1 */
 212:Core/Src/main.c **** 
 213:Core/Src/main.c ****   /* USER CODE END 1 */
 214:Core/Src/main.c **** 
 215:Core/Src/main.c ****   /* MCU Configuration--------------------------------------------------------*/
 216:Core/Src/main.c **** 
 217:Core/Src/main.c ****   /* Reset of all peripherals, Initializes the Flash interface and the Systick. */
 218:Core/Src/main.c ****   HAL_Init();
 219:Core/Src/main.c **** 
 220:Core/Src/main.c ****   /* USER CODE BEGIN Init */
 221:Core/Src/main.c **** 
 222:Core/Src/main.c ****   /* USER CODE END Init */
 223:Core/Src/main.c **** 
 224:Core/Src/main.c ****   /* Configure the system clock */
 225:Core/Src/main.c ****   SystemClock_Config();
 226:Core/Src/main.c **** 
 227:Core/Src/main.c ****   /* USER CODE BEGIN SysInit */
 228:Core/Src/main.c **** 
 229:Core/Src/main.c ****   /* USER CODE END SysInit */
 230:Core/Src/main.c **** 
 231:Core/Src/main.c ****   /* Initialize all configured peripherals */
 232:Core/Src/main.c ****   MX_GPIO_Init();
 233:Core/Src/main.c ****   MX_ADC1_Init();
 234:Core/Src/main.c ****   MX_SPI1_Init();
 235:Core/Src/main.c ****   MX_ADC2_Init();
 236:Core/Src/main.c ****   MX_TIM1_Init();
 237:Core/Src/main.c ****   MX_UART5_Init();
 238:Core/Src/main.c ****   MX_I2C1_Init();
 239:Core/Src/main.c ****   MX_SPI2_Init();
 240:Core/Src/main.c ****   MX_SPI3_Init();
ARM GAS  C:\Users\Admin\AppData\Local\Temp\ccobVlDV.s 			page 10


 241:Core/Src/main.c ****   MX_UART4_Init();
 242:Core/Src/main.c ****   MX_USART1_UART_Init();
 243:Core/Src/main.c ****   MX_USART2_UART_Init();
 244:Core/Src/main.c ****   MX_TIM2_Init();
 245:Core/Src/main.c ****   MX_TIM3_Init();
 246:Core/Src/main.c ****   MX_RTC_Init();
 247:Core/Src/main.c ****   MX_FATFS_Init();
 248:Core/Src/main.c ****   /* USER CODE BEGIN 2 */
 249:Core/Src/main.c ****   log_data("\nGSHT START\n");
 250:Core/Src/main.c **** #if SIM
 251:Core/Src/main.c ****   // sim7672_pwrOn();
 252:Core/Src/main.c ****   // HAL_Delay(5000);
 253:Core/Src/main.c ****   sim7672_init();
 254:Core/Src/main.c ****   sim7672_check_signalStrength();
 255:Core/Src/main.c ****   HAL_Delay(500);
 256:Core/Src/main.c ****   // mqtt_disconnectServer();
 257:Core/Src/main.c ****   HAL_Delay(1000);
 258:Core/Src/main.c ****   mqtt_connectServer();
 259:Core/Src/main.c ****   mqtt_pub("test1z","123456789");
 260:Core/Src/main.c ****   HAL_Delay(500);
 261:Core/Src/main.c ****   mqtt_sub("test1z");
 262:Core/Src/main.c **** #endif
 263:Core/Src/main.c **** 
 264:Core/Src/main.c **** #if GPS
 265:Core/Src/main.c ****   sim7672_pwrOff();
 266:Core/Src/main.c ****   l70_init();
 267:Core/Src/main.c ****   HAL_Delay(1000);
 268:Core/Src/main.c **** #endif
 269:Core/Src/main.c **** 
 270:Core/Src/main.c **** #if SDCard
 271:Core/Src/main.c **** 
 272:Core/Src/main.c ****   fresult = f_mount(&fs, "/", 1);
 273:Core/Src/main.c ****   if (fresult != FR_OK)
 274:Core/Src/main.c ****     send_uart("ERROR!!! in mounting SD CARD...\n\n");
 275:Core/Src/main.c ****   else
 276:Core/Src/main.c ****     send_uart("*******************\nSD CARD mounted successfully...\n\n");
 277:Core/Src/main.c **** 
 278:Core/Src/main.c ****   /* ********************************Create second file with read write access and open it */
 279:Core/Src/main.c ****   fresult = f_open(&fil, "file2.txt", FA_WRITE);
 280:Core/Src/main.c ****   if (fresult != FR_OK) send_uart ("open error...\n\n");
 281:Core/Src/main.c ****   else send_uart("open successfully...\n\n");
 282:Core/Src/main.c ****   // f_lseek(&fil, f_size(&fil));
 283:Core/Src/main.c ****   f_puts("This data is from the FILE1.txt. And it was written using ...f_puts... \nthis full functi
 284:Core/Src/main.c ****   // f_puts("\nThis is updated data and it should be in the end",&fil);
 285:Core/Src/main.c ****   fresult = f_close(&fil);
 286:Core/Src/main.c ****   if (fresult != FR_OK) send_uart ("write error...\n\n");
 287:Core/Src/main.c ****   else send_uart("write successfully...\n\n");
 288:Core/Src/main.c ****   send_uart ("File2.txt created and data is written\n");
 289:Core/Src/main.c ****   // clearing buffer to show that result obtained is from the file
 290:Core/Src/main.c ****   clear_buffer();
 291:Core/Src/main.c **** 
 292:Core/Src/main.c ****   /* ***********************************Open second file to read */
 293:Core/Src/main.c ****   fresult = f_open(&fil, "file2.txt", FA_READ);
 294:Core/Src/main.c ****   if (fresult != FR_OK)
 295:Core/Src/main.c ****     send_uart("open error...\n\n");
 296:Core/Src/main.c ****   else
 297:Core/Src/main.c ****     send_uart("open successfully...\n\n");
ARM GAS  C:\Users\Admin\AppData\Local\Temp\ccobVlDV.s 			page 11


 298:Core/Src/main.c **** 
 299:Core/Src/main.c ****   /* Read data from the file
 300:Core/Src/main.c ****    * Please see the function details for the arguments */
 301:Core/Src/main.c ****   // f_gets(buffer, f_size(&fil), &fil);
 302:Core/Src/main.c ****   while (f_gets(buffer, sizeof(buffer), &fil) != NULL)
 303:Core/Src/main.c ****   {
 304:Core/Src/main.c ****     // Xử lý dữ liệu theo nhu cầu của bạn, ví dụ: gửi qua UART
 305:Core/Src/main.c ****     send_uart(buffer);
 306:Core/Src/main.c ****   }
 307:Core/Src/main.c ****   // f_read (&fil, buffer, f_size(&fil), &br);
 308:Core/Src/main.c ****   send_uart("data: ");
 309:Core/Src/main.c ****   send_uart(buffer);
 310:Core/Src/main.c ****   send_uart("\n\n");
 311:Core/Src/main.c **** 
 312:Core/Src/main.c ****   /* Close file */
 313:Core/Src/main.c ****   f_close(&fil);
 314:Core/Src/main.c **** 
 315:Core/Src/main.c ****   clear_buffer();
 316:Core/Src/main.c ****   /* Close file */
 317:Core/Src/main.c ****   f_close(&fil);
 318:Core/Src/main.c **** #endif
 319:Core/Src/main.c **** 
 320:Core/Src/main.c ****   /* USER CODE END 2 */
 321:Core/Src/main.c **** 
 322:Core/Src/main.c ****   /* Infinite loop */
 323:Core/Src/main.c ****   /* USER CODE BEGIN WHILE */
 324:Core/Src/main.c ****   while (1)
 325:Core/Src/main.c ****   {
 326:Core/Src/main.c ****     /* USER CODE END WHILE */
 327:Core/Src/main.c **** 
 328:Core/Src/main.c ****     /* USER CODE BEGIN 3 */
 329:Core/Src/main.c **** 
 330:Core/Src/main.c ****     #if GPS
 331:Core/Src/main.c ****     GPSResponse = l70_receiveGPS();
 332:Core/Src/main.c ****     l70_handleGPS(GPSResponse);
 333:Core/Src/main.c ****     HAL_Delay(2000);
 334:Core/Src/main.c ****     #endif
 335:Core/Src/main.c ****     // log_data("test...");
 336:Core/Src/main.c ****     // HAL_Delay(2000);
 337:Core/Src/main.c ****     // HAL_Delay(2000);
 338:Core/Src/main.c ****   }
 339:Core/Src/main.c ****   /* USER CODE END 3 */
 340:Core/Src/main.c **** }
 341:Core/Src/main.c **** 
 342:Core/Src/main.c **** /**
 343:Core/Src/main.c ****   * @brief System Clock Configuration
 344:Core/Src/main.c ****   * @retval None
 345:Core/Src/main.c ****   */
 346:Core/Src/main.c **** void SystemClock_Config(void)
 347:Core/Src/main.c **** {
 348:Core/Src/main.c ****   RCC_OscInitTypeDef RCC_OscInitStruct = {0};
 349:Core/Src/main.c ****   RCC_ClkInitTypeDef RCC_ClkInitStruct = {0};
 350:Core/Src/main.c ****   RCC_PeriphCLKInitTypeDef PeriphClkInit = {0};
 351:Core/Src/main.c **** 
 352:Core/Src/main.c ****   /** Initializes the RCC Oscillators according to the specified parameters
 353:Core/Src/main.c ****   * in the RCC_OscInitTypeDef structure.
 354:Core/Src/main.c ****   */
ARM GAS  C:\Users\Admin\AppData\Local\Temp\ccobVlDV.s 			page 12


 355:Core/Src/main.c ****   RCC_OscInitStruct.OscillatorType = RCC_OSCILLATORTYPE_LSI|RCC_OSCILLATORTYPE_HSE;
 356:Core/Src/main.c ****   RCC_OscInitStruct.HSEState = RCC_HSE_ON;
 357:Core/Src/main.c ****   RCC_OscInitStruct.HSEPredivValue = RCC_HSE_PREDIV_DIV1;
 358:Core/Src/main.c ****   RCC_OscInitStruct.HSIState = RCC_HSI_ON;
 359:Core/Src/main.c ****   RCC_OscInitStruct.LSIState = RCC_LSI_ON;
 360:Core/Src/main.c ****   RCC_OscInitStruct.PLL.PLLState = RCC_PLL_ON;
 361:Core/Src/main.c ****   RCC_OscInitStruct.PLL.PLLSource = RCC_PLLSOURCE_HSE;
 362:Core/Src/main.c ****   RCC_OscInitStruct.PLL.PLLMUL = RCC_PLL_MUL9;
 363:Core/Src/main.c ****   if (HAL_RCC_OscConfig(&RCC_OscInitStruct) != HAL_OK)
 364:Core/Src/main.c ****   {
 365:Core/Src/main.c ****     Error_Handler();
 366:Core/Src/main.c ****   }
 367:Core/Src/main.c **** 
 368:Core/Src/main.c ****   /** Initializes the CPU, AHB and APB buses clocks
 369:Core/Src/main.c ****   */
 370:Core/Src/main.c ****   RCC_ClkInitStruct.ClockType = RCC_CLOCKTYPE_HCLK|RCC_CLOCKTYPE_SYSCLK
 371:Core/Src/main.c ****                               |RCC_CLOCKTYPE_PCLK1|RCC_CLOCKTYPE_PCLK2;
 372:Core/Src/main.c ****   RCC_ClkInitStruct.SYSCLKSource = RCC_SYSCLKSOURCE_PLLCLK;
 373:Core/Src/main.c ****   RCC_ClkInitStruct.AHBCLKDivider = RCC_SYSCLK_DIV1;
 374:Core/Src/main.c ****   RCC_ClkInitStruct.APB1CLKDivider = RCC_HCLK_DIV2;
 375:Core/Src/main.c ****   RCC_ClkInitStruct.APB2CLKDivider = RCC_HCLK_DIV1;
 376:Core/Src/main.c **** 
 377:Core/Src/main.c ****   if (HAL_RCC_ClockConfig(&RCC_ClkInitStruct, FLASH_LATENCY_2) != HAL_OK)
 378:Core/Src/main.c ****   {
 379:Core/Src/main.c ****     Error_Handler();
 380:Core/Src/main.c ****   }
 381:Core/Src/main.c ****   PeriphClkInit.PeriphClockSelection = RCC_PERIPHCLK_RTC|RCC_PERIPHCLK_ADC;
 382:Core/Src/main.c ****   PeriphClkInit.RTCClockSelection = RCC_RTCCLKSOURCE_LSI;
 383:Core/Src/main.c ****   PeriphClkInit.AdcClockSelection = RCC_ADCPCLK2_DIV6;
 384:Core/Src/main.c ****   if (HAL_RCCEx_PeriphCLKConfig(&PeriphClkInit) != HAL_OK)
 385:Core/Src/main.c ****   {
 386:Core/Src/main.c ****     Error_Handler();
 387:Core/Src/main.c ****   }
 388:Core/Src/main.c **** }
 389:Core/Src/main.c **** 
 390:Core/Src/main.c **** /* USER CODE BEGIN 4 */
 391:Core/Src/main.c **** 
 392:Core/Src/main.c **** /* USER CODE END 4 */
 393:Core/Src/main.c **** 
 394:Core/Src/main.c **** /**
 395:Core/Src/main.c ****   * @brief  This function is executed in case of error occurrence.
 396:Core/Src/main.c ****   * @retval None
 397:Core/Src/main.c ****   */
 398:Core/Src/main.c **** void Error_Handler(void)
 399:Core/Src/main.c **** {
 268              		.loc 1 399 1 is_stmt 1 view -0
 269              		.cfi_startproc
 270              		@ Volatile: function does not return.
 271              		@ args = 0, pretend = 0, frame = 0
 272              		@ frame_needed = 0, uses_anonymous_args = 0
 273              		@ link register save eliminated.
 400:Core/Src/main.c ****   /* USER CODE BEGIN Error_Handler_Debug */
 401:Core/Src/main.c ****   /* User can add his own implementation to report the HAL error return state */
 402:Core/Src/main.c ****   __disable_irq();
 274              		.loc 1 402 3 view .LVU53
 275              	.LBB5:
 276              	.LBI5:
ARM GAS  C:\Users\Admin\AppData\Local\Temp\ccobVlDV.s 			page 13


 277              		.file 2 "Drivers/CMSIS/Include/cmsis_gcc.h"
   1:Drivers/CMSIS/Include/cmsis_gcc.h **** /**************************************************************************//**
   2:Drivers/CMSIS/Include/cmsis_gcc.h ****  * @file     cmsis_gcc.h
   3:Drivers/CMSIS/Include/cmsis_gcc.h ****  * @brief    CMSIS compiler GCC header file
   4:Drivers/CMSIS/Include/cmsis_gcc.h ****  * @version  V5.0.4
   5:Drivers/CMSIS/Include/cmsis_gcc.h ****  * @date     09. April 2018
   6:Drivers/CMSIS/Include/cmsis_gcc.h ****  ******************************************************************************/
   7:Drivers/CMSIS/Include/cmsis_gcc.h **** /*
   8:Drivers/CMSIS/Include/cmsis_gcc.h ****  * Copyright (c) 2009-2018 Arm Limited. All rights reserved.
   9:Drivers/CMSIS/Include/cmsis_gcc.h ****  *
  10:Drivers/CMSIS/Include/cmsis_gcc.h ****  * SPDX-License-Identifier: Apache-2.0
  11:Drivers/CMSIS/Include/cmsis_gcc.h ****  *
  12:Drivers/CMSIS/Include/cmsis_gcc.h ****  * Licensed under the Apache License, Version 2.0 (the License); you may
  13:Drivers/CMSIS/Include/cmsis_gcc.h ****  * not use this file except in compliance with the License.
  14:Drivers/CMSIS/Include/cmsis_gcc.h ****  * You may obtain a copy of the License at
  15:Drivers/CMSIS/Include/cmsis_gcc.h ****  *
  16:Drivers/CMSIS/Include/cmsis_gcc.h ****  * www.apache.org/licenses/LICENSE-2.0
  17:Drivers/CMSIS/Include/cmsis_gcc.h ****  *
  18:Drivers/CMSIS/Include/cmsis_gcc.h ****  * Unless required by applicable law or agreed to in writing, software
  19:Drivers/CMSIS/Include/cmsis_gcc.h ****  * distributed under the License is distributed on an AS IS BASIS, WITHOUT
  20:Drivers/CMSIS/Include/cmsis_gcc.h ****  * WARRANTIES OR CONDITIONS OF ANY KIND, either express or implied.
  21:Drivers/CMSIS/Include/cmsis_gcc.h ****  * See the License for the specific language governing permissions and
  22:Drivers/CMSIS/Include/cmsis_gcc.h ****  * limitations under the License.
  23:Drivers/CMSIS/Include/cmsis_gcc.h ****  */
  24:Drivers/CMSIS/Include/cmsis_gcc.h **** 
  25:Drivers/CMSIS/Include/cmsis_gcc.h **** #ifndef __CMSIS_GCC_H
  26:Drivers/CMSIS/Include/cmsis_gcc.h **** #define __CMSIS_GCC_H
  27:Drivers/CMSIS/Include/cmsis_gcc.h **** 
  28:Drivers/CMSIS/Include/cmsis_gcc.h **** /* ignore some GCC warnings */
  29:Drivers/CMSIS/Include/cmsis_gcc.h **** #pragma GCC diagnostic push
  30:Drivers/CMSIS/Include/cmsis_gcc.h **** #pragma GCC diagnostic ignored "-Wsign-conversion"
  31:Drivers/CMSIS/Include/cmsis_gcc.h **** #pragma GCC diagnostic ignored "-Wconversion"
  32:Drivers/CMSIS/Include/cmsis_gcc.h **** #pragma GCC diagnostic ignored "-Wunused-parameter"
  33:Drivers/CMSIS/Include/cmsis_gcc.h **** 
  34:Drivers/CMSIS/Include/cmsis_gcc.h **** /* Fallback for __has_builtin */
  35:Drivers/CMSIS/Include/cmsis_gcc.h **** #ifndef __has_builtin
  36:Drivers/CMSIS/Include/cmsis_gcc.h ****   #define __has_builtin(x) (0)
  37:Drivers/CMSIS/Include/cmsis_gcc.h **** #endif
  38:Drivers/CMSIS/Include/cmsis_gcc.h **** 
  39:Drivers/CMSIS/Include/cmsis_gcc.h **** /* CMSIS compiler specific defines */
  40:Drivers/CMSIS/Include/cmsis_gcc.h **** #ifndef   __ASM
  41:Drivers/CMSIS/Include/cmsis_gcc.h ****   #define __ASM                                  __asm
  42:Drivers/CMSIS/Include/cmsis_gcc.h **** #endif
  43:Drivers/CMSIS/Include/cmsis_gcc.h **** #ifndef   __INLINE
  44:Drivers/CMSIS/Include/cmsis_gcc.h ****   #define __INLINE                               inline
  45:Drivers/CMSIS/Include/cmsis_gcc.h **** #endif
  46:Drivers/CMSIS/Include/cmsis_gcc.h **** #ifndef   __STATIC_INLINE
  47:Drivers/CMSIS/Include/cmsis_gcc.h ****   #define __STATIC_INLINE                        static inline
  48:Drivers/CMSIS/Include/cmsis_gcc.h **** #endif
  49:Drivers/CMSIS/Include/cmsis_gcc.h **** #ifndef   __STATIC_FORCEINLINE                 
  50:Drivers/CMSIS/Include/cmsis_gcc.h ****   #define __STATIC_FORCEINLINE                   __attribute__((always_inline)) static inline
  51:Drivers/CMSIS/Include/cmsis_gcc.h **** #endif                                           
  52:Drivers/CMSIS/Include/cmsis_gcc.h **** #ifndef   __NO_RETURN
  53:Drivers/CMSIS/Include/cmsis_gcc.h ****   #define __NO_RETURN                            __attribute__((__noreturn__))
  54:Drivers/CMSIS/Include/cmsis_gcc.h **** #endif
  55:Drivers/CMSIS/Include/cmsis_gcc.h **** #ifndef   __USED
  56:Drivers/CMSIS/Include/cmsis_gcc.h ****   #define __USED                                 __attribute__((used))
ARM GAS  C:\Users\Admin\AppData\Local\Temp\ccobVlDV.s 			page 14


  57:Drivers/CMSIS/Include/cmsis_gcc.h **** #endif
  58:Drivers/CMSIS/Include/cmsis_gcc.h **** #ifndef   __WEAK
  59:Drivers/CMSIS/Include/cmsis_gcc.h ****   #define __WEAK                                 __attribute__((weak))
  60:Drivers/CMSIS/Include/cmsis_gcc.h **** #endif
  61:Drivers/CMSIS/Include/cmsis_gcc.h **** #ifndef   __PACKED
  62:Drivers/CMSIS/Include/cmsis_gcc.h ****   #define __PACKED                               __attribute__((packed, aligned(1)))
  63:Drivers/CMSIS/Include/cmsis_gcc.h **** #endif
  64:Drivers/CMSIS/Include/cmsis_gcc.h **** #ifndef   __PACKED_STRUCT
  65:Drivers/CMSIS/Include/cmsis_gcc.h ****   #define __PACKED_STRUCT                        struct __attribute__((packed, aligned(1)))
  66:Drivers/CMSIS/Include/cmsis_gcc.h **** #endif
  67:Drivers/CMSIS/Include/cmsis_gcc.h **** #ifndef   __PACKED_UNION
  68:Drivers/CMSIS/Include/cmsis_gcc.h ****   #define __PACKED_UNION                         union __attribute__((packed, aligned(1)))
  69:Drivers/CMSIS/Include/cmsis_gcc.h **** #endif
  70:Drivers/CMSIS/Include/cmsis_gcc.h **** #ifndef   __UNALIGNED_UINT32        /* deprecated */
  71:Drivers/CMSIS/Include/cmsis_gcc.h ****   #pragma GCC diagnostic push
  72:Drivers/CMSIS/Include/cmsis_gcc.h ****   #pragma GCC diagnostic ignored "-Wpacked"
  73:Drivers/CMSIS/Include/cmsis_gcc.h ****   #pragma GCC diagnostic ignored "-Wattributes"
  74:Drivers/CMSIS/Include/cmsis_gcc.h ****   struct __attribute__((packed)) T_UINT32 { uint32_t v; };
  75:Drivers/CMSIS/Include/cmsis_gcc.h ****   #pragma GCC diagnostic pop
  76:Drivers/CMSIS/Include/cmsis_gcc.h ****   #define __UNALIGNED_UINT32(x)                  (((struct T_UINT32 *)(x))->v)
  77:Drivers/CMSIS/Include/cmsis_gcc.h **** #endif
  78:Drivers/CMSIS/Include/cmsis_gcc.h **** #ifndef   __UNALIGNED_UINT16_WRITE
  79:Drivers/CMSIS/Include/cmsis_gcc.h ****   #pragma GCC diagnostic push
  80:Drivers/CMSIS/Include/cmsis_gcc.h ****   #pragma GCC diagnostic ignored "-Wpacked"
  81:Drivers/CMSIS/Include/cmsis_gcc.h ****   #pragma GCC diagnostic ignored "-Wattributes"
  82:Drivers/CMSIS/Include/cmsis_gcc.h ****   __PACKED_STRUCT T_UINT16_WRITE { uint16_t v; };
  83:Drivers/CMSIS/Include/cmsis_gcc.h ****   #pragma GCC diagnostic pop
  84:Drivers/CMSIS/Include/cmsis_gcc.h ****   #define __UNALIGNED_UINT16_WRITE(addr, val)    (void)((((struct T_UINT16_WRITE *)(void *)(addr))-
  85:Drivers/CMSIS/Include/cmsis_gcc.h **** #endif
  86:Drivers/CMSIS/Include/cmsis_gcc.h **** #ifndef   __UNALIGNED_UINT16_READ
  87:Drivers/CMSIS/Include/cmsis_gcc.h ****   #pragma GCC diagnostic push
  88:Drivers/CMSIS/Include/cmsis_gcc.h ****   #pragma GCC diagnostic ignored "-Wpacked"
  89:Drivers/CMSIS/Include/cmsis_gcc.h ****   #pragma GCC diagnostic ignored "-Wattributes"
  90:Drivers/CMSIS/Include/cmsis_gcc.h ****   __PACKED_STRUCT T_UINT16_READ { uint16_t v; };
  91:Drivers/CMSIS/Include/cmsis_gcc.h ****   #pragma GCC diagnostic pop
  92:Drivers/CMSIS/Include/cmsis_gcc.h ****   #define __UNALIGNED_UINT16_READ(addr)          (((const struct T_UINT16_READ *)(const void *)(add
  93:Drivers/CMSIS/Include/cmsis_gcc.h **** #endif
  94:Drivers/CMSIS/Include/cmsis_gcc.h **** #ifndef   __UNALIGNED_UINT32_WRITE
  95:Drivers/CMSIS/Include/cmsis_gcc.h ****   #pragma GCC diagnostic push
  96:Drivers/CMSIS/Include/cmsis_gcc.h ****   #pragma GCC diagnostic ignored "-Wpacked"
  97:Drivers/CMSIS/Include/cmsis_gcc.h ****   #pragma GCC diagnostic ignored "-Wattributes"
  98:Drivers/CMSIS/Include/cmsis_gcc.h ****   __PACKED_STRUCT T_UINT32_WRITE { uint32_t v; };
  99:Drivers/CMSIS/Include/cmsis_gcc.h ****   #pragma GCC diagnostic pop
 100:Drivers/CMSIS/Include/cmsis_gcc.h ****   #define __UNALIGNED_UINT32_WRITE(addr, val)    (void)((((struct T_UINT32_WRITE *)(void *)(addr))-
 101:Drivers/CMSIS/Include/cmsis_gcc.h **** #endif
 102:Drivers/CMSIS/Include/cmsis_gcc.h **** #ifndef   __UNALIGNED_UINT32_READ
 103:Drivers/CMSIS/Include/cmsis_gcc.h ****   #pragma GCC diagnostic push
 104:Drivers/CMSIS/Include/cmsis_gcc.h ****   #pragma GCC diagnostic ignored "-Wpacked"
 105:Drivers/CMSIS/Include/cmsis_gcc.h ****   #pragma GCC diagnostic ignored "-Wattributes"
 106:Drivers/CMSIS/Include/cmsis_gcc.h ****   __PACKED_STRUCT T_UINT32_READ { uint32_t v; };
 107:Drivers/CMSIS/Include/cmsis_gcc.h ****   #pragma GCC diagnostic pop
 108:Drivers/CMSIS/Include/cmsis_gcc.h ****   #define __UNALIGNED_UINT32_READ(addr)          (((const struct T_UINT32_READ *)(const void *)(add
 109:Drivers/CMSIS/Include/cmsis_gcc.h **** #endif
 110:Drivers/CMSIS/Include/cmsis_gcc.h **** #ifndef   __ALIGNED
 111:Drivers/CMSIS/Include/cmsis_gcc.h ****   #define __ALIGNED(x)                           __attribute__((aligned(x)))
 112:Drivers/CMSIS/Include/cmsis_gcc.h **** #endif
 113:Drivers/CMSIS/Include/cmsis_gcc.h **** #ifndef   __RESTRICT
ARM GAS  C:\Users\Admin\AppData\Local\Temp\ccobVlDV.s 			page 15


 114:Drivers/CMSIS/Include/cmsis_gcc.h ****   #define __RESTRICT                             __restrict
 115:Drivers/CMSIS/Include/cmsis_gcc.h **** #endif
 116:Drivers/CMSIS/Include/cmsis_gcc.h **** 
 117:Drivers/CMSIS/Include/cmsis_gcc.h **** 
 118:Drivers/CMSIS/Include/cmsis_gcc.h **** /* ###########################  Core Function Access  ########################### */
 119:Drivers/CMSIS/Include/cmsis_gcc.h **** /** \ingroup  CMSIS_Core_FunctionInterface
 120:Drivers/CMSIS/Include/cmsis_gcc.h ****     \defgroup CMSIS_Core_RegAccFunctions CMSIS Core Register Access Functions
 121:Drivers/CMSIS/Include/cmsis_gcc.h ****   @{
 122:Drivers/CMSIS/Include/cmsis_gcc.h ****  */
 123:Drivers/CMSIS/Include/cmsis_gcc.h **** 
 124:Drivers/CMSIS/Include/cmsis_gcc.h **** /**
 125:Drivers/CMSIS/Include/cmsis_gcc.h ****   \brief   Enable IRQ Interrupts
 126:Drivers/CMSIS/Include/cmsis_gcc.h ****   \details Enables IRQ interrupts by clearing the I-bit in the CPSR.
 127:Drivers/CMSIS/Include/cmsis_gcc.h ****            Can only be executed in Privileged modes.
 128:Drivers/CMSIS/Include/cmsis_gcc.h ****  */
 129:Drivers/CMSIS/Include/cmsis_gcc.h **** __STATIC_FORCEINLINE void __enable_irq(void)
 130:Drivers/CMSIS/Include/cmsis_gcc.h **** {
 131:Drivers/CMSIS/Include/cmsis_gcc.h ****   __ASM volatile ("cpsie i" : : : "memory");
 132:Drivers/CMSIS/Include/cmsis_gcc.h **** }
 133:Drivers/CMSIS/Include/cmsis_gcc.h **** 
 134:Drivers/CMSIS/Include/cmsis_gcc.h **** 
 135:Drivers/CMSIS/Include/cmsis_gcc.h **** /**
 136:Drivers/CMSIS/Include/cmsis_gcc.h ****   \brief   Disable IRQ Interrupts
 137:Drivers/CMSIS/Include/cmsis_gcc.h ****   \details Disables IRQ interrupts by setting the I-bit in the CPSR.
 138:Drivers/CMSIS/Include/cmsis_gcc.h ****            Can only be executed in Privileged modes.
 139:Drivers/CMSIS/Include/cmsis_gcc.h ****  */
 140:Drivers/CMSIS/Include/cmsis_gcc.h **** __STATIC_FORCEINLINE void __disable_irq(void)
 278              		.loc 2 140 27 view .LVU54
 279              	.LBB6:
 141:Drivers/CMSIS/Include/cmsis_gcc.h **** {
 142:Drivers/CMSIS/Include/cmsis_gcc.h ****   __ASM volatile ("cpsid i" : : : "memory");
 280              		.loc 2 142 3 view .LVU55
 281              		.syntax unified
 282              	@ 142 "Drivers/CMSIS/Include/cmsis_gcc.h" 1
 283 0000 72B6     		cpsid i
 284              	@ 0 "" 2
 285              		.thumb
 286              		.syntax unified
 287              	.L24:
 288              	.LBE6:
 289              	.LBE5:
 403:Core/Src/main.c ****   while (1)
 290              		.loc 1 403 3 discriminator 1 view .LVU56
 404:Core/Src/main.c ****   {
 405:Core/Src/main.c ****   }
 291              		.loc 1 405 3 discriminator 1 view .LVU57
 403:Core/Src/main.c ****   while (1)
 292              		.loc 1 403 9 discriminator 1 view .LVU58
 293 0002 FEE7     		b	.L24
 294              		.cfi_endproc
 295              	.LFE74:
 297              		.section	.text.SystemClock_Config,"ax",%progbits
 298              		.align	1
 299              		.global	SystemClock_Config
 300              		.syntax unified
 301              		.thumb
 302              		.thumb_func
ARM GAS  C:\Users\Admin\AppData\Local\Temp\ccobVlDV.s 			page 16


 304              	SystemClock_Config:
 305              	.LFB73:
 347:Core/Src/main.c ****   RCC_OscInitTypeDef RCC_OscInitStruct = {0};
 306              		.loc 1 347 1 view -0
 307              		.cfi_startproc
 308              		@ args = 0, pretend = 0, frame = 88
 309              		@ frame_needed = 0, uses_anonymous_args = 0
 310 0000 00B5     		push	{lr}
 311              	.LCFI2:
 312              		.cfi_def_cfa_offset 4
 313              		.cfi_offset 14, -4
 314 0002 97B0     		sub	sp, sp, #92
 315              	.LCFI3:
 316              		.cfi_def_cfa_offset 96
 348:Core/Src/main.c ****   RCC_ClkInitTypeDef RCC_ClkInitStruct = {0};
 317              		.loc 1 348 3 view .LVU60
 348:Core/Src/main.c ****   RCC_ClkInitTypeDef RCC_ClkInitStruct = {0};
 318              		.loc 1 348 22 is_stmt 0 view .LVU61
 319 0004 2822     		movs	r2, #40
 320 0006 0021     		movs	r1, #0
 321 0008 0CA8     		add	r0, sp, #48
 322 000a FFF7FEFF 		bl	memset
 323              	.LVL17:
 349:Core/Src/main.c ****   RCC_PeriphCLKInitTypeDef PeriphClkInit = {0};
 324              		.loc 1 349 3 is_stmt 1 view .LVU62
 349:Core/Src/main.c ****   RCC_PeriphCLKInitTypeDef PeriphClkInit = {0};
 325              		.loc 1 349 22 is_stmt 0 view .LVU63
 326 000e 0023     		movs	r3, #0
 327 0010 0793     		str	r3, [sp, #28]
 328 0012 0893     		str	r3, [sp, #32]
 329 0014 0993     		str	r3, [sp, #36]
 330 0016 0A93     		str	r3, [sp, #40]
 331 0018 0B93     		str	r3, [sp, #44]
 350:Core/Src/main.c **** 
 332              		.loc 1 350 3 is_stmt 1 view .LVU64
 350:Core/Src/main.c **** 
 333              		.loc 1 350 28 is_stmt 0 view .LVU65
 334 001a 0193     		str	r3, [sp, #4]
 335 001c 0293     		str	r3, [sp, #8]
 336 001e 0393     		str	r3, [sp, #12]
 337 0020 0493     		str	r3, [sp, #16]
 338 0022 0593     		str	r3, [sp, #20]
 339 0024 0693     		str	r3, [sp, #24]
 355:Core/Src/main.c ****   RCC_OscInitStruct.HSEState = RCC_HSE_ON;
 340              		.loc 1 355 3 is_stmt 1 view .LVU66
 355:Core/Src/main.c ****   RCC_OscInitStruct.HSEState = RCC_HSE_ON;
 341              		.loc 1 355 36 is_stmt 0 view .LVU67
 342 0026 0923     		movs	r3, #9
 343 0028 0C93     		str	r3, [sp, #48]
 356:Core/Src/main.c ****   RCC_OscInitStruct.HSEPredivValue = RCC_HSE_PREDIV_DIV1;
 344              		.loc 1 356 3 is_stmt 1 view .LVU68
 356:Core/Src/main.c ****   RCC_OscInitStruct.HSEPredivValue = RCC_HSE_PREDIV_DIV1;
 345              		.loc 1 356 30 is_stmt 0 view .LVU69
 346 002a 4FF48033 		mov	r3, #65536
 347 002e 0D93     		str	r3, [sp, #52]
 357:Core/Src/main.c ****   RCC_OscInitStruct.HSIState = RCC_HSI_ON;
 348              		.loc 1 357 3 is_stmt 1 view .LVU70
ARM GAS  C:\Users\Admin\AppData\Local\Temp\ccobVlDV.s 			page 17


 358:Core/Src/main.c ****   RCC_OscInitStruct.LSIState = RCC_LSI_ON;
 349              		.loc 1 358 3 view .LVU71
 358:Core/Src/main.c ****   RCC_OscInitStruct.LSIState = RCC_LSI_ON;
 350              		.loc 1 358 30 is_stmt 0 view .LVU72
 351 0030 0122     		movs	r2, #1
 352 0032 1092     		str	r2, [sp, #64]
 359:Core/Src/main.c ****   RCC_OscInitStruct.PLL.PLLState = RCC_PLL_ON;
 353              		.loc 1 359 3 is_stmt 1 view .LVU73
 359:Core/Src/main.c ****   RCC_OscInitStruct.PLL.PLLState = RCC_PLL_ON;
 354              		.loc 1 359 30 is_stmt 0 view .LVU74
 355 0034 1292     		str	r2, [sp, #72]
 360:Core/Src/main.c ****   RCC_OscInitStruct.PLL.PLLSource = RCC_PLLSOURCE_HSE;
 356              		.loc 1 360 3 is_stmt 1 view .LVU75
 360:Core/Src/main.c ****   RCC_OscInitStruct.PLL.PLLSource = RCC_PLLSOURCE_HSE;
 357              		.loc 1 360 34 is_stmt 0 view .LVU76
 358 0036 0222     		movs	r2, #2
 359 0038 1392     		str	r2, [sp, #76]
 361:Core/Src/main.c ****   RCC_OscInitStruct.PLL.PLLMUL = RCC_PLL_MUL9;
 360              		.loc 1 361 3 is_stmt 1 view .LVU77
 361:Core/Src/main.c ****   RCC_OscInitStruct.PLL.PLLMUL = RCC_PLL_MUL9;
 361              		.loc 1 361 35 is_stmt 0 view .LVU78
 362 003a 1493     		str	r3, [sp, #80]
 362:Core/Src/main.c ****   if (HAL_RCC_OscConfig(&RCC_OscInitStruct) != HAL_OK)
 363              		.loc 1 362 3 is_stmt 1 view .LVU79
 362:Core/Src/main.c ****   if (HAL_RCC_OscConfig(&RCC_OscInitStruct) != HAL_OK)
 364              		.loc 1 362 32 is_stmt 0 view .LVU80
 365 003c 4FF4E013 		mov	r3, #1835008
 366 0040 1593     		str	r3, [sp, #84]
 363:Core/Src/main.c ****   {
 367              		.loc 1 363 3 is_stmt 1 view .LVU81
 363:Core/Src/main.c ****   {
 368              		.loc 1 363 7 is_stmt 0 view .LVU82
 369 0042 0CA8     		add	r0, sp, #48
 370 0044 FFF7FEFF 		bl	HAL_RCC_OscConfig
 371              	.LVL18:
 363:Core/Src/main.c ****   {
 372              		.loc 1 363 6 view .LVU83
 373 0048 E0B9     		cbnz	r0, .L30
 370:Core/Src/main.c ****                               |RCC_CLOCKTYPE_PCLK1|RCC_CLOCKTYPE_PCLK2;
 374              		.loc 1 370 3 is_stmt 1 view .LVU84
 370:Core/Src/main.c ****                               |RCC_CLOCKTYPE_PCLK1|RCC_CLOCKTYPE_PCLK2;
 375              		.loc 1 370 31 is_stmt 0 view .LVU85
 376 004a 0F23     		movs	r3, #15
 377 004c 0793     		str	r3, [sp, #28]
 372:Core/Src/main.c ****   RCC_ClkInitStruct.AHBCLKDivider = RCC_SYSCLK_DIV1;
 378              		.loc 1 372 3 is_stmt 1 view .LVU86
 372:Core/Src/main.c ****   RCC_ClkInitStruct.AHBCLKDivider = RCC_SYSCLK_DIV1;
 379              		.loc 1 372 34 is_stmt 0 view .LVU87
 380 004e 0221     		movs	r1, #2
 381 0050 0891     		str	r1, [sp, #32]
 373:Core/Src/main.c ****   RCC_ClkInitStruct.APB1CLKDivider = RCC_HCLK_DIV2;
 382              		.loc 1 373 3 is_stmt 1 view .LVU88
 373:Core/Src/main.c ****   RCC_ClkInitStruct.APB1CLKDivider = RCC_HCLK_DIV2;
 383              		.loc 1 373 35 is_stmt 0 view .LVU89
 384 0052 0023     		movs	r3, #0
 385 0054 0993     		str	r3, [sp, #36]
 374:Core/Src/main.c ****   RCC_ClkInitStruct.APB2CLKDivider = RCC_HCLK_DIV1;
ARM GAS  C:\Users\Admin\AppData\Local\Temp\ccobVlDV.s 			page 18


 386              		.loc 1 374 3 is_stmt 1 view .LVU90
 374:Core/Src/main.c ****   RCC_ClkInitStruct.APB2CLKDivider = RCC_HCLK_DIV1;
 387              		.loc 1 374 36 is_stmt 0 view .LVU91
 388 0056 4FF48062 		mov	r2, #1024
 389 005a 0A92     		str	r2, [sp, #40]
 375:Core/Src/main.c **** 
 390              		.loc 1 375 3 is_stmt 1 view .LVU92
 375:Core/Src/main.c **** 
 391              		.loc 1 375 36 is_stmt 0 view .LVU93
 392 005c 0B93     		str	r3, [sp, #44]
 377:Core/Src/main.c ****   {
 393              		.loc 1 377 3 is_stmt 1 view .LVU94
 377:Core/Src/main.c ****   {
 394              		.loc 1 377 7 is_stmt 0 view .LVU95
 395 005e 07A8     		add	r0, sp, #28
 396 0060 FFF7FEFF 		bl	HAL_RCC_ClockConfig
 397              	.LVL19:
 377:Core/Src/main.c ****   {
 398              		.loc 1 377 6 view .LVU96
 399 0064 80B9     		cbnz	r0, .L31
 381:Core/Src/main.c ****   PeriphClkInit.RTCClockSelection = RCC_RTCCLKSOURCE_LSI;
 400              		.loc 1 381 3 is_stmt 1 view .LVU97
 381:Core/Src/main.c ****   PeriphClkInit.RTCClockSelection = RCC_RTCCLKSOURCE_LSI;
 401              		.loc 1 381 38 is_stmt 0 view .LVU98
 402 0066 0323     		movs	r3, #3
 403 0068 0193     		str	r3, [sp, #4]
 382:Core/Src/main.c ****   PeriphClkInit.AdcClockSelection = RCC_ADCPCLK2_DIV6;
 404              		.loc 1 382 3 is_stmt 1 view .LVU99
 382:Core/Src/main.c ****   PeriphClkInit.AdcClockSelection = RCC_ADCPCLK2_DIV6;
 405              		.loc 1 382 35 is_stmt 0 view .LVU100
 406 006a 4FF40073 		mov	r3, #512
 407 006e 0293     		str	r3, [sp, #8]
 383:Core/Src/main.c ****   if (HAL_RCCEx_PeriphCLKConfig(&PeriphClkInit) != HAL_OK)
 408              		.loc 1 383 3 is_stmt 1 view .LVU101
 383:Core/Src/main.c ****   if (HAL_RCCEx_PeriphCLKConfig(&PeriphClkInit) != HAL_OK)
 409              		.loc 1 383 35 is_stmt 0 view .LVU102
 410 0070 4FF40043 		mov	r3, #32768
 411 0074 0393     		str	r3, [sp, #12]
 384:Core/Src/main.c ****   {
 412              		.loc 1 384 3 is_stmt 1 view .LVU103
 384:Core/Src/main.c ****   {
 413              		.loc 1 384 7 is_stmt 0 view .LVU104
 414 0076 01A8     		add	r0, sp, #4
 415 0078 FFF7FEFF 		bl	HAL_RCCEx_PeriphCLKConfig
 416              	.LVL20:
 384:Core/Src/main.c ****   {
 417              		.loc 1 384 6 view .LVU105
 418 007c 30B9     		cbnz	r0, .L32
 388:Core/Src/main.c **** 
 419              		.loc 1 388 1 view .LVU106
 420 007e 17B0     		add	sp, sp, #92
 421              	.LCFI4:
 422              		.cfi_remember_state
 423              		.cfi_def_cfa_offset 4
 424              		@ sp needed
 425 0080 5DF804FB 		ldr	pc, [sp], #4
 426              	.L30:
ARM GAS  C:\Users\Admin\AppData\Local\Temp\ccobVlDV.s 			page 19


 427              	.LCFI5:
 428              		.cfi_restore_state
 365:Core/Src/main.c ****   }
 429              		.loc 1 365 5 is_stmt 1 view .LVU107
 430 0084 FFF7FEFF 		bl	Error_Handler
 431              	.LVL21:
 432              	.L31:
 379:Core/Src/main.c ****   }
 433              		.loc 1 379 5 view .LVU108
 434 0088 FFF7FEFF 		bl	Error_Handler
 435              	.LVL22:
 436              	.L32:
 386:Core/Src/main.c ****   }
 437              		.loc 1 386 5 view .LVU109
 438 008c FFF7FEFF 		bl	Error_Handler
 439              	.LVL23:
 440              		.cfi_endproc
 441              	.LFE73:
 443              		.section	.rodata.main.str1.4,"aMS",%progbits,1
 444              		.align	2
 445              	.LC0:
 446 0000 0A475348 		.ascii	"\012GSHT START\012\000"
 446      54205354 
 446      4152540A 
 446      00
 447              		.section	.text.main,"ax",%progbits
 448              		.align	1
 449              		.global	main
 450              		.syntax unified
 451              		.thumb
 452              		.thumb_func
 454              	main:
 455              	.LFB72:
 210:Core/Src/main.c ****   /* USER CODE BEGIN 1 */
 456              		.loc 1 210 1 view -0
 457              		.cfi_startproc
 458              		@ Volatile: function does not return.
 459              		@ args = 0, pretend = 0, frame = 0
 460              		@ frame_needed = 0, uses_anonymous_args = 0
 461 0000 08B5     		push	{r3, lr}
 462              	.LCFI6:
 463              		.cfi_def_cfa_offset 8
 464              		.cfi_offset 3, -8
 465              		.cfi_offset 14, -4
 218:Core/Src/main.c **** 
 466              		.loc 1 218 3 view .LVU111
 467 0002 FFF7FEFF 		bl	HAL_Init
 468              	.LVL24:
 225:Core/Src/main.c **** 
 469              		.loc 1 225 3 view .LVU112
 470 0006 FFF7FEFF 		bl	SystemClock_Config
 471              	.LVL25:
 232:Core/Src/main.c ****   MX_ADC1_Init();
 472              		.loc 1 232 3 view .LVU113
 473 000a FFF7FEFF 		bl	MX_GPIO_Init
 474              	.LVL26:
 233:Core/Src/main.c ****   MX_SPI1_Init();
ARM GAS  C:\Users\Admin\AppData\Local\Temp\ccobVlDV.s 			page 20


 475              		.loc 1 233 3 view .LVU114
 476 000e FFF7FEFF 		bl	MX_ADC1_Init
 477              	.LVL27:
 234:Core/Src/main.c ****   MX_ADC2_Init();
 478              		.loc 1 234 3 view .LVU115
 479 0012 FFF7FEFF 		bl	MX_SPI1_Init
 480              	.LVL28:
 235:Core/Src/main.c ****   MX_TIM1_Init();
 481              		.loc 1 235 3 view .LVU116
 482 0016 FFF7FEFF 		bl	MX_ADC2_Init
 483              	.LVL29:
 236:Core/Src/main.c ****   MX_UART5_Init();
 484              		.loc 1 236 3 view .LVU117
 485 001a FFF7FEFF 		bl	MX_TIM1_Init
 486              	.LVL30:
 237:Core/Src/main.c ****   MX_I2C1_Init();
 487              		.loc 1 237 3 view .LVU118
 488 001e FFF7FEFF 		bl	MX_UART5_Init
 489              	.LVL31:
 238:Core/Src/main.c ****   MX_SPI2_Init();
 490              		.loc 1 238 3 view .LVU119
 491 0022 FFF7FEFF 		bl	MX_I2C1_Init
 492              	.LVL32:
 239:Core/Src/main.c ****   MX_SPI3_Init();
 493              		.loc 1 239 3 view .LVU120
 494 0026 FFF7FEFF 		bl	MX_SPI2_Init
 495              	.LVL33:
 240:Core/Src/main.c ****   MX_UART4_Init();
 496              		.loc 1 240 3 view .LVU121
 497 002a FFF7FEFF 		bl	MX_SPI3_Init
 498              	.LVL34:
 241:Core/Src/main.c ****   MX_USART1_UART_Init();
 499              		.loc 1 241 3 view .LVU122
 500 002e FFF7FEFF 		bl	MX_UART4_Init
 501              	.LVL35:
 242:Core/Src/main.c ****   MX_USART2_UART_Init();
 502              		.loc 1 242 3 view .LVU123
 503 0032 FFF7FEFF 		bl	MX_USART1_UART_Init
 504              	.LVL36:
 243:Core/Src/main.c ****   MX_TIM2_Init();
 505              		.loc 1 243 3 view .LVU124
 506 0036 FFF7FEFF 		bl	MX_USART2_UART_Init
 507              	.LVL37:
 244:Core/Src/main.c ****   MX_TIM3_Init();
 508              		.loc 1 244 3 view .LVU125
 509 003a FFF7FEFF 		bl	MX_TIM2_Init
 510              	.LVL38:
 245:Core/Src/main.c ****   MX_RTC_Init();
 511              		.loc 1 245 3 view .LVU126
 512 003e FFF7FEFF 		bl	MX_TIM3_Init
 513              	.LVL39:
 246:Core/Src/main.c ****   MX_FATFS_Init();
 514              		.loc 1 246 3 view .LVU127
 515 0042 FFF7FEFF 		bl	MX_RTC_Init
 516              	.LVL40:
 247:Core/Src/main.c ****   /* USER CODE BEGIN 2 */
 517              		.loc 1 247 3 view .LVU128
ARM GAS  C:\Users\Admin\AppData\Local\Temp\ccobVlDV.s 			page 21


 518 0046 FFF7FEFF 		bl	MX_FATFS_Init
 519              	.LVL41:
 249:Core/Src/main.c **** #if SIM
 520              		.loc 1 249 3 view .LVU129
 521 004a 0B48     		ldr	r0, .L36
 522 004c FFF7FEFF 		bl	log_data
 523              	.LVL42:
 265:Core/Src/main.c ****   l70_init();
 524              		.loc 1 265 3 view .LVU130
 525 0050 FFF7FEFF 		bl	sim7672_pwrOff
 526              	.LVL43:
 266:Core/Src/main.c ****   HAL_Delay(1000);
 527              		.loc 1 266 3 view .LVU131
 528 0054 FFF7FEFF 		bl	l70_init
 529              	.LVL44:
 267:Core/Src/main.c **** #endif
 530              		.loc 1 267 3 view .LVU132
 531 0058 4FF47A70 		mov	r0, #1000
 532 005c FFF7FEFF 		bl	HAL_Delay
 533              	.LVL45:
 534              	.L34:
 324:Core/Src/main.c ****   {
 535              		.loc 1 324 3 discriminator 1 view .LVU133
 331:Core/Src/main.c ****     l70_handleGPS(GPSResponse);
 536              		.loc 1 331 5 discriminator 1 view .LVU134
 331:Core/Src/main.c ****     l70_handleGPS(GPSResponse);
 537              		.loc 1 331 19 is_stmt 0 discriminator 1 view .LVU135
 538 0060 FFF7FEFF 		bl	l70_receiveGPS
 539              	.LVL46:
 331:Core/Src/main.c ****     l70_handleGPS(GPSResponse);
 540              		.loc 1 331 17 discriminator 1 view .LVU136
 541 0064 054B     		ldr	r3, .L36+4
 542 0066 1860     		str	r0, [r3]
 332:Core/Src/main.c ****     HAL_Delay(2000);
 543              		.loc 1 332 5 is_stmt 1 discriminator 1 view .LVU137
 544 0068 FFF7FEFF 		bl	l70_handleGPS
 545              	.LVL47:
 333:Core/Src/main.c ****     #endif
 546              		.loc 1 333 5 discriminator 1 view .LVU138
 547 006c 4FF4FA60 		mov	r0, #2000
 548 0070 FFF7FEFF 		bl	HAL_Delay
 549              	.LVL48:
 324:Core/Src/main.c ****   {
 550              		.loc 1 324 9 discriminator 1 view .LVU139
 551 0074 F4E7     		b	.L34
 552              	.L37:
 553 0076 00BF     		.align	2
 554              	.L36:
 555 0078 00000000 		.word	.LC0
 556 007c 00000000 		.word	.LANCHOR6
 557              		.cfi_endproc
 558              	.LFE72:
 560              		.global	free_space
 561              		.global	total
 562              		.global	fre_clust
 563              		.global	pfs
 564              		.global	bw
ARM GAS  C:\Users\Admin\AppData\Local\Temp\ccobVlDV.s 			page 22


 565              		.global	br
 566              		.global	SD_file_name
 567              		.global	SD_buffer_r
 568              		.global	SD_buffer_w
 569              		.global	fresult
 570              		.global	fil
 571              		.global	fs
 572              		.global	gnss_str
 573              		.global	l70Data1
 574              		.global	simMessage
 575              		.global	longData
 576              		.global	latData
 577              		.global	GPSResponse
 578              		.global	k1
 579              		.global	buffchar
 580              		.global	buftest
 581              		.global	check
 582              		.global	year
 583              		.global	month
 584              		.global	day
 585              		.global	date
 586              		.global	hour
 587              		.global	minute
 588              		.global	sencond
 589              		.global	sAlarm
 590              		.global	sDate
 591              		.global	sTime
 592              		.global	Vehical_veloc
 593              		.global	last_time
 594              		.global	current_time
 595              		.global	Vehical_State
 596              		.global	npn_count
 597              		.global	npn_flag_check
 598              		.global	szBuff
 599              		.global	CardID
 600              		.section	.bss.CardID,"aw",%nobits
 601              		.align	2
 604              	CardID:
 605 0000 00000000 		.space	5
 605      00
 606              		.section	.bss.GPSResponse,"aw",%nobits
 607              		.align	2
 608              		.set	.LANCHOR6,. + 0
 611              	GPSResponse:
 612 0000 00000000 		.space	4
 613              		.section	.bss.SD_buffer_r,"aw",%nobits
 614              		.align	2
 617              	SD_buffer_r:
 618 0000 00000000 		.space	10224
 618      00000000 
 618      00000000 
 618      00000000 
 618      00000000 
 619              		.section	.bss.SD_buffer_w,"aw",%nobits
 620              		.align	2
 623              	SD_buffer_w:
 624 0000 00000000 		.space	1024
ARM GAS  C:\Users\Admin\AppData\Local\Temp\ccobVlDV.s 			page 23


 624      00000000 
 624      00000000 
 624      00000000 
 624      00000000 
 625              		.section	.bss.SD_file_name,"aw",%nobits
 626              		.align	2
 629              	SD_file_name:
 630 0000 00000000 		.space	50
 630      00000000 
 630      00000000 
 630      00000000 
 630      00000000 
 631              		.section	.bss.Vehical_State,"aw",%nobits
 632              		.align	2
 633              		.set	.LANCHOR2,. + 0
 636              	Vehical_State:
 637 0000 00000000 		.space	4
 638              		.section	.bss.Vehical_veloc,"aw",%nobits
 639              		.align	2
 640              		.set	.LANCHOR5,. + 0
 643              	Vehical_veloc:
 644 0000 00000000 		.space	4
 645              		.section	.bss.br,"aw",%nobits
 646              		.align	2
 649              	br:
 650 0000 00000000 		.space	4
 651              		.section	.bss.buffchar,"aw",%nobits
 654              	buffchar:
 655 0000 00       		.space	1
 656              		.section	.bss.buftest,"aw",%nobits
 657              		.align	2
 660              	buftest:
 661 0000 00000000 		.space	100
 661      00000000 
 661      00000000 
 661      00000000 
 661      00000000 
 662              		.section	.bss.bw,"aw",%nobits
 663              		.align	2
 666              	bw:
 667 0000 00000000 		.space	4
 668              		.section	.bss.check,"aw",%nobits
 669              		.align	2
 672              	check:
 673 0000 00000000 		.space	4
 674              		.section	.bss.current_time,"aw",%nobits
 675              		.align	2
 676              		.set	.LANCHOR0,. + 0
 679              	current_time:
 680 0000 00000000 		.space	4
 681              		.section	.bss.date,"aw",%nobits
 684              	date:
 685 0000 00       		.space	1
 686              		.section	.bss.day,"aw",%nobits
 689              	day:
 690 0000 00       		.space	1
 691              		.section	.bss.fil,"aw",%nobits
ARM GAS  C:\Users\Admin\AppData\Local\Temp\ccobVlDV.s 			page 24


 692              		.align	2
 695              	fil:
 696 0000 00000000 		.space	4140
 696      00000000 
 696      00000000 
 696      00000000 
 696      00000000 
 697              		.section	.bss.fre_clust,"aw",%nobits
 698              		.align	2
 701              	fre_clust:
 702 0000 00000000 		.space	4
 703              		.section	.bss.free_space,"aw",%nobits
 704              		.align	2
 707              	free_space:
 708 0000 00000000 		.space	4
 709              		.section	.bss.fresult,"aw",%nobits
 712              	fresult:
 713 0000 00       		.space	1
 714              		.section	.bss.fs,"aw",%nobits
 715              		.align	2
 718              	fs:
 719 0000 00000000 		.space	4144
 719      00000000 
 719      00000000 
 719      00000000 
 719      00000000 
 720              		.section	.bss.gnss_str,"aw",%nobits
 721              		.align	2
 724              	gnss_str:
 725 0000 00000000 		.space	100
 725      00000000 
 725      00000000 
 725      00000000 
 725      00000000 
 726              		.section	.bss.hour,"aw",%nobits
 729              	hour:
 730 0000 00       		.space	1
 731              		.section	.bss.k1,"aw",%nobits
 732              		.align	2
 735              	k1:
 736 0000 00000000 		.space	4
 737              		.section	.bss.l70Data1,"aw",%nobits
 740              	l70Data1:
 741 0000 00       		.space	1
 742              		.section	.bss.last_time,"aw",%nobits
 743              		.align	2
 744              		.set	.LANCHOR4,. + 0
 747              	last_time:
 748 0000 00000000 		.space	4
 749              		.section	.bss.latData,"aw",%nobits
 750              		.align	2
 753              	latData:
 754 0000 00000000 		.space	15
 754      00000000 
 754      00000000 
 754      000000
 755              		.section	.bss.longData,"aw",%nobits
ARM GAS  C:\Users\Admin\AppData\Local\Temp\ccobVlDV.s 			page 25


 756              		.align	2
 759              	longData:
 760 0000 00000000 		.space	15
 760      00000000 
 760      00000000 
 760      000000
 761              		.section	.bss.minute,"aw",%nobits
 764              	minute:
 765 0000 00       		.space	1
 766              		.section	.bss.month,"aw",%nobits
 769              	month:
 770 0000 00       		.space	1
 771              		.section	.bss.npn_count,"aw",%nobits
 772              		.align	2
 773              		.set	.LANCHOR3,. + 0
 776              	npn_count:
 777 0000 00000000 		.space	4
 778              		.section	.bss.pfs,"aw",%nobits
 779              		.align	2
 782              	pfs:
 783 0000 00000000 		.space	4
 784              		.section	.bss.sAlarm,"aw",%nobits
 785              		.align	2
 788              	sAlarm:
 789 0000 00000000 		.space	8
 789      00000000 
 790              		.section	.bss.sDate,"aw",%nobits
 791              		.align	2
 794              	sDate:
 795 0000 00000000 		.space	4
 796              		.section	.bss.sTime,"aw",%nobits
 797              		.align	2
 800              	sTime:
 801 0000 000000   		.space	3
 802              		.section	.bss.sencond,"aw",%nobits
 805              	sencond:
 806 0000 00       		.space	1
 807              		.section	.bss.simMessage,"aw",%nobits
 808              		.align	2
 811              	simMessage:
 812 0000 00000000 		.space	200
 812      00000000 
 812      00000000 
 812      00000000 
 812      00000000 
 813              		.section	.bss.szBuff,"aw",%nobits
 814              		.align	2
 817              	szBuff:
 818 0000 00000000 		.space	20
 818      00000000 
 818      00000000 
 818      00000000 
 818      00000000 
 819              		.section	.bss.total,"aw",%nobits
 820              		.align	2
 823              	total:
 824 0000 00000000 		.space	4
ARM GAS  C:\Users\Admin\AppData\Local\Temp\ccobVlDV.s 			page 26


 825              		.section	.bss.year,"aw",%nobits
 828              	year:
 829 0000 00       		.space	1
 830              		.section	.data.npn_flag_check,"aw"
 831              		.align	2
 832              		.set	.LANCHOR1,. + 0
 835              	npn_flag_check:
 836 0000 01000000 		.word	1
 837              		.text
 838              	.Letext0:
 839              		.file 3 "d:\\10 2021.10\\arm-none-eabi\\include\\machine\\_default_types.h"
 840              		.file 4 "d:\\10 2021.10\\arm-none-eabi\\include\\sys\\_stdint.h"
 841              		.file 5 "Drivers/CMSIS/Device/ST/STM32F1xx/Include/stm32f103xe.h"
 842              		.file 6 "Drivers/STM32F1xx_HAL_Driver/Inc/stm32f1xx_hal_def.h"
 843              		.file 7 "Drivers/STM32F1xx_HAL_Driver/Inc/stm32f1xx_hal_rcc.h"
 844              		.file 8 "Drivers/STM32F1xx_HAL_Driver/Inc/stm32f1xx_hal_rcc_ex.h"
 845              		.file 9 "Drivers/STM32F1xx_HAL_Driver/Inc/stm32f1xx_hal_dma.h"
 846              		.file 10 "Drivers/STM32F1xx_HAL_Driver/Inc/stm32f1xx_hal_rtc.h"
 847              		.file 11 "Drivers/STM32F1xx_HAL_Driver/Inc/stm32f1xx_hal_tim.h"
 848              		.file 12 "Drivers/STM32F1xx_HAL_Driver/Inc/stm32f1xx_hal_uart.h"
 849              		.file 13 "Middlewares/Third_Party/FatFs/src/integer.h"
 850              		.file 14 "Middlewares/Third_Party/FatFs/src/ff.h"
 851              		.file 15 "Core/Inc/tim.h"
 852              		.file 16 "Core/Inc/usart.h"
 853              		.file 17 "Drivers/STM32F1xx_HAL_Driver/Inc/stm32f1xx_hal.h"
 854              		.file 18 "Core/Inc/gpio.h"
 855              		.file 19 "Core/Inc/adc.h"
 856              		.file 20 "Core/Inc/spi.h"
 857              		.file 21 "Core/Inc/i2c.h"
 858              		.file 22 "Core/Inc/rtc.h"
 859              		.file 23 "FATFS/App/fatfs.h"
 860              		.file 24 "Core/Inc/debug.h"
 861              		.file 25 "Core/Inc/sim4g_lte.h"
 862              		.file 26 "Core/Inc/gnss.h"
 863              		.file 27 "<built-in>"
ARM GAS  C:\Users\Admin\AppData\Local\Temp\ccobVlDV.s 			page 27


DEFINED SYMBOLS
                            *ABS*:00000000 main.c
C:\Users\Admin\AppData\Local\Temp\ccobVlDV.s:18     .text.set_timer:00000000 $t
C:\Users\Admin\AppData\Local\Temp\ccobVlDV.s:24     .text.set_timer:00000000 set_timer
C:\Users\Admin\AppData\Local\Temp\ccobVlDV.s:46     .text.set_timer:00000014 $d
C:\Users\Admin\AppData\Local\Temp\ccobVlDV.s:51     .text.HAL_UART_RxCpltCallback:00000000 $t
C:\Users\Admin\AppData\Local\Temp\ccobVlDV.s:57     .text.HAL_UART_RxCpltCallback:00000000 HAL_UART_RxCpltCallback
C:\Users\Admin\AppData\Local\Temp\ccobVlDV.s:102    .text.HAL_UART_RxCpltCallback:00000020 $d
C:\Users\Admin\AppData\Local\Temp\ccobVlDV.s:111    .text.HAL_GPIO_EXTI_Callback:00000000 $t
C:\Users\Admin\AppData\Local\Temp\ccobVlDV.s:117    .text.HAL_GPIO_EXTI_Callback:00000000 HAL_GPIO_EXTI_Callback
C:\Users\Admin\AppData\Local\Temp\ccobVlDV.s:200    .text.HAL_GPIO_EXTI_Callback:00000050 $d
C:\Users\Admin\AppData\Local\Temp\ccobVlDV.s:213    .text.HAL_TIM_PeriodElapsedCallback:00000000 $t
C:\Users\Admin\AppData\Local\Temp\ccobVlDV.s:219    .text.HAL_TIM_PeriodElapsedCallback:00000000 HAL_TIM_PeriodElapsedCallback
C:\Users\Admin\AppData\Local\Temp\ccobVlDV.s:253    .text.HAL_TIM_PeriodElapsedCallback:00000018 $d
C:\Users\Admin\AppData\Local\Temp\ccobVlDV.s:260    .text.Error_Handler:00000000 $t
C:\Users\Admin\AppData\Local\Temp\ccobVlDV.s:266    .text.Error_Handler:00000000 Error_Handler
C:\Users\Admin\AppData\Local\Temp\ccobVlDV.s:298    .text.SystemClock_Config:00000000 $t
C:\Users\Admin\AppData\Local\Temp\ccobVlDV.s:304    .text.SystemClock_Config:00000000 SystemClock_Config
C:\Users\Admin\AppData\Local\Temp\ccobVlDV.s:444    .rodata.main.str1.4:00000000 $d
C:\Users\Admin\AppData\Local\Temp\ccobVlDV.s:448    .text.main:00000000 $t
C:\Users\Admin\AppData\Local\Temp\ccobVlDV.s:454    .text.main:00000000 main
C:\Users\Admin\AppData\Local\Temp\ccobVlDV.s:555    .text.main:00000078 $d
C:\Users\Admin\AppData\Local\Temp\ccobVlDV.s:707    .bss.free_space:00000000 free_space
C:\Users\Admin\AppData\Local\Temp\ccobVlDV.s:823    .bss.total:00000000 total
C:\Users\Admin\AppData\Local\Temp\ccobVlDV.s:701    .bss.fre_clust:00000000 fre_clust
C:\Users\Admin\AppData\Local\Temp\ccobVlDV.s:782    .bss.pfs:00000000 pfs
C:\Users\Admin\AppData\Local\Temp\ccobVlDV.s:666    .bss.bw:00000000 bw
C:\Users\Admin\AppData\Local\Temp\ccobVlDV.s:649    .bss.br:00000000 br
C:\Users\Admin\AppData\Local\Temp\ccobVlDV.s:629    .bss.SD_file_name:00000000 SD_file_name
C:\Users\Admin\AppData\Local\Temp\ccobVlDV.s:617    .bss.SD_buffer_r:00000000 SD_buffer_r
C:\Users\Admin\AppData\Local\Temp\ccobVlDV.s:623    .bss.SD_buffer_w:00000000 SD_buffer_w
C:\Users\Admin\AppData\Local\Temp\ccobVlDV.s:712    .bss.fresult:00000000 fresult
C:\Users\Admin\AppData\Local\Temp\ccobVlDV.s:695    .bss.fil:00000000 fil
C:\Users\Admin\AppData\Local\Temp\ccobVlDV.s:718    .bss.fs:00000000 fs
C:\Users\Admin\AppData\Local\Temp\ccobVlDV.s:724    .bss.gnss_str:00000000 gnss_str
C:\Users\Admin\AppData\Local\Temp\ccobVlDV.s:740    .bss.l70Data1:00000000 l70Data1
C:\Users\Admin\AppData\Local\Temp\ccobVlDV.s:811    .bss.simMessage:00000000 simMessage
C:\Users\Admin\AppData\Local\Temp\ccobVlDV.s:759    .bss.longData:00000000 longData
C:\Users\Admin\AppData\Local\Temp\ccobVlDV.s:753    .bss.latData:00000000 latData
C:\Users\Admin\AppData\Local\Temp\ccobVlDV.s:611    .bss.GPSResponse:00000000 GPSResponse
C:\Users\Admin\AppData\Local\Temp\ccobVlDV.s:735    .bss.k1:00000000 k1
C:\Users\Admin\AppData\Local\Temp\ccobVlDV.s:654    .bss.buffchar:00000000 buffchar
C:\Users\Admin\AppData\Local\Temp\ccobVlDV.s:660    .bss.buftest:00000000 buftest
C:\Users\Admin\AppData\Local\Temp\ccobVlDV.s:672    .bss.check:00000000 check
C:\Users\Admin\AppData\Local\Temp\ccobVlDV.s:828    .bss.year:00000000 year
C:\Users\Admin\AppData\Local\Temp\ccobVlDV.s:769    .bss.month:00000000 month
C:\Users\Admin\AppData\Local\Temp\ccobVlDV.s:689    .bss.day:00000000 day
C:\Users\Admin\AppData\Local\Temp\ccobVlDV.s:684    .bss.date:00000000 date
C:\Users\Admin\AppData\Local\Temp\ccobVlDV.s:729    .bss.hour:00000000 hour
C:\Users\Admin\AppData\Local\Temp\ccobVlDV.s:764    .bss.minute:00000000 minute
C:\Users\Admin\AppData\Local\Temp\ccobVlDV.s:805    .bss.sencond:00000000 sencond
C:\Users\Admin\AppData\Local\Temp\ccobVlDV.s:788    .bss.sAlarm:00000000 sAlarm
C:\Users\Admin\AppData\Local\Temp\ccobVlDV.s:794    .bss.sDate:00000000 sDate
C:\Users\Admin\AppData\Local\Temp\ccobVlDV.s:800    .bss.sTime:00000000 sTime
C:\Users\Admin\AppData\Local\Temp\ccobVlDV.s:643    .bss.Vehical_veloc:00000000 Vehical_veloc
C:\Users\Admin\AppData\Local\Temp\ccobVlDV.s:747    .bss.last_time:00000000 last_time
C:\Users\Admin\AppData\Local\Temp\ccobVlDV.s:679    .bss.current_time:00000000 current_time
ARM GAS  C:\Users\Admin\AppData\Local\Temp\ccobVlDV.s 			page 28


C:\Users\Admin\AppData\Local\Temp\ccobVlDV.s:636    .bss.Vehical_State:00000000 Vehical_State
C:\Users\Admin\AppData\Local\Temp\ccobVlDV.s:776    .bss.npn_count:00000000 npn_count
C:\Users\Admin\AppData\Local\Temp\ccobVlDV.s:835    .data.npn_flag_check:00000000 npn_flag_check
C:\Users\Admin\AppData\Local\Temp\ccobVlDV.s:817    .bss.szBuff:00000000 szBuff
C:\Users\Admin\AppData\Local\Temp\ccobVlDV.s:604    .bss.CardID:00000000 CardID
C:\Users\Admin\AppData\Local\Temp\ccobVlDV.s:601    .bss.CardID:00000000 $d
C:\Users\Admin\AppData\Local\Temp\ccobVlDV.s:607    .bss.GPSResponse:00000000 $d
C:\Users\Admin\AppData\Local\Temp\ccobVlDV.s:614    .bss.SD_buffer_r:00000000 $d
C:\Users\Admin\AppData\Local\Temp\ccobVlDV.s:620    .bss.SD_buffer_w:00000000 $d
C:\Users\Admin\AppData\Local\Temp\ccobVlDV.s:626    .bss.SD_file_name:00000000 $d
C:\Users\Admin\AppData\Local\Temp\ccobVlDV.s:632    .bss.Vehical_State:00000000 $d
C:\Users\Admin\AppData\Local\Temp\ccobVlDV.s:639    .bss.Vehical_veloc:00000000 $d
C:\Users\Admin\AppData\Local\Temp\ccobVlDV.s:646    .bss.br:00000000 $d
C:\Users\Admin\AppData\Local\Temp\ccobVlDV.s:655    .bss.buffchar:00000000 $d
C:\Users\Admin\AppData\Local\Temp\ccobVlDV.s:657    .bss.buftest:00000000 $d
C:\Users\Admin\AppData\Local\Temp\ccobVlDV.s:663    .bss.bw:00000000 $d
C:\Users\Admin\AppData\Local\Temp\ccobVlDV.s:669    .bss.check:00000000 $d
C:\Users\Admin\AppData\Local\Temp\ccobVlDV.s:675    .bss.current_time:00000000 $d
C:\Users\Admin\AppData\Local\Temp\ccobVlDV.s:685    .bss.date:00000000 $d
C:\Users\Admin\AppData\Local\Temp\ccobVlDV.s:690    .bss.day:00000000 $d
C:\Users\Admin\AppData\Local\Temp\ccobVlDV.s:692    .bss.fil:00000000 $d
C:\Users\Admin\AppData\Local\Temp\ccobVlDV.s:698    .bss.fre_clust:00000000 $d
C:\Users\Admin\AppData\Local\Temp\ccobVlDV.s:704    .bss.free_space:00000000 $d
C:\Users\Admin\AppData\Local\Temp\ccobVlDV.s:713    .bss.fresult:00000000 $d
C:\Users\Admin\AppData\Local\Temp\ccobVlDV.s:715    .bss.fs:00000000 $d
C:\Users\Admin\AppData\Local\Temp\ccobVlDV.s:721    .bss.gnss_str:00000000 $d
C:\Users\Admin\AppData\Local\Temp\ccobVlDV.s:730    .bss.hour:00000000 $d
C:\Users\Admin\AppData\Local\Temp\ccobVlDV.s:732    .bss.k1:00000000 $d
C:\Users\Admin\AppData\Local\Temp\ccobVlDV.s:741    .bss.l70Data1:00000000 $d
C:\Users\Admin\AppData\Local\Temp\ccobVlDV.s:743    .bss.last_time:00000000 $d
C:\Users\Admin\AppData\Local\Temp\ccobVlDV.s:750    .bss.latData:00000000 $d
C:\Users\Admin\AppData\Local\Temp\ccobVlDV.s:756    .bss.longData:00000000 $d
C:\Users\Admin\AppData\Local\Temp\ccobVlDV.s:765    .bss.minute:00000000 $d
C:\Users\Admin\AppData\Local\Temp\ccobVlDV.s:770    .bss.month:00000000 $d
C:\Users\Admin\AppData\Local\Temp\ccobVlDV.s:772    .bss.npn_count:00000000 $d
C:\Users\Admin\AppData\Local\Temp\ccobVlDV.s:779    .bss.pfs:00000000 $d
C:\Users\Admin\AppData\Local\Temp\ccobVlDV.s:785    .bss.sAlarm:00000000 $d
C:\Users\Admin\AppData\Local\Temp\ccobVlDV.s:791    .bss.sDate:00000000 $d
C:\Users\Admin\AppData\Local\Temp\ccobVlDV.s:797    .bss.sTime:00000000 $d
C:\Users\Admin\AppData\Local\Temp\ccobVlDV.s:806    .bss.sencond:00000000 $d
C:\Users\Admin\AppData\Local\Temp\ccobVlDV.s:808    .bss.simMessage:00000000 $d
C:\Users\Admin\AppData\Local\Temp\ccobVlDV.s:814    .bss.szBuff:00000000 $d
C:\Users\Admin\AppData\Local\Temp\ccobVlDV.s:820    .bss.total:00000000 $d
C:\Users\Admin\AppData\Local\Temp\ccobVlDV.s:829    .bss.year:00000000 $d
C:\Users\Admin\AppData\Local\Temp\ccobVlDV.s:831    .data.npn_flag_check:00000000 $d

UNDEFINED SYMBOLS
sim7672_callback
l70_callback
huart1
huart4
__aeabi_ui2f
__aeabi_fsub
__aeabi_fdiv
HAL_TIM_Base_Stop
HAL_GetTick
HAL_TIM_Base_Start_IT
ARM GAS  C:\Users\Admin\AppData\Local\Temp\ccobVlDV.s 			page 29


htim2
memset
HAL_RCC_OscConfig
HAL_RCC_ClockConfig
HAL_RCCEx_PeriphCLKConfig
HAL_Init
MX_GPIO_Init
MX_ADC1_Init
MX_SPI1_Init
MX_ADC2_Init
MX_TIM1_Init
MX_UART5_Init
MX_I2C1_Init
MX_SPI2_Init
MX_SPI3_Init
MX_UART4_Init
MX_USART1_UART_Init
MX_USART2_UART_Init
MX_TIM2_Init
MX_TIM3_Init
MX_RTC_Init
MX_FATFS_Init
log_data
sim7672_pwrOff
l70_init
HAL_Delay
l70_receiveGPS
l70_handleGPS
