ARM GAS  C:\Users\Admin\AppData\Local\Temp\ccfo34X2.s 			page 1


   1              		.cpu cortex-m3
   2              		.arch armv7-m
   3              		.fpu softvfp
   4              		.eabi_attribute 20, 1
   5              		.eabi_attribute 21, 1
   6              		.eabi_attribute 23, 3
   7              		.eabi_attribute 24, 1
   8              		.eabi_attribute 25, 1
   9              		.eabi_attribute 26, 1
  10              		.eabi_attribute 30, 1
  11              		.eabi_attribute 34, 1
  12              		.eabi_attribute 18, 4
  13              		.file	"sensors.c"
  14              		.text
  15              	.Ltext0:
  16              		.cfi_sections	.debug_frame
  17              		.section	.text.delay,"ax",%progbits
  18              		.align	1
  19              		.global	delay
  20              		.syntax unified
  21              		.thumb
  22              		.thumb_func
  24              	delay:
  25              	.LVL0:
  26              	.LFB68:
  27              		.file 1 "Core/Src/sensors.c"
   1:Core/Src/sensors.c **** #include "sensors.h"
   2:Core/Src/sensors.c **** 
   3:Core/Src/sensors.c **** 
   4:Core/Src/sensors.c **** 
   5:Core/Src/sensors.c **** enum State
   6:Core/Src/sensors.c **** {
   7:Core/Src/sensors.c **** 	Stop,
   8:Core/Src/sensors.c **** 	Move
   9:Core/Src/sensors.c **** };
  10:Core/Src/sensors.c **** 
  11:Core/Src/sensors.c **** int detect;
  12:Core/Src/sensors.c **** 
  13:Core/Src/sensors.c **** void delay(uint16_t time)
  14:Core/Src/sensors.c **** {
  28              		.loc 1 14 1 view -0
  29              		.cfi_startproc
  30              		@ args = 0, pretend = 0, frame = 0
  31              		@ frame_needed = 0, uses_anonymous_args = 0
  32              		@ link register save eliminated.
  15:Core/Src/sensors.c **** 	/* change your code here for the delay in microseconds */
  16:Core/Src/sensors.c **** 	__HAL_TIM_SET_COUNTER(&htim1, 0);
  33              		.loc 1 16 2 view .LVU1
  34 0000 034B     		ldr	r3, .L3
  35 0002 1A68     		ldr	r2, [r3]
  36 0004 0023     		movs	r3, #0
  37 0006 5362     		str	r3, [r2, #36]
  17:Core/Src/sensors.c **** 	while ((__HAL_TIM_GET_COUNTER(&htim1)) < time)
  38              		.loc 1 17 2 view .LVU2
  39              	.L2:
  18:Core/Src/sensors.c **** 		;
  40              		.loc 1 18 3 discriminator 1 view .LVU3
ARM GAS  C:\Users\Admin\AppData\Local\Temp\ccfo34X2.s 			page 2


  17:Core/Src/sensors.c **** 	while ((__HAL_TIM_GET_COUNTER(&htim1)) < time)
  41              		.loc 1 17 8 discriminator 1 view .LVU4
  17:Core/Src/sensors.c **** 	while ((__HAL_TIM_GET_COUNTER(&htim1)) < time)
  42              		.loc 1 17 10 is_stmt 0 discriminator 1 view .LVU5
  43 0008 536A     		ldr	r3, [r2, #36]
  17:Core/Src/sensors.c **** 	while ((__HAL_TIM_GET_COUNTER(&htim1)) < time)
  44              		.loc 1 17 8 discriminator 1 view .LVU6
  45 000a 8342     		cmp	r3, r0
  46 000c FCD3     		bcc	.L2
  19:Core/Src/sensors.c **** }
  47              		.loc 1 19 1 view .LVU7
  48 000e 7047     		bx	lr
  49              	.L4:
  50              		.align	2
  51              	.L3:
  52 0010 00000000 		.word	htim1
  53              		.cfi_endproc
  54              	.LFE68:
  56              		.section	.text.Set_Pin_Output,"ax",%progbits
  57              		.align	1
  58              		.global	Set_Pin_Output
  59              		.syntax unified
  60              		.thumb
  61              		.thumb_func
  63              	Set_Pin_Output:
  64              	.LVL1:
  65              	.LFB69:
  20:Core/Src/sensors.c **** 
  21:Core/Src/sensors.c **** void Set_Pin_Output(GPIO_TypeDef *GPIOx, uint16_t GPIO_Pin)
  22:Core/Src/sensors.c **** {
  66              		.loc 1 22 1 is_stmt 1 view -0
  67              		.cfi_startproc
  68              		@ args = 0, pretend = 0, frame = 16
  69              		@ frame_needed = 0, uses_anonymous_args = 0
  70              		.loc 1 22 1 is_stmt 0 view .LVU9
  71 0000 00B5     		push	{lr}
  72              	.LCFI0:
  73              		.cfi_def_cfa_offset 4
  74              		.cfi_offset 14, -4
  75 0002 85B0     		sub	sp, sp, #20
  76              	.LCFI1:
  77              		.cfi_def_cfa_offset 24
  23:Core/Src/sensors.c **** 	GPIO_InitTypeDef GPIO_InitStruct = {0};
  78              		.loc 1 23 2 is_stmt 1 view .LVU10
  79              		.loc 1 23 19 is_stmt 0 view .LVU11
  80 0004 0023     		movs	r3, #0
  81 0006 0093     		str	r3, [sp]
  82 0008 0193     		str	r3, [sp, #4]
  83 000a 0293     		str	r3, [sp, #8]
  84 000c 0393     		str	r3, [sp, #12]
  24:Core/Src/sensors.c **** 	GPIO_InitStruct.Pin = GPIO_Pin;
  85              		.loc 1 24 2 is_stmt 1 view .LVU12
  86              		.loc 1 24 22 is_stmt 0 view .LVU13
  87 000e 0091     		str	r1, [sp]
  25:Core/Src/sensors.c **** 	GPIO_InitStruct.Mode = GPIO_MODE_OUTPUT_PP;
  88              		.loc 1 25 2 is_stmt 1 view .LVU14
  89              		.loc 1 25 23 is_stmt 0 view .LVU15
ARM GAS  C:\Users\Admin\AppData\Local\Temp\ccfo34X2.s 			page 3


  90 0010 0123     		movs	r3, #1
  91 0012 0193     		str	r3, [sp, #4]
  26:Core/Src/sensors.c **** 	GPIO_InitStruct.Speed = GPIO_SPEED_FREQ_LOW;
  92              		.loc 1 26 2 is_stmt 1 view .LVU16
  93              		.loc 1 26 24 is_stmt 0 view .LVU17
  94 0014 0223     		movs	r3, #2
  95 0016 0393     		str	r3, [sp, #12]
  27:Core/Src/sensors.c **** 	HAL_GPIO_Init(GPIOx, &GPIO_InitStruct);
  96              		.loc 1 27 2 is_stmt 1 view .LVU18
  97 0018 6946     		mov	r1, sp
  98              	.LVL2:
  99              		.loc 1 27 2 is_stmt 0 view .LVU19
 100 001a FFF7FEFF 		bl	HAL_GPIO_Init
 101              	.LVL3:
  28:Core/Src/sensors.c **** }
 102              		.loc 1 28 1 view .LVU20
 103 001e 05B0     		add	sp, sp, #20
 104              	.LCFI2:
 105              		.cfi_def_cfa_offset 4
 106              		@ sp needed
 107 0020 5DF804FB 		ldr	pc, [sp], #4
 108              		.cfi_endproc
 109              	.LFE69:
 111              		.section	.text.Set_Pin_Input,"ax",%progbits
 112              		.align	1
 113              		.global	Set_Pin_Input
 114              		.syntax unified
 115              		.thumb
 116              		.thumb_func
 118              	Set_Pin_Input:
 119              	.LVL4:
 120              	.LFB70:
  29:Core/Src/sensors.c **** 
  30:Core/Src/sensors.c **** void Set_Pin_Input(GPIO_TypeDef *GPIOx, uint16_t GPIO_Pin)
  31:Core/Src/sensors.c **** {
 121              		.loc 1 31 1 is_stmt 1 view -0
 122              		.cfi_startproc
 123              		@ args = 0, pretend = 0, frame = 16
 124              		@ frame_needed = 0, uses_anonymous_args = 0
 125              		.loc 1 31 1 is_stmt 0 view .LVU22
 126 0000 00B5     		push	{lr}
 127              	.LCFI3:
 128              		.cfi_def_cfa_offset 4
 129              		.cfi_offset 14, -4
 130 0002 85B0     		sub	sp, sp, #20
 131              	.LCFI4:
 132              		.cfi_def_cfa_offset 24
  32:Core/Src/sensors.c **** 	GPIO_InitTypeDef GPIO_InitStruct = {0};
 133              		.loc 1 32 2 is_stmt 1 view .LVU23
 134              		.loc 1 32 19 is_stmt 0 view .LVU24
 135 0004 0023     		movs	r3, #0
 136 0006 0093     		str	r3, [sp]
 137 0008 0193     		str	r3, [sp, #4]
 138 000a 0293     		str	r3, [sp, #8]
 139 000c 0393     		str	r3, [sp, #12]
  33:Core/Src/sensors.c **** 	GPIO_InitStruct.Pin = GPIO_Pin;
 140              		.loc 1 33 2 is_stmt 1 view .LVU25
ARM GAS  C:\Users\Admin\AppData\Local\Temp\ccfo34X2.s 			page 4


 141              		.loc 1 33 22 is_stmt 0 view .LVU26
 142 000e 0091     		str	r1, [sp]
  34:Core/Src/sensors.c **** 	GPIO_InitStruct.Mode = GPIO_MODE_INPUT;
 143              		.loc 1 34 2 is_stmt 1 view .LVU27
  35:Core/Src/sensors.c **** 	GPIO_InitStruct.Pull = GPIO_PULLUP;
 144              		.loc 1 35 2 view .LVU28
 145              		.loc 1 35 23 is_stmt 0 view .LVU29
 146 0010 0123     		movs	r3, #1
 147 0012 0293     		str	r3, [sp, #8]
  36:Core/Src/sensors.c **** 	HAL_GPIO_Init(GPIOx, &GPIO_InitStruct);
 148              		.loc 1 36 2 is_stmt 1 view .LVU30
 149 0014 6946     		mov	r1, sp
 150              	.LVL5:
 151              		.loc 1 36 2 is_stmt 0 view .LVU31
 152 0016 FFF7FEFF 		bl	HAL_GPIO_Init
 153              	.LVL6:
  37:Core/Src/sensors.c **** }
 154              		.loc 1 37 1 view .LVU32
 155 001a 05B0     		add	sp, sp, #20
 156              	.LCFI5:
 157              		.cfi_def_cfa_offset 4
 158              		@ sp needed
 159 001c 5DF804FB 		ldr	pc, [sp], #4
 160              		.cfi_endproc
 161              	.LFE70:
 163              		.section	.text.DS18B20_Start,"ax",%progbits
 164              		.align	1
 165              		.global	DS18B20_Start
 166              		.syntax unified
 167              		.thumb
 168              		.thumb_func
 170              	DS18B20_Start:
 171              	.LFB71:
  38:Core/Src/sensors.c **** 
  39:Core/Src/sensors.c **** /***************************DS18B20***********************/
  40:Core/Src/sensors.c **** uint8_t DS18B20_Start(void)
  41:Core/Src/sensors.c **** {
 172              		.loc 1 41 1 is_stmt 1 view -0
 173              		.cfi_startproc
 174              		@ args = 0, pretend = 0, frame = 0
 175              		@ frame_needed = 0, uses_anonymous_args = 0
 176 0000 10B5     		push	{r4, lr}
 177              	.LCFI6:
 178              		.cfi_def_cfa_offset 8
 179              		.cfi_offset 4, -8
 180              		.cfi_offset 14, -4
  42:Core/Src/sensors.c **** 	uint8_t Response = INIT_FAIL;
 181              		.loc 1 42 2 view .LVU34
 182              	.LVL7:
  43:Core/Src/sensors.c **** 	Set_Pin_Output(DS18B20_SENSOR_GPIO_Port, DS18B20_SENSOR_Pin);		// set the pin as output
 183              		.loc 1 43 2 view .LVU35
 184 0002 0F4C     		ldr	r4, .L11
 185 0004 0821     		movs	r1, #8
 186 0006 2046     		mov	r0, r4
 187 0008 FFF7FEFF 		bl	Set_Pin_Output
 188              	.LVL8:
  44:Core/Src/sensors.c **** 	HAL_GPIO_WritePin(DS18B20_SENSOR_GPIO_Port, DS18B20_SENSOR_Pin, 0); // pull the pin low
ARM GAS  C:\Users\Admin\AppData\Local\Temp\ccfo34X2.s 			page 5


 189              		.loc 1 44 2 view .LVU36
 190 000c 0022     		movs	r2, #0
 191 000e 0821     		movs	r1, #8
 192 0010 2046     		mov	r0, r4
 193 0012 FFF7FEFF 		bl	HAL_GPIO_WritePin
 194              	.LVL9:
  45:Core/Src/sensors.c **** 	delay(480);															// delay according to datasheet
 195              		.loc 1 45 2 view .LVU37
 196 0016 4FF4F070 		mov	r0, #480
 197 001a FFF7FEFF 		bl	delay
 198              	.LVL10:
  46:Core/Src/sensors.c **** 
  47:Core/Src/sensors.c **** 	Set_Pin_Input(DS18B20_SENSOR_GPIO_Port, DS18B20_SENSOR_Pin); // set the pin as input
 199              		.loc 1 47 2 view .LVU38
 200 001e 0821     		movs	r1, #8
 201 0020 2046     		mov	r0, r4
 202 0022 FFF7FEFF 		bl	Set_Pin_Input
 203              	.LVL11:
  48:Core/Src/sensors.c **** 	delay(80);													 // delay according to datasheet
 204              		.loc 1 48 2 view .LVU39
 205 0026 5020     		movs	r0, #80
 206 0028 FFF7FEFF 		bl	delay
 207              	.LVL12:
  49:Core/Src/sensors.c **** 
  50:Core/Src/sensors.c **** 	if (!(HAL_GPIO_ReadPin(DS18B20_SENSOR_GPIO_Port, DS18B20_SENSOR_Pin)))
 208              		.loc 1 50 2 view .LVU40
 209              		.loc 1 50 8 is_stmt 0 view .LVU41
 210 002c 0821     		movs	r1, #8
 211 002e 2046     		mov	r0, r4
 212 0030 FFF7FEFF 		bl	HAL_GPIO_ReadPin
 213              	.LVL13:
  51:Core/Src/sensors.c **** 		Response = INIT_SUCCESS; // if the pin is low i.e the presence pulse is detected
  52:Core/Src/sensors.c **** 	else
  53:Core/Src/sensors.c **** 		Response = INIT_FAIL;
  54:Core/Src/sensors.c **** 
  55:Core/Src/sensors.c **** 	delay(400); // 480 us delay totally.
 214              		.loc 1 55 2 is_stmt 1 view .LVU42
 215 0034 4FF4C870 		mov	r0, #400
 216 0038 FFF7FEFF 		bl	delay
 217              	.LVL14:
  56:Core/Src/sensors.c **** 
  57:Core/Src/sensors.c **** 	return Response;
 218              		.loc 1 57 2 view .LVU43
  58:Core/Src/sensors.c **** }
 219              		.loc 1 58 1 is_stmt 0 view .LVU44
 220 003c 0120     		movs	r0, #1
 221 003e 10BD     		pop	{r4, pc}
 222              	.L12:
 223              		.align	2
 224              	.L11:
 225 0040 00100140 		.word	1073811456
 226              		.cfi_endproc
 227              	.LFE71:
 229              		.section	.text.DS18B20_Write,"ax",%progbits
 230              		.align	1
 231              		.global	DS18B20_Write
 232              		.syntax unified
ARM GAS  C:\Users\Admin\AppData\Local\Temp\ccfo34X2.s 			page 6


 233              		.thumb
 234              		.thumb_func
 236              	DS18B20_Write:
 237              	.LVL15:
 238              	.LFB72:
  59:Core/Src/sensors.c **** 
  60:Core/Src/sensors.c **** void DS18B20_Write(uint8_t data)
  61:Core/Src/sensors.c **** {
 239              		.loc 1 61 1 is_stmt 1 view -0
 240              		.cfi_startproc
 241              		@ args = 0, pretend = 0, frame = 0
 242              		@ frame_needed = 0, uses_anonymous_args = 0
 243              		.loc 1 61 1 is_stmt 0 view .LVU46
 244 0000 70B5     		push	{r4, r5, r6, lr}
 245              	.LCFI7:
 246              		.cfi_def_cfa_offset 16
 247              		.cfi_offset 4, -16
 248              		.cfi_offset 5, -12
 249              		.cfi_offset 6, -8
 250              		.cfi_offset 14, -4
 251 0002 0646     		mov	r6, r0
  62:Core/Src/sensors.c **** 	Set_Pin_Output(DS18B20_SENSOR_GPIO_Port, DS18B20_SENSOR_Pin); // set as output
 252              		.loc 1 62 2 is_stmt 1 view .LVU47
 253 0004 0821     		movs	r1, #8
 254 0006 1A48     		ldr	r0, .L20
 255              	.LVL16:
 256              		.loc 1 62 2 is_stmt 0 view .LVU48
 257 0008 FFF7FEFF 		bl	Set_Pin_Output
 258              	.LVL17:
  63:Core/Src/sensors.c **** 
  64:Core/Src/sensors.c **** 	for (int i = 0; i < 8; i++)
 259              		.loc 1 64 2 is_stmt 1 view .LVU49
 260              	.LBB2:
 261              		.loc 1 64 7 view .LVU50
 262              		.loc 1 64 11 is_stmt 0 view .LVU51
 263 000c 0024     		movs	r4, #0
 264              		.loc 1 64 2 view .LVU52
 265 000e 11E0     		b	.L14
 266              	.LVL18:
 267              	.L15:
  65:Core/Src/sensors.c **** 	{
  66:Core/Src/sensors.c **** 
  67:Core/Src/sensors.c **** 		if ((data & (1 << i)) != 0) // if the bit is high
  68:Core/Src/sensors.c **** 		{
  69:Core/Src/sensors.c **** 			// write 1
  70:Core/Src/sensors.c **** 
  71:Core/Src/sensors.c **** 			Set_Pin_Output(DS18B20_SENSOR_GPIO_Port, DS18B20_SENSOR_Pin);		// set as output
  72:Core/Src/sensors.c **** 			HAL_GPIO_WritePin(DS18B20_SENSOR_GPIO_Port, DS18B20_SENSOR_Pin, 0); // pull the pin LOW
  73:Core/Src/sensors.c **** 			delay(1);															// wait for 1 us
  74:Core/Src/sensors.c **** 
  75:Core/Src/sensors.c **** 			Set_Pin_Input(DS18B20_SENSOR_GPIO_Port, DS18B20_SENSOR_Pin); // set as input
  76:Core/Src/sensors.c **** 			delay(50);													 // wait for 60 us
  77:Core/Src/sensors.c **** 		}
  78:Core/Src/sensors.c **** 
  79:Core/Src/sensors.c **** 		else // if the bit is low
  80:Core/Src/sensors.c **** 		{
  81:Core/Src/sensors.c **** 			// write 0
ARM GAS  C:\Users\Admin\AppData\Local\Temp\ccfo34X2.s 			page 7


  82:Core/Src/sensors.c **** 
  83:Core/Src/sensors.c **** 			Set_Pin_Output(DS18B20_SENSOR_GPIO_Port, DS18B20_SENSOR_Pin);
 268              		.loc 1 83 4 is_stmt 1 view .LVU53
 269 0010 174D     		ldr	r5, .L20
 270 0012 0821     		movs	r1, #8
 271 0014 2846     		mov	r0, r5
 272 0016 FFF7FEFF 		bl	Set_Pin_Output
 273              	.LVL19:
  84:Core/Src/sensors.c **** 			HAL_GPIO_WritePin(DS18B20_SENSOR_GPIO_Port, DS18B20_SENSOR_Pin, 0); // pull the pin LOW
 274              		.loc 1 84 4 view .LVU54
 275 001a 0022     		movs	r2, #0
 276 001c 0821     		movs	r1, #8
 277 001e 2846     		mov	r0, r5
 278 0020 FFF7FEFF 		bl	HAL_GPIO_WritePin
 279              	.LVL20:
  85:Core/Src/sensors.c **** 			delay(50);															// wait for 60 us
 280              		.loc 1 85 4 view .LVU55
 281 0024 3220     		movs	r0, #50
 282 0026 FFF7FEFF 		bl	delay
 283              	.LVL21:
  86:Core/Src/sensors.c **** 
  87:Core/Src/sensors.c **** 			Set_Pin_Input(DS18B20_SENSOR_GPIO_Port, DS18B20_SENSOR_Pin);
 284              		.loc 1 87 4 view .LVU56
 285 002a 0821     		movs	r1, #8
 286 002c 2846     		mov	r0, r5
 287 002e FFF7FEFF 		bl	Set_Pin_Input
 288              	.LVL22:
 289              	.L16:
  64:Core/Src/sensors.c **** 	{
 290              		.loc 1 64 25 discriminator 2 view .LVU57
  64:Core/Src/sensors.c **** 	{
 291              		.loc 1 64 26 is_stmt 0 discriminator 2 view .LVU58
 292 0032 0134     		adds	r4, r4, #1
 293              	.LVL23:
 294              	.L14:
  64:Core/Src/sensors.c **** 	{
 295              		.loc 1 64 18 is_stmt 1 discriminator 1 view .LVU59
  64:Core/Src/sensors.c **** 	{
 296              		.loc 1 64 2 is_stmt 0 discriminator 1 view .LVU60
 297 0034 072C     		cmp	r4, #7
 298 0036 19DC     		bgt	.L19
  67:Core/Src/sensors.c **** 		{
 299              		.loc 1 67 3 is_stmt 1 view .LVU61
  67:Core/Src/sensors.c **** 		{
 300              		.loc 1 67 25 is_stmt 0 view .LVU62
 301 0038 46FA04F3 		asr	r3, r6, r4
  67:Core/Src/sensors.c **** 		{
 302              		.loc 1 67 6 view .LVU63
 303 003c 13F0010F 		tst	r3, #1
 304 0040 E6D0     		beq	.L15
  71:Core/Src/sensors.c **** 			HAL_GPIO_WritePin(DS18B20_SENSOR_GPIO_Port, DS18B20_SENSOR_Pin, 0); // pull the pin LOW
 305              		.loc 1 71 4 is_stmt 1 view .LVU64
 306 0042 0B4D     		ldr	r5, .L20
 307 0044 0821     		movs	r1, #8
 308 0046 2846     		mov	r0, r5
 309 0048 FFF7FEFF 		bl	Set_Pin_Output
 310              	.LVL24:
ARM GAS  C:\Users\Admin\AppData\Local\Temp\ccfo34X2.s 			page 8


  72:Core/Src/sensors.c **** 			delay(1);															// wait for 1 us
 311              		.loc 1 72 4 view .LVU65
 312 004c 0022     		movs	r2, #0
 313 004e 0821     		movs	r1, #8
 314 0050 2846     		mov	r0, r5
 315 0052 FFF7FEFF 		bl	HAL_GPIO_WritePin
 316              	.LVL25:
  73:Core/Src/sensors.c **** 
 317              		.loc 1 73 4 view .LVU66
 318 0056 0120     		movs	r0, #1
 319 0058 FFF7FEFF 		bl	delay
 320              	.LVL26:
  75:Core/Src/sensors.c **** 			delay(50);													 // wait for 60 us
 321              		.loc 1 75 4 view .LVU67
 322 005c 0821     		movs	r1, #8
 323 005e 2846     		mov	r0, r5
 324 0060 FFF7FEFF 		bl	Set_Pin_Input
 325              	.LVL27:
  76:Core/Src/sensors.c **** 		}
 326              		.loc 1 76 4 view .LVU68
 327 0064 3220     		movs	r0, #50
 328 0066 FFF7FEFF 		bl	delay
 329              	.LVL28:
 330 006a E2E7     		b	.L16
 331              	.L19:
 332              	.LBE2:
  88:Core/Src/sensors.c **** 		}
  89:Core/Src/sensors.c **** 	}
  90:Core/Src/sensors.c **** }
 333              		.loc 1 90 1 is_stmt 0 view .LVU69
 334 006c 70BD     		pop	{r4, r5, r6, pc}
 335              	.LVL29:
 336              	.L21:
 337              		.loc 1 90 1 view .LVU70
 338 006e 00BF     		.align	2
 339              	.L20:
 340 0070 00100140 		.word	1073811456
 341              		.cfi_endproc
 342              	.LFE72:
 344              		.section	.text.DS18B20_Read,"ax",%progbits
 345              		.align	1
 346              		.global	DS18B20_Read
 347              		.syntax unified
 348              		.thumb
 349              		.thumb_func
 351              	DS18B20_Read:
 352              	.LFB73:
  91:Core/Src/sensors.c **** 
  92:Core/Src/sensors.c **** uint8_t DS18B20_Read(void)
  93:Core/Src/sensors.c **** {
 353              		.loc 1 93 1 is_stmt 1 view -0
 354              		.cfi_startproc
 355              		@ args = 0, pretend = 0, frame = 0
 356              		@ frame_needed = 0, uses_anonymous_args = 0
 357 0000 70B5     		push	{r4, r5, r6, lr}
 358              	.LCFI8:
 359              		.cfi_def_cfa_offset 16
ARM GAS  C:\Users\Admin\AppData\Local\Temp\ccfo34X2.s 			page 9


 360              		.cfi_offset 4, -16
 361              		.cfi_offset 5, -12
 362              		.cfi_offset 6, -8
 363              		.cfi_offset 14, -4
  94:Core/Src/sensors.c **** 	uint8_t value = 0;
 364              		.loc 1 94 2 view .LVU72
 365              	.LVL30:
  95:Core/Src/sensors.c **** 
  96:Core/Src/sensors.c **** 	Set_Pin_Input(DS18B20_SENSOR_GPIO_Port, DS18B20_SENSOR_Pin);
 366              		.loc 1 96 2 view .LVU73
 367 0002 0821     		movs	r1, #8
 368 0004 1448     		ldr	r0, .L28
 369 0006 FFF7FEFF 		bl	Set_Pin_Input
 370              	.LVL31:
  97:Core/Src/sensors.c **** 
  98:Core/Src/sensors.c **** 	for (int i = 0; i < 8; i++)
 371              		.loc 1 98 2 view .LVU74
 372              	.LBB3:
 373              		.loc 1 98 7 view .LVU75
 374              		.loc 1 98 11 is_stmt 0 view .LVU76
 375 000a 0025     		movs	r5, #0
 376              	.LBE3:
  94:Core/Src/sensors.c **** 
 377              		.loc 1 94 10 view .LVU77
 378 000c 2E46     		mov	r6, r5
 379              	.LBB4:
 380              		.loc 1 98 2 view .LVU78
 381 000e 03E0     		b	.L23
 382              	.LVL32:
 383              	.L24:
  99:Core/Src/sensors.c **** 	{
 100:Core/Src/sensors.c **** 		Set_Pin_Output(DS18B20_SENSOR_GPIO_Port, DS18B20_SENSOR_Pin); // set as output
 101:Core/Src/sensors.c **** 
 102:Core/Src/sensors.c **** 		HAL_GPIO_WritePin(DS18B20_SENSOR_GPIO_Port, DS18B20_SENSOR_Pin, 0); // pull the data pin LOW
 103:Core/Src/sensors.c **** 		delay(1);															// wait for > 1us
 104:Core/Src/sensors.c **** 
 105:Core/Src/sensors.c **** 		Set_Pin_Input(DS18B20_SENSOR_GPIO_Port, DS18B20_SENSOR_Pin);		// set as input
 106:Core/Src/sensors.c **** 		if (HAL_GPIO_ReadPin(DS18B20_SENSOR_GPIO_Port, DS18B20_SENSOR_Pin)) // if the pin is HIGH
 107:Core/Src/sensors.c **** 		{
 108:Core/Src/sensors.c **** 			value |= 1 << i; // read = 1
 109:Core/Src/sensors.c **** 		}
 110:Core/Src/sensors.c **** 		delay(50); // wait for 60 us
 384              		.loc 1 110 3 is_stmt 1 discriminator 2 view .LVU79
 385 0010 3220     		movs	r0, #50
 386 0012 FFF7FEFF 		bl	delay
 387              	.LVL33:
  98:Core/Src/sensors.c **** 	{
 388              		.loc 1 98 25 discriminator 2 view .LVU80
  98:Core/Src/sensors.c **** 	{
 389              		.loc 1 98 26 is_stmt 0 discriminator 2 view .LVU81
 390 0016 0135     		adds	r5, r5, #1
 391              	.LVL34:
 392              	.L23:
  98:Core/Src/sensors.c **** 	{
 393              		.loc 1 98 18 is_stmt 1 discriminator 1 view .LVU82
  98:Core/Src/sensors.c **** 	{
 394              		.loc 1 98 2 is_stmt 0 discriminator 1 view .LVU83
ARM GAS  C:\Users\Admin\AppData\Local\Temp\ccfo34X2.s 			page 10


 395 0018 072D     		cmp	r5, #7
 396 001a 1BDC     		bgt	.L27
 100:Core/Src/sensors.c **** 
 397              		.loc 1 100 3 is_stmt 1 view .LVU84
 398 001c 0E4C     		ldr	r4, .L28
 399 001e 0821     		movs	r1, #8
 400 0020 2046     		mov	r0, r4
 401 0022 FFF7FEFF 		bl	Set_Pin_Output
 402              	.LVL35:
 102:Core/Src/sensors.c **** 		delay(1);															// wait for > 1us
 403              		.loc 1 102 3 view .LVU85
 404 0026 0022     		movs	r2, #0
 405 0028 0821     		movs	r1, #8
 406 002a 2046     		mov	r0, r4
 407 002c FFF7FEFF 		bl	HAL_GPIO_WritePin
 408              	.LVL36:
 103:Core/Src/sensors.c **** 
 409              		.loc 1 103 3 view .LVU86
 410 0030 0120     		movs	r0, #1
 411 0032 FFF7FEFF 		bl	delay
 412              	.LVL37:
 105:Core/Src/sensors.c **** 		if (HAL_GPIO_ReadPin(DS18B20_SENSOR_GPIO_Port, DS18B20_SENSOR_Pin)) // if the pin is HIGH
 413              		.loc 1 105 3 view .LVU87
 414 0036 0821     		movs	r1, #8
 415 0038 2046     		mov	r0, r4
 416 003a FFF7FEFF 		bl	Set_Pin_Input
 417              	.LVL38:
 106:Core/Src/sensors.c **** 		{
 418              		.loc 1 106 3 view .LVU88
 106:Core/Src/sensors.c **** 		{
 419              		.loc 1 106 7 is_stmt 0 view .LVU89
 420 003e 0821     		movs	r1, #8
 421 0040 2046     		mov	r0, r4
 422 0042 FFF7FEFF 		bl	HAL_GPIO_ReadPin
 423              	.LVL39:
 106:Core/Src/sensors.c **** 		{
 424              		.loc 1 106 6 view .LVU90
 425 0046 0028     		cmp	r0, #0
 426 0048 E2D0     		beq	.L24
 108:Core/Src/sensors.c **** 		}
 427              		.loc 1 108 4 is_stmt 1 view .LVU91
 108:Core/Src/sensors.c **** 		}
 428              		.loc 1 108 15 is_stmt 0 view .LVU92
 429 004a 0123     		movs	r3, #1
 430 004c AB40     		lsls	r3, r3, r5
 108:Core/Src/sensors.c **** 		}
 431              		.loc 1 108 10 view .LVU93
 432 004e 1E43     		orrs	r6, r6, r3
 433              	.LVL40:
 108:Core/Src/sensors.c **** 		}
 434              		.loc 1 108 10 view .LVU94
 435 0050 F6B2     		uxtb	r6, r6
 436              	.LVL41:
 108:Core/Src/sensors.c **** 		}
 437              		.loc 1 108 10 view .LVU95
 438 0052 DDE7     		b	.L24
 439              	.L27:
ARM GAS  C:\Users\Admin\AppData\Local\Temp\ccfo34X2.s 			page 11


 108:Core/Src/sensors.c **** 		}
 440              		.loc 1 108 10 view .LVU96
 441              	.LBE4:
 111:Core/Src/sensors.c **** 	}
 112:Core/Src/sensors.c **** 	return value;
 442              		.loc 1 112 2 is_stmt 1 view .LVU97
 113:Core/Src/sensors.c **** }
 443              		.loc 1 113 1 is_stmt 0 view .LVU98
 444 0054 3046     		mov	r0, r6
 445 0056 70BD     		pop	{r4, r5, r6, pc}
 446              	.LVL42:
 447              	.L29:
 448              		.loc 1 113 1 view .LVU99
 449              		.align	2
 450              	.L28:
 451 0058 00100140 		.word	1073811456
 452              		.cfi_endproc
 453              	.LFE73:
 455              		.section	.rodata.DS18B20_Result.str1.4,"aMS",%progbits,1
 456              		.align	2
 457              	.LC0:
 458 0000 496E6974 		.ascii	"Init ds18b20 fail\012Init again\012\000"
 458      20647331 
 458      38623230 
 458      20666169 
 458      6C0A496E 
 459              		.global	__aeabi_ui2f
 460              		.global	__aeabi_fmul
 461              		.section	.text.DS18B20_Result,"ax",%progbits
 462              		.align	1
 463              		.global	DS18B20_Result
 464              		.syntax unified
 465              		.thumb
 466              		.thumb_func
 468              	DS18B20_Result:
 469              	.LFB74:
 114:Core/Src/sensors.c **** 
 115:Core/Src/sensors.c **** float DS18B20_Result(void)
 116:Core/Src/sensors.c **** {
 470              		.loc 1 116 1 is_stmt 1 view -0
 471              		.cfi_startproc
 472              		@ args = 0, pretend = 0, frame = 0
 473              		@ frame_needed = 0, uses_anonymous_args = 0
 474 0000 10B5     		push	{r4, lr}
 475              	.LCFI9:
 476              		.cfi_def_cfa_offset 8
 477              		.cfi_offset 4, -8
 478              		.cfi_offset 14, -4
 117:Core/Src/sensors.c **** 	uint8_t Presence = INIT_FAIL;
 479              		.loc 1 117 2 view .LVU101
 480              	.LVL43:
 118:Core/Src/sensors.c **** 	uint8_t Temp_byte1, Temp_byte2;
 481              		.loc 1 118 2 view .LVU102
 119:Core/Src/sensors.c **** 	uint16_t TEMP;
 482              		.loc 1 119 2 view .LVU103
 120:Core/Src/sensors.c **** 	float Temperature;
 483              		.loc 1 120 2 view .LVU104
ARM GAS  C:\Users\Admin\AppData\Local\Temp\ccfo34X2.s 			page 12


 121:Core/Src/sensors.c **** 	Presence = DS18B20_Start();
 484              		.loc 1 121 2 view .LVU105
 485              		.loc 1 121 13 is_stmt 0 view .LVU106
 486 0002 FFF7FEFF 		bl	DS18B20_Start
 487              	.LVL44:
 122:Core/Src/sensors.c **** 	while(Presence!=INIT_SUCCESS)
 488              		.loc 1 122 2 is_stmt 1 view .LVU107
 489              		.loc 1 122 7 is_stmt 0 view .LVU108
 490 0006 04E0     		b	.L31
 491              	.L32:
 123:Core/Src/sensors.c **** 	{
 124:Core/Src/sensors.c **** 		log_data("Init ds18b20 fail\nInit again\n");
 492              		.loc 1 124 3 is_stmt 1 view .LVU109
 493 0008 1648     		ldr	r0, .L34
 494              	.LVL45:
 495              		.loc 1 124 3 is_stmt 0 view .LVU110
 496 000a FFF7FEFF 		bl	log_data
 497              	.LVL46:
 125:Core/Src/sensors.c **** 		Presence = DS18B20_Start();
 498              		.loc 1 125 3 is_stmt 1 view .LVU111
 499              		.loc 1 125 14 is_stmt 0 view .LVU112
 500 000e FFF7FEFF 		bl	DS18B20_Start
 501              	.LVL47:
 502              	.L31:
 122:Core/Src/sensors.c **** 	while(Presence!=INIT_SUCCESS)
 503              		.loc 1 122 7 is_stmt 1 view .LVU113
 504 0012 0128     		cmp	r0, #1
 505 0014 F8D1     		bne	.L32
 126:Core/Src/sensors.c **** 	}
 127:Core/Src/sensors.c **** 	HAL_Delay(1);
 506              		.loc 1 127 2 view .LVU114
 507 0016 FFF7FEFF 		bl	HAL_Delay
 508              	.LVL48:
 128:Core/Src/sensors.c **** 	DS18B20_Write(0xCC); // skip ROM
 509              		.loc 1 128 2 view .LVU115
 510 001a CC20     		movs	r0, #204
 511 001c FFF7FEFF 		bl	DS18B20_Write
 512              	.LVL49:
 129:Core/Src/sensors.c **** 	DS18B20_Write(0x44); // convert t
 513              		.loc 1 129 2 view .LVU116
 514 0020 4420     		movs	r0, #68
 515 0022 FFF7FEFF 		bl	DS18B20_Write
 516              	.LVL50:
 130:Core/Src/sensors.c **** 	HAL_Delay(800);
 517              		.loc 1 130 2 view .LVU117
 518 0026 4FF44870 		mov	r0, #800
 519 002a FFF7FEFF 		bl	HAL_Delay
 520              	.LVL51:
 131:Core/Src/sensors.c **** 
 132:Core/Src/sensors.c **** 	Presence = DS18B20_Start();
 521              		.loc 1 132 2 view .LVU118
 522              		.loc 1 132 13 is_stmt 0 view .LVU119
 523 002e FFF7FEFF 		bl	DS18B20_Start
 524              	.LVL52:
 133:Core/Src/sensors.c **** 	HAL_Delay(1);
 525              		.loc 1 133 2 is_stmt 1 view .LVU120
 526 0032 0120     		movs	r0, #1
ARM GAS  C:\Users\Admin\AppData\Local\Temp\ccfo34X2.s 			page 13


 527 0034 FFF7FEFF 		bl	HAL_Delay
 528              	.LVL53:
 134:Core/Src/sensors.c **** 	DS18B20_Write(0xCC); // skip ROM
 529              		.loc 1 134 2 view .LVU121
 530 0038 CC20     		movs	r0, #204
 531 003a FFF7FEFF 		bl	DS18B20_Write
 532              	.LVL54:
 135:Core/Src/sensors.c **** 	DS18B20_Write(0xBE); // Read Scratch-pad
 533              		.loc 1 135 2 view .LVU122
 534 003e BE20     		movs	r0, #190
 535 0040 FFF7FEFF 		bl	DS18B20_Write
 536              	.LVL55:
 136:Core/Src/sensors.c **** 
 137:Core/Src/sensors.c **** 	Temp_byte1 = DS18B20_Read();
 537              		.loc 1 137 2 view .LVU123
 538              		.loc 1 137 15 is_stmt 0 view .LVU124
 539 0044 FFF7FEFF 		bl	DS18B20_Read
 540              	.LVL56:
 541 0048 0446     		mov	r4, r0
 542              	.LVL57:
 138:Core/Src/sensors.c **** 	Temp_byte2 = DS18B20_Read();
 543              		.loc 1 138 2 is_stmt 1 view .LVU125
 544              		.loc 1 138 15 is_stmt 0 view .LVU126
 545 004a FFF7FEFF 		bl	DS18B20_Read
 546              	.LVL58:
 139:Core/Src/sensors.c **** 	TEMP = (Temp_byte2 << 8) | Temp_byte1;
 547              		.loc 1 139 2 is_stmt 1 view .LVU127
 548              		.loc 1 139 27 is_stmt 0 view .LVU128
 549 004e 44EA0020 		orr	r0, r4, r0, lsl #8
 550              	.LVL59:
 140:Core/Src/sensors.c **** 	Temperature = (float)TEMP / 16;
 551              		.loc 1 140 2 is_stmt 1 view .LVU129
 552              		.loc 1 140 16 is_stmt 0 view .LVU130
 553 0052 80B2     		uxth	r0, r0
 554              		.loc 1 140 16 view .LVU131
 555 0054 FFF7FEFF 		bl	__aeabi_ui2f
 556              	.LVL60:
 557              		.loc 1 140 14 view .LVU132
 558 0058 4FF07651 		mov	r1, #1031798784
 559 005c FFF7FEFF 		bl	__aeabi_fmul
 560              	.LVL61:
 141:Core/Src/sensors.c **** 	return Temperature;
 561              		.loc 1 141 2 is_stmt 1 view .LVU133
 142:Core/Src/sensors.c **** }
 562              		.loc 1 142 1 is_stmt 0 view .LVU134
 563 0060 10BD     		pop	{r4, pc}
 564              	.LVL62:
 565              	.L35:
 566              		.loc 1 142 1 view .LVU135
 567 0062 00BF     		.align	2
 568              	.L34:
 569 0064 00000000 		.word	.LC0
 570              		.cfi_endproc
 571              	.LFE74:
 573              		.section	.text.DHT11_Start,"ax",%progbits
 574              		.align	1
 575              		.global	DHT11_Start
ARM GAS  C:\Users\Admin\AppData\Local\Temp\ccfo34X2.s 			page 14


 576              		.syntax unified
 577              		.thumb
 578              		.thumb_func
 580              	DHT11_Start:
 581              	.LFB75:
 143:Core/Src/sensors.c **** 
 144:Core/Src/sensors.c **** /*****************************DHT11*************************/
 145:Core/Src/sensors.c **** void DHT11_Start(void)
 146:Core/Src/sensors.c **** {
 582              		.loc 1 146 1 is_stmt 1 view -0
 583              		.cfi_startproc
 584              		@ args = 0, pretend = 0, frame = 0
 585              		@ frame_needed = 0, uses_anonymous_args = 0
 586 0000 10B5     		push	{r4, lr}
 587              	.LCFI10:
 588              		.cfi_def_cfa_offset 8
 589              		.cfi_offset 4, -8
 590              		.cfi_offset 14, -4
 147:Core/Src/sensors.c **** 	Set_Pin_Output(DHT11_SENSOR_GPIO_Port, DHT11_SENSOR_Pin);		// set the pin as output
 591              		.loc 1 147 2 view .LVU137
 592 0002 0D4C     		ldr	r4, .L38
 593 0004 1021     		movs	r1, #16
 594 0006 2046     		mov	r0, r4
 595 0008 FFF7FEFF 		bl	Set_Pin_Output
 596              	.LVL63:
 148:Core/Src/sensors.c **** 	HAL_GPIO_WritePin(DHT11_SENSOR_GPIO_Port, DHT11_SENSOR_Pin, 0); // pull the pin low
 597              		.loc 1 148 2 view .LVU138
 598 000c 0022     		movs	r2, #0
 599 000e 1021     		movs	r1, #16
 600 0010 2046     		mov	r0, r4
 601 0012 FFF7FEFF 		bl	HAL_GPIO_WritePin
 602              	.LVL64:
 149:Core/Src/sensors.c **** 	delay(18000);													// wait for 18ms		1.2ms for DHT22 10ms
 603              		.loc 1 149 2 view .LVU139
 604 0016 44F25060 		movw	r0, #18000
 605 001a FFF7FEFF 		bl	delay
 606              	.LVL65:
 150:Core/Src/sensors.c **** 	HAL_GPIO_WritePin(DHT11_SENSOR_GPIO_Port, DHT11_SENSOR_Pin, 1); // pull the pin high
 607              		.loc 1 150 2 view .LVU140
 608 001e 0122     		movs	r2, #1
 609 0020 1021     		movs	r1, #16
 610 0022 2046     		mov	r0, r4
 611 0024 FFF7FEFF 		bl	HAL_GPIO_WritePin
 612              	.LVL66:
 151:Core/Src/sensors.c **** 	delay(20);														// wait for 20us
 613              		.loc 1 151 2 view .LVU141
 614 0028 1420     		movs	r0, #20
 615 002a FFF7FEFF 		bl	delay
 616              	.LVL67:
 152:Core/Src/sensors.c **** 	Set_Pin_Input(DHT11_SENSOR_GPIO_Port, DHT11_SENSOR_Pin);		// set as input
 617              		.loc 1 152 2 view .LVU142
 618 002e 1021     		movs	r1, #16
 619 0030 2046     		mov	r0, r4
 620 0032 FFF7FEFF 		bl	Set_Pin_Input
 621              	.LVL68:
 153:Core/Src/sensors.c **** }
 622              		.loc 1 153 1 is_stmt 0 view .LVU143
ARM GAS  C:\Users\Admin\AppData\Local\Temp\ccfo34X2.s 			page 15


 623 0036 10BD     		pop	{r4, pc}
 624              	.L39:
 625              		.align	2
 626              	.L38:
 627 0038 00100140 		.word	1073811456
 628              		.cfi_endproc
 629              	.LFE75:
 631              		.section	.text.DHT11_Check_Response,"ax",%progbits
 632              		.align	1
 633              		.global	DHT11_Check_Response
 634              		.syntax unified
 635              		.thumb
 636              		.thumb_func
 638              	DHT11_Check_Response:
 639              	.LFB76:
 154:Core/Src/sensors.c **** 
 155:Core/Src/sensors.c **** uint8_t DHT11_Check_Response(void)
 156:Core/Src/sensors.c **** {
 640              		.loc 1 156 1 is_stmt 1 view -0
 641              		.cfi_startproc
 642              		@ args = 0, pretend = 0, frame = 0
 643              		@ frame_needed = 0, uses_anonymous_args = 0
 644 0000 08B5     		push	{r3, lr}
 645              	.LCFI11:
 646              		.cfi_def_cfa_offset 8
 647              		.cfi_offset 3, -8
 648              		.cfi_offset 14, -4
 157:Core/Src/sensors.c **** 	uint8_t Response = INIT_FAIL;
 649              		.loc 1 157 2 view .LVU145
 650              	.LVL69:
 158:Core/Src/sensors.c **** 	delay(40);
 651              		.loc 1 158 2 view .LVU146
 652 0002 2820     		movs	r0, #40
 653 0004 FFF7FEFF 		bl	delay
 654              	.LVL70:
 159:Core/Src/sensors.c **** 	if (!(HAL_GPIO_ReadPin(DHT11_SENSOR_GPIO_Port, DHT11_SENSOR_Pin))) // if the pin is low
 655              		.loc 1 159 2 view .LVU147
 656              		.loc 1 159 8 is_stmt 0 view .LVU148
 657 0008 1021     		movs	r1, #16
 658 000a 0A48     		ldr	r0, .L45
 659 000c FFF7FEFF 		bl	HAL_GPIO_ReadPin
 660              	.LVL71:
 661              		.loc 1 159 5 view .LVU149
 662 0010 38B1     		cbz	r0, .L44
 663              	.L42:
 160:Core/Src/sensors.c **** 	{
 161:Core/Src/sensors.c **** 		delay(80);
 162:Core/Src/sensors.c **** 		if ((HAL_GPIO_ReadPin(DHT11_SENSOR_GPIO_Port, DHT11_SENSOR_Pin)))
 163:Core/Src/sensors.c **** 			Response = INIT_SUCCESS; // if the pin is high, response is ok
 164:Core/Src/sensors.c **** 		else
 165:Core/Src/sensors.c **** 			Response = INIT_FAIL; // 255
 166:Core/Src/sensors.c **** 	}
 167:Core/Src/sensors.c **** 	while ((HAL_GPIO_ReadPin(DHT11_SENSOR_GPIO_Port, DHT11_SENSOR_Pin)))
 168:Core/Src/sensors.c **** 		; // wait for the pin to go low
 664              		.loc 1 168 3 is_stmt 1 discriminator 1 view .LVU150
 167:Core/Src/sensors.c **** 		; // wait for the pin to go low
 665              		.loc 1 167 8 discriminator 1 view .LVU151
ARM GAS  C:\Users\Admin\AppData\Local\Temp\ccfo34X2.s 			page 16


 167:Core/Src/sensors.c **** 		; // wait for the pin to go low
 666              		.loc 1 167 10 is_stmt 0 discriminator 1 view .LVU152
 667 0012 1021     		movs	r1, #16
 668 0014 0748     		ldr	r0, .L45
 669 0016 FFF7FEFF 		bl	HAL_GPIO_ReadPin
 670              	.LVL72:
 167:Core/Src/sensors.c **** 		; // wait for the pin to go low
 671              		.loc 1 167 8 discriminator 1 view .LVU153
 672 001a 0028     		cmp	r0, #0
 673 001c F9D1     		bne	.L42
 169:Core/Src/sensors.c **** 
 170:Core/Src/sensors.c **** 	return Response;
 674              		.loc 1 170 2 is_stmt 1 view .LVU154
 171:Core/Src/sensors.c **** }
 675              		.loc 1 171 1 is_stmt 0 view .LVU155
 676 001e 0120     		movs	r0, #1
 677 0020 08BD     		pop	{r3, pc}
 678              	.L44:
 161:Core/Src/sensors.c **** 		if ((HAL_GPIO_ReadPin(DHT11_SENSOR_GPIO_Port, DHT11_SENSOR_Pin)))
 679              		.loc 1 161 3 is_stmt 1 view .LVU156
 680 0022 5020     		movs	r0, #80
 681 0024 FFF7FEFF 		bl	delay
 682              	.LVL73:
 162:Core/Src/sensors.c **** 			Response = INIT_SUCCESS; // if the pin is high, response is ok
 683              		.loc 1 162 3 view .LVU157
 162:Core/Src/sensors.c **** 			Response = INIT_SUCCESS; // if the pin is high, response is ok
 684              		.loc 1 162 8 is_stmt 0 view .LVU158
 685 0028 1021     		movs	r1, #16
 686 002a 0248     		ldr	r0, .L45
 687 002c FFF7FEFF 		bl	HAL_GPIO_ReadPin
 688              	.LVL74:
 689 0030 EFE7     		b	.L42
 690              	.L46:
 691 0032 00BF     		.align	2
 692              	.L45:
 693 0034 00100140 		.word	1073811456
 694              		.cfi_endproc
 695              	.LFE76:
 697              		.section	.text.DHT11_Read,"ax",%progbits
 698              		.align	1
 699              		.global	DHT11_Read
 700              		.syntax unified
 701              		.thumb
 702              		.thumb_func
 704              	DHT11_Read:
 705              	.LFB77:
 172:Core/Src/sensors.c **** 
 173:Core/Src/sensors.c **** uint8_t DHT11_Read(void)
 174:Core/Src/sensors.c **** {
 706              		.loc 1 174 1 is_stmt 1 view -0
 707              		.cfi_startproc
 708              		@ args = 0, pretend = 0, frame = 0
 709              		@ frame_needed = 0, uses_anonymous_args = 0
 710 0000 38B5     		push	{r3, r4, r5, lr}
 711              	.LCFI12:
 712              		.cfi_def_cfa_offset 16
 713              		.cfi_offset 3, -16
ARM GAS  C:\Users\Admin\AppData\Local\Temp\ccfo34X2.s 			page 17


 714              		.cfi_offset 4, -12
 715              		.cfi_offset 5, -8
 716              		.cfi_offset 14, -4
 717 0002 0025     		movs	r5, #0
 175:Core/Src/sensors.c **** 	uint8_t i, j;
 718              		.loc 1 175 2 view .LVU160
 176:Core/Src/sensors.c **** 	for (j = 0; j < 8; j++)
 719              		.loc 1 176 2 view .LVU161
 720              	.LVL75:
 721              		.loc 1 176 9 is_stmt 0 view .LVU162
 722 0004 2C46     		mov	r4, r5
 723              		.loc 1 176 2 view .LVU163
 724 0006 0DE0     		b	.L48
 725              	.LVL76:
 726              	.L50:
 177:Core/Src/sensors.c **** 	{
 178:Core/Src/sensors.c **** 		while (!(HAL_GPIO_ReadPin(DHT11_SENSOR_GPIO_Port, DHT11_SENSOR_Pin)));	// wait for the pin to go 
 179:Core/Src/sensors.c **** 		delay(40);														   // wait for 40 us
 180:Core/Src/sensors.c **** 		if (!(HAL_GPIO_ReadPin(DHT11_SENSOR_GPIO_Port, DHT11_SENSOR_Pin))) // if the pin is low
 181:Core/Src/sensors.c **** 		{
 182:Core/Src/sensors.c **** 			i &= ~(1 << (7 - j)); // write 0
 183:Core/Src/sensors.c **** 		}
 184:Core/Src/sensors.c **** 		else
 185:Core/Src/sensors.c **** 			i |= (1 << (7 - j)); // if the pin is high, write 1
 727              		.loc 1 185 4 is_stmt 1 view .LVU164
 728              		.loc 1 185 18 is_stmt 0 view .LVU165
 729 0008 C4F10702 		rsb	r2, r4, #7
 730              		.loc 1 185 12 view .LVU166
 731 000c 0123     		movs	r3, #1
 732 000e 9340     		lsls	r3, r3, r2
 733              		.loc 1 185 6 view .LVU167
 734 0010 2B43     		orrs	r3, r3, r5
 735 0012 DDB2     		uxtb	r5, r3
 736              	.LVL77:
 737              	.L52:
 186:Core/Src/sensors.c **** 		while ((HAL_GPIO_ReadPin(DHT11_SENSOR_GPIO_Port, DHT11_SENSOR_Pin)))
 187:Core/Src/sensors.c **** 			; // wait for the pin to go low
 738              		.loc 1 187 4 is_stmt 1 discriminator 1 view .LVU168
 186:Core/Src/sensors.c **** 		while ((HAL_GPIO_ReadPin(DHT11_SENSOR_GPIO_Port, DHT11_SENSOR_Pin)))
 739              		.loc 1 186 9 discriminator 1 view .LVU169
 186:Core/Src/sensors.c **** 		while ((HAL_GPIO_ReadPin(DHT11_SENSOR_GPIO_Port, DHT11_SENSOR_Pin)))
 740              		.loc 1 186 11 is_stmt 0 discriminator 1 view .LVU170
 741 0014 1021     		movs	r1, #16
 742 0016 1048     		ldr	r0, .L55
 743 0018 FFF7FEFF 		bl	HAL_GPIO_ReadPin
 744              	.LVL78:
 186:Core/Src/sensors.c **** 		while ((HAL_GPIO_ReadPin(DHT11_SENSOR_GPIO_Port, DHT11_SENSOR_Pin)))
 745              		.loc 1 186 9 discriminator 1 view .LVU171
 746 001c 0028     		cmp	r0, #0
 747 001e F9D1     		bne	.L52
 176:Core/Src/sensors.c **** 	{
 748              		.loc 1 176 21 is_stmt 1 discriminator 2 view .LVU172
 176:Core/Src/sensors.c **** 	{
 749              		.loc 1 176 22 is_stmt 0 discriminator 2 view .LVU173
 750 0020 0134     		adds	r4, r4, #1
 751              	.LVL79:
 176:Core/Src/sensors.c **** 	{
ARM GAS  C:\Users\Admin\AppData\Local\Temp\ccfo34X2.s 			page 18


 752              		.loc 1 176 22 discriminator 2 view .LVU174
 753 0022 E4B2     		uxtb	r4, r4
 754              	.LVL80:
 755              	.L48:
 176:Core/Src/sensors.c **** 	{
 756              		.loc 1 176 14 is_stmt 1 discriminator 1 view .LVU175
 176:Core/Src/sensors.c **** 	{
 757              		.loc 1 176 2 is_stmt 0 discriminator 1 view .LVU176
 758 0024 072C     		cmp	r4, #7
 759 0026 15D8     		bhi	.L54
 760              	.L49:
 178:Core/Src/sensors.c **** 		delay(40);														   // wait for 40 us
 761              		.loc 1 178 72 is_stmt 1 discriminator 1 view .LVU177
 178:Core/Src/sensors.c **** 		delay(40);														   // wait for 40 us
 762              		.loc 1 178 9 discriminator 1 view .LVU178
 178:Core/Src/sensors.c **** 		delay(40);														   // wait for 40 us
 763              		.loc 1 178 12 is_stmt 0 discriminator 1 view .LVU179
 764 0028 1021     		movs	r1, #16
 765 002a 0B48     		ldr	r0, .L55
 766 002c FFF7FEFF 		bl	HAL_GPIO_ReadPin
 767              	.LVL81:
 178:Core/Src/sensors.c **** 		delay(40);														   // wait for 40 us
 768              		.loc 1 178 9 discriminator 1 view .LVU180
 769 0030 0028     		cmp	r0, #0
 770 0032 F9D0     		beq	.L49
 179:Core/Src/sensors.c **** 		if (!(HAL_GPIO_ReadPin(DHT11_SENSOR_GPIO_Port, DHT11_SENSOR_Pin))) // if the pin is low
 771              		.loc 1 179 3 is_stmt 1 view .LVU181
 772 0034 2820     		movs	r0, #40
 773 0036 FFF7FEFF 		bl	delay
 774              	.LVL82:
 180:Core/Src/sensors.c **** 		{
 775              		.loc 1 180 3 view .LVU182
 180:Core/Src/sensors.c **** 		{
 776              		.loc 1 180 9 is_stmt 0 view .LVU183
 777 003a 1021     		movs	r1, #16
 778 003c 0648     		ldr	r0, .L55
 779 003e FFF7FEFF 		bl	HAL_GPIO_ReadPin
 780              	.LVL83:
 180:Core/Src/sensors.c **** 		{
 781              		.loc 1 180 6 view .LVU184
 782 0042 0028     		cmp	r0, #0
 783 0044 E0D1     		bne	.L50
 182:Core/Src/sensors.c **** 		}
 784              		.loc 1 182 4 is_stmt 1 view .LVU185
 182:Core/Src/sensors.c **** 		}
 785              		.loc 1 182 19 is_stmt 0 view .LVU186
 786 0046 C4F10702 		rsb	r2, r4, #7
 182:Core/Src/sensors.c **** 		}
 787              		.loc 1 182 13 view .LVU187
 788 004a 0123     		movs	r3, #1
 789 004c 9340     		lsls	r3, r3, r2
 182:Core/Src/sensors.c **** 		}
 790              		.loc 1 182 6 view .LVU188
 791 004e 25EA0305 		bic	r5, r5, r3
 792              	.LVL84:
 182:Core/Src/sensors.c **** 		}
 793              		.loc 1 182 6 view .LVU189
ARM GAS  C:\Users\Admin\AppData\Local\Temp\ccfo34X2.s 			page 19


 794 0052 DFE7     		b	.L52
 795              	.L54:
 188:Core/Src/sensors.c **** 	}
 189:Core/Src/sensors.c **** 	return i;
 796              		.loc 1 189 2 is_stmt 1 view .LVU190
 190:Core/Src/sensors.c **** }
 797              		.loc 1 190 1 is_stmt 0 view .LVU191
 798 0054 2846     		mov	r0, r5
 799 0056 38BD     		pop	{r3, r4, r5, pc}
 800              	.LVL85:
 801              	.L56:
 802              		.loc 1 190 1 view .LVU192
 803              		.align	2
 804              	.L55:
 805 0058 00100140 		.word	1073811456
 806              		.cfi_endproc
 807              	.LFE77:
 809              		.section	.rodata.DHT11_Result.str1.4,"aMS",%progbits,1
 810              		.align	2
 811              	.LC1:
 812 0000 496E6974 		.ascii	"Init dht11 fail\012init again\012\000"
 812      20646874 
 812      31312066 
 812      61696C0A 
 812      696E6974 
 813              		.section	.text.DHT11_Result,"ax",%progbits
 814              		.align	1
 815              		.global	DHT11_Result
 816              		.syntax unified
 817              		.thumb
 818              		.thumb_func
 820              	DHT11_Result:
 821              	.LVL86:
 822              	.LFB78:
 191:Core/Src/sensors.c **** 
 192:Core/Src/sensors.c **** float DHT11_Result(float* Temperature, float* Humidity)
 193:Core/Src/sensors.c **** {
 823              		.loc 1 193 1 is_stmt 1 view -0
 824              		.cfi_startproc
 825              		@ args = 0, pretend = 0, frame = 0
 826              		@ frame_needed = 0, uses_anonymous_args = 0
 827              		.loc 1 193 1 is_stmt 0 view .LVU194
 828 0000 F8B5     		push	{r3, r4, r5, r6, r7, lr}
 829              	.LCFI13:
 830              		.cfi_def_cfa_offset 24
 831              		.cfi_offset 3, -24
 832              		.cfi_offset 4, -20
 833              		.cfi_offset 5, -16
 834              		.cfi_offset 6, -12
 835              		.cfi_offset 7, -8
 836              		.cfi_offset 14, -4
 837 0002 0646     		mov	r6, r0
 838 0004 0C46     		mov	r4, r1
 194:Core/Src/sensors.c **** 	uint8_t Presence = 0;
 839              		.loc 1 194 2 is_stmt 1 view .LVU195
 840              	.LVL87:
 195:Core/Src/sensors.c **** 	uint8_t Rh_byte1, Rh_byte2, Temp_byte1, Temp_byte2;
ARM GAS  C:\Users\Admin\AppData\Local\Temp\ccfo34X2.s 			page 20


 841              		.loc 1 195 2 view .LVU196
 196:Core/Src/sensors.c **** 	uint16_t SUM, RH, TEMP;
 842              		.loc 1 196 2 view .LVU197
 197:Core/Src/sensors.c **** 	// float Temperature = 0;
 198:Core/Src/sensors.c **** 	// float Humidity = 0;
 199:Core/Src/sensors.c **** 	DHT11_Start();
 843              		.loc 1 199 2 view .LVU198
 844 0006 FFF7FEFF 		bl	DHT11_Start
 845              	.LVL88:
 200:Core/Src/sensors.c **** 	Presence = DHT11_Check_Response();
 846              		.loc 1 200 2 view .LVU199
 847              		.loc 1 200 13 is_stmt 0 view .LVU200
 848 000a FFF7FEFF 		bl	DHT11_Check_Response
 849              	.LVL89:
 201:Core/Src/sensors.c **** 	while(Presence!=INIT_SUCCESS)
 850              		.loc 1 201 2 is_stmt 1 view .LVU201
 851              		.loc 1 201 7 is_stmt 0 view .LVU202
 852 000e 04E0     		b	.L58
 853              	.L59:
 202:Core/Src/sensors.c **** 	{
 203:Core/Src/sensors.c **** 		log_data("Init dht11 fail\ninit again\n");
 854              		.loc 1 203 3 is_stmt 1 view .LVU203
 855 0010 0D48     		ldr	r0, .L61
 856              	.LVL90:
 857              		.loc 1 203 3 is_stmt 0 view .LVU204
 858 0012 FFF7FEFF 		bl	log_data
 859              	.LVL91:
 204:Core/Src/sensors.c **** 		Presence = DHT11_Check_Response();
 860              		.loc 1 204 3 is_stmt 1 view .LVU205
 861              		.loc 1 204 14 is_stmt 0 view .LVU206
 862 0016 FFF7FEFF 		bl	DHT11_Check_Response
 863              	.LVL92:
 864              	.L58:
 201:Core/Src/sensors.c **** 	while(Presence!=INIT_SUCCESS)
 865              		.loc 1 201 7 is_stmt 1 view .LVU207
 866 001a 0128     		cmp	r0, #1
 867 001c F8D1     		bne	.L59
 205:Core/Src/sensors.c **** 	}
 206:Core/Src/sensors.c **** 	Rh_byte1 = DHT11_Read();
 868              		.loc 1 206 2 view .LVU208
 869              		.loc 1 206 13 is_stmt 0 view .LVU209
 870 001e FFF7FEFF 		bl	DHT11_Read
 871              	.LVL93:
 872              		.loc 1 206 13 view .LVU210
 873 0022 0546     		mov	r5, r0
 874              	.LVL94:
 207:Core/Src/sensors.c **** 	Rh_byte2 = DHT11_Read();
 875              		.loc 1 207 2 is_stmt 1 view .LVU211
 876              		.loc 1 207 13 is_stmt 0 view .LVU212
 877 0024 FFF7FEFF 		bl	DHT11_Read
 878              	.LVL95:
 208:Core/Src/sensors.c **** 	Temp_byte1 = DHT11_Read();
 879              		.loc 1 208 2 is_stmt 1 view .LVU213
 880              		.loc 1 208 15 is_stmt 0 view .LVU214
 881 0028 FFF7FEFF 		bl	DHT11_Read
 882              	.LVL96:
 883 002c 0746     		mov	r7, r0
ARM GAS  C:\Users\Admin\AppData\Local\Temp\ccfo34X2.s 			page 21


 884              	.LVL97:
 209:Core/Src/sensors.c **** 	Temp_byte2 = DHT11_Read();
 885              		.loc 1 209 2 is_stmt 1 view .LVU215
 886              		.loc 1 209 15 is_stmt 0 view .LVU216
 887 002e FFF7FEFF 		bl	DHT11_Read
 888              	.LVL98:
 210:Core/Src/sensors.c **** 	SUM = DHT11_Read();
 889              		.loc 1 210 2 is_stmt 1 view .LVU217
 890              		.loc 1 210 8 is_stmt 0 view .LVU218
 891 0032 FFF7FEFF 		bl	DHT11_Read
 892              	.LVL99:
 211:Core/Src/sensors.c **** 
 212:Core/Src/sensors.c **** 	TEMP = Temp_byte1;
 893              		.loc 1 212 2 is_stmt 1 view .LVU219
 213:Core/Src/sensors.c **** 	RH = Rh_byte1;
 894              		.loc 1 213 2 view .LVU220
 214:Core/Src/sensors.c **** 
 215:Core/Src/sensors.c **** 	*Temperature = (float)TEMP;
 895              		.loc 1 215 2 view .LVU221
 896              		.loc 1 215 17 is_stmt 0 view .LVU222
 897 0036 3846     		mov	r0, r7
 898 0038 FFF7FEFF 		bl	__aeabi_ui2f
 899              	.LVL100:
 900              		.loc 1 215 15 view .LVU223
 901 003c 3060     		str	r0, [r6]	@ float
 216:Core/Src/sensors.c **** 	*Humidity = (float)RH;
 902              		.loc 1 216 2 is_stmt 1 view .LVU224
 903              		.loc 1 216 14 is_stmt 0 view .LVU225
 904 003e 2846     		mov	r0, r5
 905 0040 FFF7FEFF 		bl	__aeabi_ui2f
 906              	.LVL101:
 907              		.loc 1 216 12 view .LVU226
 908 0044 2060     		str	r0, [r4]	@ float
 217:Core/Src/sensors.c **** }
 909              		.loc 1 217 1 view .LVU227
 910 0046 F8BD     		pop	{r3, r4, r5, r6, r7, pc}
 911              	.LVL102:
 912              	.L62:
 913              		.loc 1 217 1 view .LVU228
 914              		.align	2
 915              	.L61:
 916 0048 00000000 		.word	.LC1
 917              		.cfi_endproc
 918              	.LFE78:
 920              		.global	__aeabi_fsub
 921              		.section	.text.Level_Result,"ax",%progbits
 922              		.align	1
 923              		.global	Level_Result
 924              		.syntax unified
 925              		.thumb
 926              		.thumb_func
 928              	Level_Result:
 929              	.LFB79:
 218:Core/Src/sensors.c **** 
 219:Core/Src/sensors.c **** /************for LEVEL***************/
 220:Core/Src/sensors.c **** //4095 -> 0cm
 221:Core/Src/sensors.c **** float Level_Result()
ARM GAS  C:\Users\Admin\AppData\Local\Temp\ccfo34X2.s 			page 22


 222:Core/Src/sensors.c **** {
 930              		.loc 1 222 1 is_stmt 1 view -0
 931              		.cfi_startproc
 932              		@ args = 0, pretend = 0, frame = 0
 933              		@ frame_needed = 0, uses_anonymous_args = 0
 934 0000 08B5     		push	{r3, lr}
 935              	.LCFI14:
 936              		.cfi_def_cfa_offset 8
 937              		.cfi_offset 3, -8
 938              		.cfi_offset 14, -4
 223:Core/Src/sensors.c **** 	uint16_t value_level;
 939              		.loc 1 223 2 view .LVU230
 224:Core/Src/sensors.c **** 	float level;
 940              		.loc 1 224 2 view .LVU231
 225:Core/Src/sensors.c **** 	value_level = HAL_ADC_GetValue(&hadc2);
 941              		.loc 1 225 2 view .LVU232
 942              		.loc 1 225 16 is_stmt 0 view .LVU233
 943 0002 0748     		ldr	r0, .L65
 944 0004 FFF7FEFF 		bl	HAL_ADC_GetValue
 945              	.LVL103:
 226:Core/Src/sensors.c **** 	level = 10.0-(10/4095)*(float)value_level;
 946              		.loc 1 226 2 is_stmt 1 view .LVU234
 947              		.loc 1 226 25 is_stmt 0 view .LVU235
 948 0008 80B2     		uxth	r0, r0
 949              		.loc 1 226 25 view .LVU236
 950 000a FFF7FEFF 		bl	__aeabi_ui2f
 951              	.LVL104:
 952              		.loc 1 226 24 view .LVU237
 953 000e 0021     		movs	r1, #0
 954 0010 FFF7FEFF 		bl	__aeabi_fmul
 955              	.LVL105:
 956 0014 0146     		mov	r1, r0
 957              		.loc 1 226 8 view .LVU238
 958 0016 0348     		ldr	r0, .L65+4
 959 0018 FFF7FEFF 		bl	__aeabi_fsub
 960              	.LVL106:
 227:Core/Src/sensors.c **** 	return level;
 961              		.loc 1 227 2 is_stmt 1 view .LVU239
 228:Core/Src/sensors.c **** }
 962              		.loc 1 228 1 is_stmt 0 view .LVU240
 963 001c 08BD     		pop	{r3, pc}
 964              	.L66:
 965 001e 00BF     		.align	2
 966              	.L65:
 967 0020 00000000 		.word	hadc2
 968 0024 00002041 		.word	1092616192
 969              		.cfi_endproc
 970              	.LFE79:
 972              		.global	__aeabi_f2d
 973              		.global	__aeabi_dmul
 974              		.global	__aeabi_d2f
 975              		.section	.text.Accqui_Result,"ax",%progbits
 976              		.align	1
 977              		.global	Accqui_Result
 978              		.syntax unified
 979              		.thumb
 980              		.thumb_func
ARM GAS  C:\Users\Admin\AppData\Local\Temp\ccfo34X2.s 			page 23


 982              	Accqui_Result:
 983              	.LFB80:
 229:Core/Src/sensors.c **** 
 230:Core/Src/sensors.c **** /************for ADC ACCQUI***************/
 231:Core/Src/sensors.c **** //4095-> 3.3V
 232:Core/Src/sensors.c **** float Accqui_Result()
 233:Core/Src/sensors.c **** {
 984              		.loc 1 233 1 is_stmt 1 view -0
 985              		.cfi_startproc
 986              		@ args = 0, pretend = 0, frame = 0
 987              		@ frame_needed = 0, uses_anonymous_args = 0
 988 0000 08B5     		push	{r3, lr}
 989              	.LCFI15:
 990              		.cfi_def_cfa_offset 8
 991              		.cfi_offset 3, -8
 992              		.cfi_offset 14, -4
 234:Core/Src/sensors.c **** 	uint16_t value_accqui;
 993              		.loc 1 234 2 view .LVU242
 235:Core/Src/sensors.c **** 	float vol_accqi;
 994              		.loc 1 235 2 view .LVU243
 236:Core/Src/sensors.c **** 	value_accqui = HAL_ADC_GetValue(&hadc1);
 995              		.loc 1 236 2 view .LVU244
 996              		.loc 1 236 17 is_stmt 0 view .LVU245
 997 0002 0B48     		ldr	r0, .L69+8
 998 0004 FFF7FEFF 		bl	HAL_ADC_GetValue
 999              	.LVL107:
 237:Core/Src/sensors.c **** 	vol_accqi = (3.3/4095)*(float)value_accqui;
 1000              		.loc 1 237 2 is_stmt 1 view .LVU246
 1001              		.loc 1 237 25 is_stmt 0 view .LVU247
 1002 0008 80B2     		uxth	r0, r0
 1003              		.loc 1 237 25 view .LVU248
 1004 000a FFF7FEFF 		bl	__aeabi_ui2f
 1005              	.LVL108:
 1006              		.loc 1 237 25 view .LVU249
 1007 000e FFF7FEFF 		bl	__aeabi_f2d
 1008              	.LVL109:
 1009              		.loc 1 237 24 view .LVU250
 1010 0012 05A3     		adr	r3, .L69
 1011 0014 D3E90023 		ldrd	r2, [r3]
 1012 0018 FFF7FEFF 		bl	__aeabi_dmul
 1013              	.LVL110:
 1014              		.loc 1 237 12 view .LVU251
 1015 001c FFF7FEFF 		bl	__aeabi_d2f
 1016              	.LVL111:
 238:Core/Src/sensors.c **** 	return vol_accqi;
 1017              		.loc 1 238 2 is_stmt 1 view .LVU252
 239:Core/Src/sensors.c **** }
 1018              		.loc 1 239 1 is_stmt 0 view .LVU253
 1019 0020 08BD     		pop	{r3, pc}
 1020              	.L70:
 1021 0022 00BFAFF3 		.align	3
 1021      0080
 1022              	.L69:
 1023 0028 B4D934E7 		.word	-415966796
 1024 002c 0C684A3F 		.word	1061840908
 1025 0030 00000000 		.word	hadc1
 1026              		.cfi_endproc
ARM GAS  C:\Users\Admin\AppData\Local\Temp\ccfo34X2.s 			page 24


 1027              	.LFE80:
 1029              		.global	detect
 1030              		.section	.bss.detect,"aw",%nobits
 1031              		.align	2
 1034              	detect:
 1035 0000 00000000 		.space	4
 1036              		.text
 1037              	.Letext0:
 1038              		.file 2 "d:\\10 2021.10\\arm-none-eabi\\include\\machine\\_default_types.h"
 1039              		.file 3 "d:\\10 2021.10\\arm-none-eabi\\include\\sys\\_stdint.h"
 1040              		.file 4 "Drivers/CMSIS/Device/ST/STM32F1xx/Include/stm32f103xe.h"
 1041              		.file 5 "Drivers/CMSIS/Device/ST/STM32F1xx/Include/stm32f1xx.h"
 1042              		.file 6 "Drivers/STM32F1xx_HAL_Driver/Inc/stm32f1xx_hal_def.h"
 1043              		.file 7 "Drivers/STM32F1xx_HAL_Driver/Inc/stm32f1xx_hal_gpio.h"
 1044              		.file 8 "Drivers/STM32F1xx_HAL_Driver/Inc/stm32f1xx_hal_dma.h"
 1045              		.file 9 "Drivers/STM32F1xx_HAL_Driver/Inc/stm32f1xx_hal_adc.h"
 1046              		.file 10 "Drivers/STM32F1xx_HAL_Driver/Inc/stm32f1xx_hal_tim.h"
 1047              		.file 11 "Core/Inc/tim.h"
 1048              		.file 12 "Core/Inc/adc.h"
 1049              		.file 13 "Core/Inc/debug.h"
 1050              		.file 14 "Drivers/STM32F1xx_HAL_Driver/Inc/stm32f1xx_hal.h"
ARM GAS  C:\Users\Admin\AppData\Local\Temp\ccfo34X2.s 			page 25


DEFINED SYMBOLS
                            *ABS*:00000000 sensors.c
C:\Users\Admin\AppData\Local\Temp\ccfo34X2.s:18     .text.delay:00000000 $t
C:\Users\Admin\AppData\Local\Temp\ccfo34X2.s:24     .text.delay:00000000 delay
C:\Users\Admin\AppData\Local\Temp\ccfo34X2.s:52     .text.delay:00000010 $d
C:\Users\Admin\AppData\Local\Temp\ccfo34X2.s:57     .text.Set_Pin_Output:00000000 $t
C:\Users\Admin\AppData\Local\Temp\ccfo34X2.s:63     .text.Set_Pin_Output:00000000 Set_Pin_Output
C:\Users\Admin\AppData\Local\Temp\ccfo34X2.s:112    .text.Set_Pin_Input:00000000 $t
C:\Users\Admin\AppData\Local\Temp\ccfo34X2.s:118    .text.Set_Pin_Input:00000000 Set_Pin_Input
C:\Users\Admin\AppData\Local\Temp\ccfo34X2.s:164    .text.DS18B20_Start:00000000 $t
C:\Users\Admin\AppData\Local\Temp\ccfo34X2.s:170    .text.DS18B20_Start:00000000 DS18B20_Start
C:\Users\Admin\AppData\Local\Temp\ccfo34X2.s:225    .text.DS18B20_Start:00000040 $d
C:\Users\Admin\AppData\Local\Temp\ccfo34X2.s:230    .text.DS18B20_Write:00000000 $t
C:\Users\Admin\AppData\Local\Temp\ccfo34X2.s:236    .text.DS18B20_Write:00000000 DS18B20_Write
C:\Users\Admin\AppData\Local\Temp\ccfo34X2.s:340    .text.DS18B20_Write:00000070 $d
C:\Users\Admin\AppData\Local\Temp\ccfo34X2.s:345    .text.DS18B20_Read:00000000 $t
C:\Users\Admin\AppData\Local\Temp\ccfo34X2.s:351    .text.DS18B20_Read:00000000 DS18B20_Read
C:\Users\Admin\AppData\Local\Temp\ccfo34X2.s:451    .text.DS18B20_Read:00000058 $d
C:\Users\Admin\AppData\Local\Temp\ccfo34X2.s:456    .rodata.DS18B20_Result.str1.4:00000000 $d
C:\Users\Admin\AppData\Local\Temp\ccfo34X2.s:462    .text.DS18B20_Result:00000000 $t
C:\Users\Admin\AppData\Local\Temp\ccfo34X2.s:468    .text.DS18B20_Result:00000000 DS18B20_Result
C:\Users\Admin\AppData\Local\Temp\ccfo34X2.s:569    .text.DS18B20_Result:00000064 $d
C:\Users\Admin\AppData\Local\Temp\ccfo34X2.s:574    .text.DHT11_Start:00000000 $t
C:\Users\Admin\AppData\Local\Temp\ccfo34X2.s:580    .text.DHT11_Start:00000000 DHT11_Start
C:\Users\Admin\AppData\Local\Temp\ccfo34X2.s:627    .text.DHT11_Start:00000038 $d
C:\Users\Admin\AppData\Local\Temp\ccfo34X2.s:632    .text.DHT11_Check_Response:00000000 $t
C:\Users\Admin\AppData\Local\Temp\ccfo34X2.s:638    .text.DHT11_Check_Response:00000000 DHT11_Check_Response
C:\Users\Admin\AppData\Local\Temp\ccfo34X2.s:693    .text.DHT11_Check_Response:00000034 $d
C:\Users\Admin\AppData\Local\Temp\ccfo34X2.s:698    .text.DHT11_Read:00000000 $t
C:\Users\Admin\AppData\Local\Temp\ccfo34X2.s:704    .text.DHT11_Read:00000000 DHT11_Read
C:\Users\Admin\AppData\Local\Temp\ccfo34X2.s:805    .text.DHT11_Read:00000058 $d
C:\Users\Admin\AppData\Local\Temp\ccfo34X2.s:810    .rodata.DHT11_Result.str1.4:00000000 $d
C:\Users\Admin\AppData\Local\Temp\ccfo34X2.s:814    .text.DHT11_Result:00000000 $t
C:\Users\Admin\AppData\Local\Temp\ccfo34X2.s:820    .text.DHT11_Result:00000000 DHT11_Result
C:\Users\Admin\AppData\Local\Temp\ccfo34X2.s:916    .text.DHT11_Result:00000048 $d
C:\Users\Admin\AppData\Local\Temp\ccfo34X2.s:922    .text.Level_Result:00000000 $t
C:\Users\Admin\AppData\Local\Temp\ccfo34X2.s:928    .text.Level_Result:00000000 Level_Result
C:\Users\Admin\AppData\Local\Temp\ccfo34X2.s:967    .text.Level_Result:00000020 $d
C:\Users\Admin\AppData\Local\Temp\ccfo34X2.s:976    .text.Accqui_Result:00000000 $t
C:\Users\Admin\AppData\Local\Temp\ccfo34X2.s:982    .text.Accqui_Result:00000000 Accqui_Result
C:\Users\Admin\AppData\Local\Temp\ccfo34X2.s:1023   .text.Accqui_Result:00000028 $d
C:\Users\Admin\AppData\Local\Temp\ccfo34X2.s:1034   .bss.detect:00000000 detect
C:\Users\Admin\AppData\Local\Temp\ccfo34X2.s:1031   .bss.detect:00000000 $d

UNDEFINED SYMBOLS
htim1
HAL_GPIO_Init
HAL_GPIO_WritePin
HAL_GPIO_ReadPin
__aeabi_ui2f
__aeabi_fmul
log_data
HAL_Delay
__aeabi_fsub
HAL_ADC_GetValue
hadc2
__aeabi_f2d
ARM GAS  C:\Users\Admin\AppData\Local\Temp\ccfo34X2.s 			page 26


__aeabi_dmul
__aeabi_d2f
hadc1
