ARM GAS  C:\Users\Admin\AppData\Local\Temp\ccCdQXHc.s 			page 1


   1              		.cpu cortex-m3
   2              		.arch armv7-m
   3              		.fpu softvfp
   4              		.eabi_attribute 20, 1
   5              		.eabi_attribute 21, 1
   6              		.eabi_attribute 23, 3
   7              		.eabi_attribute 24, 1
   8              		.eabi_attribute 25, 1
   9              		.eabi_attribute 26, 1
  10              		.eabi_attribute 30, 1
  11              		.eabi_attribute 34, 1
  12              		.eabi_attribute 18, 4
  13              		.file	"sensors.c"
  14              		.text
  15              	.Ltext0:
  16              		.cfi_sections	.debug_frame
  17              		.section	.text.delay,"ax",%progbits
  18              		.align	1
  19              		.global	delay
  20              		.syntax unified
  21              		.thumb
  22              		.thumb_func
  24              	delay:
  25              	.LVL0:
  26              	.LFB68:
  27              		.file 1 "Core/Src/sensors.c"
   1:Core/Src/sensors.c **** #include "sensors.h"
   2:Core/Src/sensors.c **** 
   3:Core/Src/sensors.c **** 
   4:Core/Src/sensors.c **** 
   5:Core/Src/sensors.c **** enum State
   6:Core/Src/sensors.c **** {
   7:Core/Src/sensors.c **** 	Stop,
   8:Core/Src/sensors.c **** 	Move
   9:Core/Src/sensors.c **** };
  10:Core/Src/sensors.c **** 
  11:Core/Src/sensors.c **** int detect;
  12:Core/Src/sensors.c **** 
  13:Core/Src/sensors.c **** void delay(uint16_t time)
  14:Core/Src/sensors.c **** {
  28              		.loc 1 14 1 view -0
  29              		.cfi_startproc
  30              		@ args = 0, pretend = 0, frame = 0
  31              		@ frame_needed = 0, uses_anonymous_args = 0
  32              		@ link register save eliminated.
  15:Core/Src/sensors.c **** 	/* change your code here for the delay in microseconds */
  16:Core/Src/sensors.c **** 	__HAL_TIM_SET_COUNTER(&htim1, 0);
  33              		.loc 1 16 2 view .LVU1
  34 0000 034B     		ldr	r3, .L3
  35 0002 1A68     		ldr	r2, [r3]
  36 0004 0023     		movs	r3, #0
  37 0006 5362     		str	r3, [r2, #36]
  17:Core/Src/sensors.c **** 	while ((__HAL_TIM_GET_COUNTER(&htim1)) < time)
  38              		.loc 1 17 2 view .LVU2
  39              	.L2:
  18:Core/Src/sensors.c **** 		;
  40              		.loc 1 18 3 discriminator 1 view .LVU3
ARM GAS  C:\Users\Admin\AppData\Local\Temp\ccCdQXHc.s 			page 2


  17:Core/Src/sensors.c **** 	while ((__HAL_TIM_GET_COUNTER(&htim1)) < time)
  41              		.loc 1 17 8 discriminator 1 view .LVU4
  17:Core/Src/sensors.c **** 	while ((__HAL_TIM_GET_COUNTER(&htim1)) < time)
  42              		.loc 1 17 10 is_stmt 0 discriminator 1 view .LVU5
  43 0008 536A     		ldr	r3, [r2, #36]
  17:Core/Src/sensors.c **** 	while ((__HAL_TIM_GET_COUNTER(&htim1)) < time)
  44              		.loc 1 17 8 discriminator 1 view .LVU6
  45 000a 8342     		cmp	r3, r0
  46 000c FCD3     		bcc	.L2
  19:Core/Src/sensors.c **** }
  47              		.loc 1 19 1 view .LVU7
  48 000e 7047     		bx	lr
  49              	.L4:
  50              		.align	2
  51              	.L3:
  52 0010 00000000 		.word	htim1
  53              		.cfi_endproc
  54              	.LFE68:
  56              		.section	.text.Set_Pin_Output,"ax",%progbits
  57              		.align	1
  58              		.global	Set_Pin_Output
  59              		.syntax unified
  60              		.thumb
  61              		.thumb_func
  63              	Set_Pin_Output:
  64              	.LVL1:
  65              	.LFB69:
  20:Core/Src/sensors.c **** 
  21:Core/Src/sensors.c **** void Set_Pin_Output(GPIO_TypeDef *GPIOx, uint16_t GPIO_Pin)
  22:Core/Src/sensors.c **** {
  66              		.loc 1 22 1 is_stmt 1 view -0
  67              		.cfi_startproc
  68              		@ args = 0, pretend = 0, frame = 16
  69              		@ frame_needed = 0, uses_anonymous_args = 0
  70              		.loc 1 22 1 is_stmt 0 view .LVU9
  71 0000 00B5     		push	{lr}
  72              	.LCFI0:
  73              		.cfi_def_cfa_offset 4
  74              		.cfi_offset 14, -4
  75 0002 85B0     		sub	sp, sp, #20
  76              	.LCFI1:
  77              		.cfi_def_cfa_offset 24
  23:Core/Src/sensors.c **** 	GPIO_InitTypeDef GPIO_InitStruct = {0};
  78              		.loc 1 23 2 is_stmt 1 view .LVU10
  79              		.loc 1 23 19 is_stmt 0 view .LVU11
  80 0004 0023     		movs	r3, #0
  81 0006 0093     		str	r3, [sp]
  82 0008 0193     		str	r3, [sp, #4]
  83 000a 0293     		str	r3, [sp, #8]
  84 000c 0393     		str	r3, [sp, #12]
  24:Core/Src/sensors.c **** 	GPIO_InitStruct.Pin = GPIO_Pin;
  85              		.loc 1 24 2 is_stmt 1 view .LVU12
  86              		.loc 1 24 22 is_stmt 0 view .LVU13
  87 000e 0091     		str	r1, [sp]
  25:Core/Src/sensors.c **** 	GPIO_InitStruct.Mode = GPIO_MODE_OUTPUT_PP;
  88              		.loc 1 25 2 is_stmt 1 view .LVU14
  89              		.loc 1 25 23 is_stmt 0 view .LVU15
ARM GAS  C:\Users\Admin\AppData\Local\Temp\ccCdQXHc.s 			page 3


  90 0010 0123     		movs	r3, #1
  91 0012 0193     		str	r3, [sp, #4]
  26:Core/Src/sensors.c **** 	GPIO_InitStruct.Speed = GPIO_SPEED_FREQ_LOW;
  92              		.loc 1 26 2 is_stmt 1 view .LVU16
  93              		.loc 1 26 24 is_stmt 0 view .LVU17
  94 0014 0223     		movs	r3, #2
  95 0016 0393     		str	r3, [sp, #12]
  27:Core/Src/sensors.c **** 	HAL_GPIO_Init(GPIOx, &GPIO_InitStruct);
  96              		.loc 1 27 2 is_stmt 1 view .LVU18
  97 0018 6946     		mov	r1, sp
  98              	.LVL2:
  99              		.loc 1 27 2 is_stmt 0 view .LVU19
 100 001a FFF7FEFF 		bl	HAL_GPIO_Init
 101              	.LVL3:
  28:Core/Src/sensors.c **** }
 102              		.loc 1 28 1 view .LVU20
 103 001e 05B0     		add	sp, sp, #20
 104              	.LCFI2:
 105              		.cfi_def_cfa_offset 4
 106              		@ sp needed
 107 0020 5DF804FB 		ldr	pc, [sp], #4
 108              		.cfi_endproc
 109              	.LFE69:
 111              		.section	.text.Set_Pin_Input,"ax",%progbits
 112              		.align	1
 113              		.global	Set_Pin_Input
 114              		.syntax unified
 115              		.thumb
 116              		.thumb_func
 118              	Set_Pin_Input:
 119              	.LVL4:
 120              	.LFB70:
  29:Core/Src/sensors.c **** 
  30:Core/Src/sensors.c **** void Set_Pin_Input(GPIO_TypeDef *GPIOx, uint16_t GPIO_Pin)
  31:Core/Src/sensors.c **** {
 121              		.loc 1 31 1 is_stmt 1 view -0
 122              		.cfi_startproc
 123              		@ args = 0, pretend = 0, frame = 16
 124              		@ frame_needed = 0, uses_anonymous_args = 0
 125              		.loc 1 31 1 is_stmt 0 view .LVU22
 126 0000 00B5     		push	{lr}
 127              	.LCFI3:
 128              		.cfi_def_cfa_offset 4
 129              		.cfi_offset 14, -4
 130 0002 85B0     		sub	sp, sp, #20
 131              	.LCFI4:
 132              		.cfi_def_cfa_offset 24
  32:Core/Src/sensors.c **** 	GPIO_InitTypeDef GPIO_InitStruct = {0};
 133              		.loc 1 32 2 is_stmt 1 view .LVU23
 134              		.loc 1 32 19 is_stmt 0 view .LVU24
 135 0004 0023     		movs	r3, #0
 136 0006 0093     		str	r3, [sp]
 137 0008 0193     		str	r3, [sp, #4]
 138 000a 0293     		str	r3, [sp, #8]
 139 000c 0393     		str	r3, [sp, #12]
  33:Core/Src/sensors.c **** 	GPIO_InitStruct.Pin = GPIO_Pin;
 140              		.loc 1 33 2 is_stmt 1 view .LVU25
ARM GAS  C:\Users\Admin\AppData\Local\Temp\ccCdQXHc.s 			page 4


 141              		.loc 1 33 22 is_stmt 0 view .LVU26
 142 000e 0091     		str	r1, [sp]
  34:Core/Src/sensors.c **** 	GPIO_InitStruct.Mode = GPIO_MODE_INPUT;
 143              		.loc 1 34 2 is_stmt 1 view .LVU27
  35:Core/Src/sensors.c **** 	GPIO_InitStruct.Pull = GPIO_PULLUP;
 144              		.loc 1 35 2 view .LVU28
 145              		.loc 1 35 23 is_stmt 0 view .LVU29
 146 0010 0123     		movs	r3, #1
 147 0012 0293     		str	r3, [sp, #8]
  36:Core/Src/sensors.c **** 	HAL_GPIO_Init(GPIOx, &GPIO_InitStruct);
 148              		.loc 1 36 2 is_stmt 1 view .LVU30
 149 0014 6946     		mov	r1, sp
 150              	.LVL5:
 151              		.loc 1 36 2 is_stmt 0 view .LVU31
 152 0016 FFF7FEFF 		bl	HAL_GPIO_Init
 153              	.LVL6:
  37:Core/Src/sensors.c **** }
 154              		.loc 1 37 1 view .LVU32
 155 001a 05B0     		add	sp, sp, #20
 156              	.LCFI5:
 157              		.cfi_def_cfa_offset 4
 158              		@ sp needed
 159 001c 5DF804FB 		ldr	pc, [sp], #4
 160              		.cfi_endproc
 161              	.LFE70:
 163              		.section	.text.DS18B20_Start,"ax",%progbits
 164              		.align	1
 165              		.global	DS18B20_Start
 166              		.syntax unified
 167              		.thumb
 168              		.thumb_func
 170              	DS18B20_Start:
 171              	.LFB71:
  38:Core/Src/sensors.c **** 
  39:Core/Src/sensors.c **** /***************************DS18B20***********************/
  40:Core/Src/sensors.c **** uint8_t DS18B20_Start(void)
  41:Core/Src/sensors.c **** {
 172              		.loc 1 41 1 is_stmt 1 view -0
 173              		.cfi_startproc
 174              		@ args = 0, pretend = 0, frame = 0
 175              		@ frame_needed = 0, uses_anonymous_args = 0
 176 0000 10B5     		push	{r4, lr}
 177              	.LCFI6:
 178              		.cfi_def_cfa_offset 8
 179              		.cfi_offset 4, -8
 180              		.cfi_offset 14, -4
  42:Core/Src/sensors.c **** 	uint8_t Response = 0;
 181              		.loc 1 42 2 view .LVU34
 182              	.LVL7:
  43:Core/Src/sensors.c **** 	Set_Pin_Output(DS18B20_SENSOR_GPIO_Port, DS18B20_SENSOR_Pin);		// set the pin as output
 183              		.loc 1 43 2 view .LVU35
 184 0002 114C     		ldr	r4, .L13
 185 0004 0821     		movs	r1, #8
 186 0006 2046     		mov	r0, r4
 187 0008 FFF7FEFF 		bl	Set_Pin_Output
 188              	.LVL8:
  44:Core/Src/sensors.c **** 	HAL_GPIO_WritePin(DS18B20_SENSOR_GPIO_Port, DS18B20_SENSOR_Pin, 0); // pull the pin low
ARM GAS  C:\Users\Admin\AppData\Local\Temp\ccCdQXHc.s 			page 5


 189              		.loc 1 44 2 view .LVU36
 190 000c 0022     		movs	r2, #0
 191 000e 0821     		movs	r1, #8
 192 0010 2046     		mov	r0, r4
 193 0012 FFF7FEFF 		bl	HAL_GPIO_WritePin
 194              	.LVL9:
  45:Core/Src/sensors.c **** 	delay(480);															// delay according to datasheet
 195              		.loc 1 45 2 view .LVU37
 196 0016 4FF4F070 		mov	r0, #480
 197 001a FFF7FEFF 		bl	delay
 198              	.LVL10:
  46:Core/Src/sensors.c **** 
  47:Core/Src/sensors.c **** 	Set_Pin_Input(DS18B20_SENSOR_GPIO_Port, DS18B20_SENSOR_Pin); // set the pin as input
 199              		.loc 1 47 2 view .LVU38
 200 001e 0821     		movs	r1, #8
 201 0020 2046     		mov	r0, r4
 202 0022 FFF7FEFF 		bl	Set_Pin_Input
 203              	.LVL11:
  48:Core/Src/sensors.c **** 	delay(80);													 // delay according to datasheet
 204              		.loc 1 48 2 view .LVU39
 205 0026 5020     		movs	r0, #80
 206 0028 FFF7FEFF 		bl	delay
 207              	.LVL12:
  49:Core/Src/sensors.c **** 
  50:Core/Src/sensors.c **** 	if (!(HAL_GPIO_ReadPin(DS18B20_SENSOR_GPIO_Port, DS18B20_SENSOR_Pin)))
 208              		.loc 1 50 2 view .LVU40
 209              		.loc 1 50 8 is_stmt 0 view .LVU41
 210 002c 0821     		movs	r1, #8
 211 002e 2046     		mov	r0, r4
 212 0030 FFF7FEFF 		bl	HAL_GPIO_ReadPin
 213              	.LVL13:
 214              		.loc 1 50 5 view .LVU42
 215 0034 30B9     		cbnz	r0, .L11
  51:Core/Src/sensors.c **** 		Response = 1; // if the pin is low i.e the presence pulse is detected
 216              		.loc 1 51 12 view .LVU43
 217 0036 0124     		movs	r4, #1
 218              	.L10:
 219              	.LVL14:
  52:Core/Src/sensors.c **** 	else
  53:Core/Src/sensors.c **** 		Response = -1;
  54:Core/Src/sensors.c **** 
  55:Core/Src/sensors.c **** 	delay(400); // 480 us delay totally.
 220              		.loc 1 55 2 is_stmt 1 view .LVU44
 221 0038 4FF4C870 		mov	r0, #400
 222 003c FFF7FEFF 		bl	delay
 223              	.LVL15:
  56:Core/Src/sensors.c **** 
  57:Core/Src/sensors.c **** 	return Response;
 224              		.loc 1 57 2 view .LVU45
  58:Core/Src/sensors.c **** }
 225              		.loc 1 58 1 is_stmt 0 view .LVU46
 226 0040 2046     		mov	r0, r4
 227 0042 10BD     		pop	{r4, pc}
 228              	.LVL16:
 229              	.L11:
  53:Core/Src/sensors.c **** 
 230              		.loc 1 53 12 view .LVU47
ARM GAS  C:\Users\Admin\AppData\Local\Temp\ccCdQXHc.s 			page 6


 231 0044 FF24     		movs	r4, #255
 232 0046 F7E7     		b	.L10
 233              	.L14:
 234              		.align	2
 235              	.L13:
 236 0048 00100140 		.word	1073811456
 237              		.cfi_endproc
 238              	.LFE71:
 240              		.section	.text.DS18B20_Write,"ax",%progbits
 241              		.align	1
 242              		.global	DS18B20_Write
 243              		.syntax unified
 244              		.thumb
 245              		.thumb_func
 247              	DS18B20_Write:
 248              	.LVL17:
 249              	.LFB72:
  59:Core/Src/sensors.c **** 
  60:Core/Src/sensors.c **** void DS18B20_Write(uint8_t data)
  61:Core/Src/sensors.c **** {
 250              		.loc 1 61 1 is_stmt 1 view -0
 251              		.cfi_startproc
 252              		@ args = 0, pretend = 0, frame = 0
 253              		@ frame_needed = 0, uses_anonymous_args = 0
 254              		.loc 1 61 1 is_stmt 0 view .LVU49
 255 0000 70B5     		push	{r4, r5, r6, lr}
 256              	.LCFI7:
 257              		.cfi_def_cfa_offset 16
 258              		.cfi_offset 4, -16
 259              		.cfi_offset 5, -12
 260              		.cfi_offset 6, -8
 261              		.cfi_offset 14, -4
 262 0002 0646     		mov	r6, r0
  62:Core/Src/sensors.c **** 	Set_Pin_Output(DS18B20_SENSOR_GPIO_Port, DS18B20_SENSOR_Pin); // set as output
 263              		.loc 1 62 2 is_stmt 1 view .LVU50
 264 0004 0821     		movs	r1, #8
 265 0006 1A48     		ldr	r0, .L22
 266              	.LVL18:
 267              		.loc 1 62 2 is_stmt 0 view .LVU51
 268 0008 FFF7FEFF 		bl	Set_Pin_Output
 269              	.LVL19:
  63:Core/Src/sensors.c **** 
  64:Core/Src/sensors.c **** 	for (int i = 0; i < 8; i++)
 270              		.loc 1 64 2 is_stmt 1 view .LVU52
 271              	.LBB2:
 272              		.loc 1 64 7 view .LVU53
 273              		.loc 1 64 11 is_stmt 0 view .LVU54
 274 000c 0024     		movs	r4, #0
 275              		.loc 1 64 2 view .LVU55
 276 000e 11E0     		b	.L16
 277              	.LVL20:
 278              	.L17:
  65:Core/Src/sensors.c **** 	{
  66:Core/Src/sensors.c **** 
  67:Core/Src/sensors.c **** 		if ((data & (1 << i)) != 0) // if the bit is high
  68:Core/Src/sensors.c **** 		{
  69:Core/Src/sensors.c **** 			// write 1
ARM GAS  C:\Users\Admin\AppData\Local\Temp\ccCdQXHc.s 			page 7


  70:Core/Src/sensors.c **** 
  71:Core/Src/sensors.c **** 			Set_Pin_Output(DS18B20_SENSOR_GPIO_Port, DS18B20_SENSOR_Pin);		// set as output
  72:Core/Src/sensors.c **** 			HAL_GPIO_WritePin(DS18B20_SENSOR_GPIO_Port, DS18B20_SENSOR_Pin, 0); // pull the pin LOW
  73:Core/Src/sensors.c **** 			delay(1);															// wait for 1 us
  74:Core/Src/sensors.c **** 
  75:Core/Src/sensors.c **** 			Set_Pin_Input(DS18B20_SENSOR_GPIO_Port, DS18B20_SENSOR_Pin); // set as input
  76:Core/Src/sensors.c **** 			delay(50);													 // wait for 60 us
  77:Core/Src/sensors.c **** 		}
  78:Core/Src/sensors.c **** 
  79:Core/Src/sensors.c **** 		else // if the bit is low
  80:Core/Src/sensors.c **** 		{
  81:Core/Src/sensors.c **** 			// write 0
  82:Core/Src/sensors.c **** 
  83:Core/Src/sensors.c **** 			Set_Pin_Output(DS18B20_SENSOR_GPIO_Port, DS18B20_SENSOR_Pin);
 279              		.loc 1 83 4 is_stmt 1 view .LVU56
 280 0010 174D     		ldr	r5, .L22
 281 0012 0821     		movs	r1, #8
 282 0014 2846     		mov	r0, r5
 283 0016 FFF7FEFF 		bl	Set_Pin_Output
 284              	.LVL21:
  84:Core/Src/sensors.c **** 			HAL_GPIO_WritePin(DS18B20_SENSOR_GPIO_Port, DS18B20_SENSOR_Pin, 0); // pull the pin LOW
 285              		.loc 1 84 4 view .LVU57
 286 001a 0022     		movs	r2, #0
 287 001c 0821     		movs	r1, #8
 288 001e 2846     		mov	r0, r5
 289 0020 FFF7FEFF 		bl	HAL_GPIO_WritePin
 290              	.LVL22:
  85:Core/Src/sensors.c **** 			delay(50);															// wait for 60 us
 291              		.loc 1 85 4 view .LVU58
 292 0024 3220     		movs	r0, #50
 293 0026 FFF7FEFF 		bl	delay
 294              	.LVL23:
  86:Core/Src/sensors.c **** 
  87:Core/Src/sensors.c **** 			Set_Pin_Input(DS18B20_SENSOR_GPIO_Port, DS18B20_SENSOR_Pin);
 295              		.loc 1 87 4 view .LVU59
 296 002a 0821     		movs	r1, #8
 297 002c 2846     		mov	r0, r5
 298 002e FFF7FEFF 		bl	Set_Pin_Input
 299              	.LVL24:
 300              	.L18:
  64:Core/Src/sensors.c **** 	{
 301              		.loc 1 64 25 discriminator 2 view .LVU60
  64:Core/Src/sensors.c **** 	{
 302              		.loc 1 64 26 is_stmt 0 discriminator 2 view .LVU61
 303 0032 0134     		adds	r4, r4, #1
 304              	.LVL25:
 305              	.L16:
  64:Core/Src/sensors.c **** 	{
 306              		.loc 1 64 18 is_stmt 1 discriminator 1 view .LVU62
  64:Core/Src/sensors.c **** 	{
 307              		.loc 1 64 2 is_stmt 0 discriminator 1 view .LVU63
 308 0034 072C     		cmp	r4, #7
 309 0036 19DC     		bgt	.L21
  67:Core/Src/sensors.c **** 		{
 310              		.loc 1 67 3 is_stmt 1 view .LVU64
  67:Core/Src/sensors.c **** 		{
 311              		.loc 1 67 25 is_stmt 0 view .LVU65
ARM GAS  C:\Users\Admin\AppData\Local\Temp\ccCdQXHc.s 			page 8


 312 0038 46FA04F3 		asr	r3, r6, r4
  67:Core/Src/sensors.c **** 		{
 313              		.loc 1 67 6 view .LVU66
 314 003c 13F0010F 		tst	r3, #1
 315 0040 E6D0     		beq	.L17
  71:Core/Src/sensors.c **** 			HAL_GPIO_WritePin(DS18B20_SENSOR_GPIO_Port, DS18B20_SENSOR_Pin, 0); // pull the pin LOW
 316              		.loc 1 71 4 is_stmt 1 view .LVU67
 317 0042 0B4D     		ldr	r5, .L22
 318 0044 0821     		movs	r1, #8
 319 0046 2846     		mov	r0, r5
 320 0048 FFF7FEFF 		bl	Set_Pin_Output
 321              	.LVL26:
  72:Core/Src/sensors.c **** 			delay(1);															// wait for 1 us
 322              		.loc 1 72 4 view .LVU68
 323 004c 0022     		movs	r2, #0
 324 004e 0821     		movs	r1, #8
 325 0050 2846     		mov	r0, r5
 326 0052 FFF7FEFF 		bl	HAL_GPIO_WritePin
 327              	.LVL27:
  73:Core/Src/sensors.c **** 
 328              		.loc 1 73 4 view .LVU69
 329 0056 0120     		movs	r0, #1
 330 0058 FFF7FEFF 		bl	delay
 331              	.LVL28:
  75:Core/Src/sensors.c **** 			delay(50);													 // wait for 60 us
 332              		.loc 1 75 4 view .LVU70
 333 005c 0821     		movs	r1, #8
 334 005e 2846     		mov	r0, r5
 335 0060 FFF7FEFF 		bl	Set_Pin_Input
 336              	.LVL29:
  76:Core/Src/sensors.c **** 		}
 337              		.loc 1 76 4 view .LVU71
 338 0064 3220     		movs	r0, #50
 339 0066 FFF7FEFF 		bl	delay
 340              	.LVL30:
 341 006a E2E7     		b	.L18
 342              	.L21:
 343              	.LBE2:
  88:Core/Src/sensors.c **** 		}
  89:Core/Src/sensors.c **** 	}
  90:Core/Src/sensors.c **** }
 344              		.loc 1 90 1 is_stmt 0 view .LVU72
 345 006c 70BD     		pop	{r4, r5, r6, pc}
 346              	.LVL31:
 347              	.L23:
 348              		.loc 1 90 1 view .LVU73
 349 006e 00BF     		.align	2
 350              	.L22:
 351 0070 00100140 		.word	1073811456
 352              		.cfi_endproc
 353              	.LFE72:
 355              		.section	.text.DS18B20_Read,"ax",%progbits
 356              		.align	1
 357              		.global	DS18B20_Read
 358              		.syntax unified
 359              		.thumb
 360              		.thumb_func
ARM GAS  C:\Users\Admin\AppData\Local\Temp\ccCdQXHc.s 			page 9


 362              	DS18B20_Read:
 363              	.LFB73:
  91:Core/Src/sensors.c **** 
  92:Core/Src/sensors.c **** uint8_t DS18B20_Read(void)
  93:Core/Src/sensors.c **** {
 364              		.loc 1 93 1 is_stmt 1 view -0
 365              		.cfi_startproc
 366              		@ args = 0, pretend = 0, frame = 0
 367              		@ frame_needed = 0, uses_anonymous_args = 0
 368 0000 70B5     		push	{r4, r5, r6, lr}
 369              	.LCFI8:
 370              		.cfi_def_cfa_offset 16
 371              		.cfi_offset 4, -16
 372              		.cfi_offset 5, -12
 373              		.cfi_offset 6, -8
 374              		.cfi_offset 14, -4
  94:Core/Src/sensors.c **** 	uint8_t value = 0;
 375              		.loc 1 94 2 view .LVU75
 376              	.LVL32:
  95:Core/Src/sensors.c **** 
  96:Core/Src/sensors.c **** 	Set_Pin_Input(DS18B20_SENSOR_GPIO_Port, DS18B20_SENSOR_Pin);
 377              		.loc 1 96 2 view .LVU76
 378 0002 0821     		movs	r1, #8
 379 0004 1448     		ldr	r0, .L30
 380 0006 FFF7FEFF 		bl	Set_Pin_Input
 381              	.LVL33:
  97:Core/Src/sensors.c **** 
  98:Core/Src/sensors.c **** 	for (int i = 0; i < 8; i++)
 382              		.loc 1 98 2 view .LVU77
 383              	.LBB3:
 384              		.loc 1 98 7 view .LVU78
 385              		.loc 1 98 11 is_stmt 0 view .LVU79
 386 000a 0025     		movs	r5, #0
 387              	.LBE3:
  94:Core/Src/sensors.c **** 
 388              		.loc 1 94 10 view .LVU80
 389 000c 2E46     		mov	r6, r5
 390              	.LBB4:
 391              		.loc 1 98 2 view .LVU81
 392 000e 03E0     		b	.L25
 393              	.LVL34:
 394              	.L26:
  99:Core/Src/sensors.c **** 	{
 100:Core/Src/sensors.c **** 		Set_Pin_Output(DS18B20_SENSOR_GPIO_Port, DS18B20_SENSOR_Pin); // set as output
 101:Core/Src/sensors.c **** 
 102:Core/Src/sensors.c **** 		HAL_GPIO_WritePin(DS18B20_SENSOR_GPIO_Port, DS18B20_SENSOR_Pin, 0); // pull the data pin LOW
 103:Core/Src/sensors.c **** 		delay(1);															// wait for > 1us
 104:Core/Src/sensors.c **** 
 105:Core/Src/sensors.c **** 		Set_Pin_Input(DS18B20_SENSOR_GPIO_Port, DS18B20_SENSOR_Pin);		// set as input
 106:Core/Src/sensors.c **** 		if (HAL_GPIO_ReadPin(DS18B20_SENSOR_GPIO_Port, DS18B20_SENSOR_Pin)) // if the pin is HIGH
 107:Core/Src/sensors.c **** 		{
 108:Core/Src/sensors.c **** 			value |= 1 << i; // read = 1
 109:Core/Src/sensors.c **** 		}
 110:Core/Src/sensors.c **** 		delay(50); // wait for 60 us
 395              		.loc 1 110 3 is_stmt 1 discriminator 2 view .LVU82
 396 0010 3220     		movs	r0, #50
 397 0012 FFF7FEFF 		bl	delay
ARM GAS  C:\Users\Admin\AppData\Local\Temp\ccCdQXHc.s 			page 10


 398              	.LVL35:
  98:Core/Src/sensors.c **** 	{
 399              		.loc 1 98 25 discriminator 2 view .LVU83
  98:Core/Src/sensors.c **** 	{
 400              		.loc 1 98 26 is_stmt 0 discriminator 2 view .LVU84
 401 0016 0135     		adds	r5, r5, #1
 402              	.LVL36:
 403              	.L25:
  98:Core/Src/sensors.c **** 	{
 404              		.loc 1 98 18 is_stmt 1 discriminator 1 view .LVU85
  98:Core/Src/sensors.c **** 	{
 405              		.loc 1 98 2 is_stmt 0 discriminator 1 view .LVU86
 406 0018 072D     		cmp	r5, #7
 407 001a 1BDC     		bgt	.L29
 100:Core/Src/sensors.c **** 
 408              		.loc 1 100 3 is_stmt 1 view .LVU87
 409 001c 0E4C     		ldr	r4, .L30
 410 001e 0821     		movs	r1, #8
 411 0020 2046     		mov	r0, r4
 412 0022 FFF7FEFF 		bl	Set_Pin_Output
 413              	.LVL37:
 102:Core/Src/sensors.c **** 		delay(1);															// wait for > 1us
 414              		.loc 1 102 3 view .LVU88
 415 0026 0022     		movs	r2, #0
 416 0028 0821     		movs	r1, #8
 417 002a 2046     		mov	r0, r4
 418 002c FFF7FEFF 		bl	HAL_GPIO_WritePin
 419              	.LVL38:
 103:Core/Src/sensors.c **** 
 420              		.loc 1 103 3 view .LVU89
 421 0030 0120     		movs	r0, #1
 422 0032 FFF7FEFF 		bl	delay
 423              	.LVL39:
 105:Core/Src/sensors.c **** 		if (HAL_GPIO_ReadPin(DS18B20_SENSOR_GPIO_Port, DS18B20_SENSOR_Pin)) // if the pin is HIGH
 424              		.loc 1 105 3 view .LVU90
 425 0036 0821     		movs	r1, #8
 426 0038 2046     		mov	r0, r4
 427 003a FFF7FEFF 		bl	Set_Pin_Input
 428              	.LVL40:
 106:Core/Src/sensors.c **** 		{
 429              		.loc 1 106 3 view .LVU91
 106:Core/Src/sensors.c **** 		{
 430              		.loc 1 106 7 is_stmt 0 view .LVU92
 431 003e 0821     		movs	r1, #8
 432 0040 2046     		mov	r0, r4
 433 0042 FFF7FEFF 		bl	HAL_GPIO_ReadPin
 434              	.LVL41:
 106:Core/Src/sensors.c **** 		{
 435              		.loc 1 106 6 view .LVU93
 436 0046 0028     		cmp	r0, #0
 437 0048 E2D0     		beq	.L26
 108:Core/Src/sensors.c **** 		}
 438              		.loc 1 108 4 is_stmt 1 view .LVU94
 108:Core/Src/sensors.c **** 		}
 439              		.loc 1 108 15 is_stmt 0 view .LVU95
 440 004a 0123     		movs	r3, #1
 441 004c AB40     		lsls	r3, r3, r5
ARM GAS  C:\Users\Admin\AppData\Local\Temp\ccCdQXHc.s 			page 11


 108:Core/Src/sensors.c **** 		}
 442              		.loc 1 108 10 view .LVU96
 443 004e 1E43     		orrs	r6, r6, r3
 444              	.LVL42:
 108:Core/Src/sensors.c **** 		}
 445              		.loc 1 108 10 view .LVU97
 446 0050 F6B2     		uxtb	r6, r6
 447              	.LVL43:
 108:Core/Src/sensors.c **** 		}
 448              		.loc 1 108 10 view .LVU98
 449 0052 DDE7     		b	.L26
 450              	.L29:
 108:Core/Src/sensors.c **** 		}
 451              		.loc 1 108 10 view .LVU99
 452              	.LBE4:
 111:Core/Src/sensors.c **** 	}
 112:Core/Src/sensors.c **** 	return value;
 453              		.loc 1 112 2 is_stmt 1 view .LVU100
 113:Core/Src/sensors.c **** }
 454              		.loc 1 113 1 is_stmt 0 view .LVU101
 455 0054 3046     		mov	r0, r6
 456 0056 70BD     		pop	{r4, r5, r6, pc}
 457              	.LVL44:
 458              	.L31:
 459              		.loc 1 113 1 view .LVU102
 460              		.align	2
 461              	.L30:
 462 0058 00100140 		.word	1073811456
 463              		.cfi_endproc
 464              	.LFE73:
 466              		.global	__aeabi_ui2f
 467              		.global	__aeabi_fmul
 468              		.section	.text.DS18B20_Result,"ax",%progbits
 469              		.align	1
 470              		.global	DS18B20_Result
 471              		.syntax unified
 472              		.thumb
 473              		.thumb_func
 475              	DS18B20_Result:
 476              	.LFB74:
 114:Core/Src/sensors.c **** 
 115:Core/Src/sensors.c **** float DS18B20_Result(void)
 116:Core/Src/sensors.c **** {
 477              		.loc 1 116 1 is_stmt 1 view -0
 478              		.cfi_startproc
 479              		@ args = 0, pretend = 0, frame = 0
 480              		@ frame_needed = 0, uses_anonymous_args = 0
 481 0000 10B5     		push	{r4, lr}
 482              	.LCFI9:
 483              		.cfi_def_cfa_offset 8
 484              		.cfi_offset 4, -8
 485              		.cfi_offset 14, -4
 117:Core/Src/sensors.c **** 	uint8_t Presence = 0;
 486              		.loc 1 117 2 view .LVU104
 487              	.LVL45:
 118:Core/Src/sensors.c **** 	uint8_t Temp_byte1, Temp_byte2;
 488              		.loc 1 118 2 view .LVU105
ARM GAS  C:\Users\Admin\AppData\Local\Temp\ccCdQXHc.s 			page 12


 119:Core/Src/sensors.c **** 	uint16_t TEMP;
 489              		.loc 1 119 2 view .LVU106
 120:Core/Src/sensors.c **** 	float Temperature;
 490              		.loc 1 120 2 view .LVU107
 121:Core/Src/sensors.c **** 	Presence = DS18B20_Start();
 491              		.loc 1 121 2 view .LVU108
 492              		.loc 1 121 13 is_stmt 0 view .LVU109
 493 0002 FFF7FEFF 		bl	DS18B20_Start
 494              	.LVL46:
 122:Core/Src/sensors.c **** 	HAL_Delay(1);
 495              		.loc 1 122 2 is_stmt 1 view .LVU110
 496 0006 0120     		movs	r0, #1
 497 0008 FFF7FEFF 		bl	HAL_Delay
 498              	.LVL47:
 123:Core/Src/sensors.c **** 	DS18B20_Write(0xCC); // skip ROM
 499              		.loc 1 123 2 view .LVU111
 500 000c CC20     		movs	r0, #204
 501 000e FFF7FEFF 		bl	DS18B20_Write
 502              	.LVL48:
 124:Core/Src/sensors.c **** 	DS18B20_Write(0x44); // convert t
 503              		.loc 1 124 2 view .LVU112
 504 0012 4420     		movs	r0, #68
 505 0014 FFF7FEFF 		bl	DS18B20_Write
 506              	.LVL49:
 125:Core/Src/sensors.c **** 	HAL_Delay(800);
 507              		.loc 1 125 2 view .LVU113
 508 0018 4FF44870 		mov	r0, #800
 509 001c FFF7FEFF 		bl	HAL_Delay
 510              	.LVL50:
 126:Core/Src/sensors.c **** 
 127:Core/Src/sensors.c **** 	Presence = DS18B20_Start();
 511              		.loc 1 127 2 view .LVU114
 512              		.loc 1 127 13 is_stmt 0 view .LVU115
 513 0020 FFF7FEFF 		bl	DS18B20_Start
 514              	.LVL51:
 128:Core/Src/sensors.c **** 	HAL_Delay(1);
 515              		.loc 1 128 2 is_stmt 1 view .LVU116
 516 0024 0120     		movs	r0, #1
 517 0026 FFF7FEFF 		bl	HAL_Delay
 518              	.LVL52:
 129:Core/Src/sensors.c **** 	DS18B20_Write(0xCC); // skip ROM
 519              		.loc 1 129 2 view .LVU117
 520 002a CC20     		movs	r0, #204
 521 002c FFF7FEFF 		bl	DS18B20_Write
 522              	.LVL53:
 130:Core/Src/sensors.c **** 	DS18B20_Write(0xBE); // Read Scratch-pad
 523              		.loc 1 130 2 view .LVU118
 524 0030 BE20     		movs	r0, #190
 525 0032 FFF7FEFF 		bl	DS18B20_Write
 526              	.LVL54:
 131:Core/Src/sensors.c **** 
 132:Core/Src/sensors.c **** 	Temp_byte1 = DS18B20_Read();
 527              		.loc 1 132 2 view .LVU119
 528              		.loc 1 132 15 is_stmt 0 view .LVU120
 529 0036 FFF7FEFF 		bl	DS18B20_Read
 530              	.LVL55:
 531 003a 0446     		mov	r4, r0
ARM GAS  C:\Users\Admin\AppData\Local\Temp\ccCdQXHc.s 			page 13


 532              	.LVL56:
 133:Core/Src/sensors.c **** 	Temp_byte2 = DS18B20_Read();
 533              		.loc 1 133 2 is_stmt 1 view .LVU121
 534              		.loc 1 133 15 is_stmt 0 view .LVU122
 535 003c FFF7FEFF 		bl	DS18B20_Read
 536              	.LVL57:
 134:Core/Src/sensors.c **** 	TEMP = (Temp_byte2 << 8) | Temp_byte1;
 537              		.loc 1 134 2 is_stmt 1 view .LVU123
 538              		.loc 1 134 27 is_stmt 0 view .LVU124
 539 0040 44EA0020 		orr	r0, r4, r0, lsl #8
 540              	.LVL58:
 135:Core/Src/sensors.c **** 	Temperature = (float)TEMP / 16;
 541              		.loc 1 135 2 is_stmt 1 view .LVU125
 542              		.loc 1 135 16 is_stmt 0 view .LVU126
 543 0044 80B2     		uxth	r0, r0
 544              		.loc 1 135 16 view .LVU127
 545 0046 FFF7FEFF 		bl	__aeabi_ui2f
 546              	.LVL59:
 547              		.loc 1 135 14 view .LVU128
 548 004a 4FF07651 		mov	r1, #1031798784
 549 004e FFF7FEFF 		bl	__aeabi_fmul
 550              	.LVL60:
 136:Core/Src/sensors.c **** 	return Temperature;
 551              		.loc 1 136 2 is_stmt 1 view .LVU129
 137:Core/Src/sensors.c **** }
 552              		.loc 1 137 1 is_stmt 0 view .LVU130
 553 0052 10BD     		pop	{r4, pc}
 554              		.loc 1 137 1 view .LVU131
 555              		.cfi_endproc
 556              	.LFE74:
 558              		.section	.text.DHT11_Start,"ax",%progbits
 559              		.align	1
 560              		.global	DHT11_Start
 561              		.syntax unified
 562              		.thumb
 563              		.thumb_func
 565              	DHT11_Start:
 566              	.LFB75:
 138:Core/Src/sensors.c **** 
 139:Core/Src/sensors.c **** /*****************************DHT11*************************/
 140:Core/Src/sensors.c **** void DHT11_Start(void)
 141:Core/Src/sensors.c **** {
 567              		.loc 1 141 1 is_stmt 1 view -0
 568              		.cfi_startproc
 569              		@ args = 0, pretend = 0, frame = 0
 570              		@ frame_needed = 0, uses_anonymous_args = 0
 571 0000 10B5     		push	{r4, lr}
 572              	.LCFI10:
 573              		.cfi_def_cfa_offset 8
 574              		.cfi_offset 4, -8
 575              		.cfi_offset 14, -4
 142:Core/Src/sensors.c **** 	Set_Pin_Output(DHT11_SENSOR_GPIO_Port, DHT11_SENSOR_Pin);		// set the pin as output
 576              		.loc 1 142 2 view .LVU133
 577 0002 0D4C     		ldr	r4, .L36
 578 0004 1021     		movs	r1, #16
 579 0006 2046     		mov	r0, r4
 580 0008 FFF7FEFF 		bl	Set_Pin_Output
ARM GAS  C:\Users\Admin\AppData\Local\Temp\ccCdQXHc.s 			page 14


 581              	.LVL61:
 143:Core/Src/sensors.c **** 	HAL_GPIO_WritePin(DHT11_SENSOR_GPIO_Port, DHT11_SENSOR_Pin, 0); // pull the pin low
 582              		.loc 1 143 2 view .LVU134
 583 000c 0022     		movs	r2, #0
 584 000e 1021     		movs	r1, #16
 585 0010 2046     		mov	r0, r4
 586 0012 FFF7FEFF 		bl	HAL_GPIO_WritePin
 587              	.LVL62:
 144:Core/Src/sensors.c **** 	delay(18000);													// wait for 18ms		1.2ms for DHT22 10ms
 588              		.loc 1 144 2 view .LVU135
 589 0016 44F25060 		movw	r0, #18000
 590 001a FFF7FEFF 		bl	delay
 591              	.LVL63:
 145:Core/Src/sensors.c **** 	HAL_GPIO_WritePin(DHT11_SENSOR_GPIO_Port, DHT11_SENSOR_Pin, 1); // pull the pin high
 592              		.loc 1 145 2 view .LVU136
 593 001e 0122     		movs	r2, #1
 594 0020 1021     		movs	r1, #16
 595 0022 2046     		mov	r0, r4
 596 0024 FFF7FEFF 		bl	HAL_GPIO_WritePin
 597              	.LVL64:
 146:Core/Src/sensors.c **** 	delay(20);														// wait for 20us
 598              		.loc 1 146 2 view .LVU137
 599 0028 1420     		movs	r0, #20
 600 002a FFF7FEFF 		bl	delay
 601              	.LVL65:
 147:Core/Src/sensors.c **** 	Set_Pin_Input(DHT11_SENSOR_GPIO_Port, DHT11_SENSOR_Pin);		// set as input
 602              		.loc 1 147 2 view .LVU138
 603 002e 1021     		movs	r1, #16
 604 0030 2046     		mov	r0, r4
 605 0032 FFF7FEFF 		bl	Set_Pin_Input
 606              	.LVL66:
 148:Core/Src/sensors.c **** }
 607              		.loc 1 148 1 is_stmt 0 view .LVU139
 608 0036 10BD     		pop	{r4, pc}
 609              	.L37:
 610              		.align	2
 611              	.L36:
 612 0038 00100140 		.word	1073811456
 613              		.cfi_endproc
 614              	.LFE75:
 616              		.section	.text.DHT11_Check_Response,"ax",%progbits
 617              		.align	1
 618              		.global	DHT11_Check_Response
 619              		.syntax unified
 620              		.thumb
 621              		.thumb_func
 623              	DHT11_Check_Response:
 624              	.LFB76:
 149:Core/Src/sensors.c **** 
 150:Core/Src/sensors.c **** uint8_t DHT11_Check_Response(void)
 151:Core/Src/sensors.c **** {
 625              		.loc 1 151 1 is_stmt 1 view -0
 626              		.cfi_startproc
 627              		@ args = 0, pretend = 0, frame = 0
 628              		@ frame_needed = 0, uses_anonymous_args = 0
 629 0000 10B5     		push	{r4, lr}
 630              	.LCFI11:
ARM GAS  C:\Users\Admin\AppData\Local\Temp\ccCdQXHc.s 			page 15


 631              		.cfi_def_cfa_offset 8
 632              		.cfi_offset 4, -8
 633              		.cfi_offset 14, -4
 152:Core/Src/sensors.c **** 	uint8_t Response = 0;
 634              		.loc 1 152 2 view .LVU141
 635              	.LVL67:
 153:Core/Src/sensors.c **** 	delay(40);
 636              		.loc 1 153 2 view .LVU142
 637 0002 2820     		movs	r0, #40
 638 0004 FFF7FEFF 		bl	delay
 639              	.LVL68:
 154:Core/Src/sensors.c **** 	if (!(HAL_GPIO_ReadPin(DHT11_SENSOR_GPIO_Port, DHT11_SENSOR_Pin))) // if the pin is low
 640              		.loc 1 154 2 view .LVU143
 641              		.loc 1 154 8 is_stmt 0 view .LVU144
 642 0008 1021     		movs	r1, #16
 643 000a 0C48     		ldr	r0, .L45
 644 000c FFF7FEFF 		bl	HAL_GPIO_ReadPin
 645              	.LVL69:
 646              		.loc 1 154 5 view .LVU145
 647 0010 40B1     		cbz	r0, .L44
 152:Core/Src/sensors.c **** 	uint8_t Response = 0;
 648              		.loc 1 152 10 view .LVU146
 649 0012 0024     		movs	r4, #0
 650              	.LVL70:
 651              	.L40:
 155:Core/Src/sensors.c **** 	{
 156:Core/Src/sensors.c **** 		delay(80);
 157:Core/Src/sensors.c **** 		if ((HAL_GPIO_ReadPin(DHT11_SENSOR_GPIO_Port, DHT11_SENSOR_Pin)))
 158:Core/Src/sensors.c **** 			Response = 1; // if the pin is high, response is ok
 159:Core/Src/sensors.c **** 		else
 160:Core/Src/sensors.c **** 			Response = -1; // 255
 161:Core/Src/sensors.c **** 	}
 162:Core/Src/sensors.c **** 	while ((HAL_GPIO_ReadPin(DHT11_SENSOR_GPIO_Port, DHT11_SENSOR_Pin)))
 163:Core/Src/sensors.c **** 		; // wait for the pin to go low
 652              		.loc 1 163 3 is_stmt 1 discriminator 1 view .LVU147
 162:Core/Src/sensors.c **** 		; // wait for the pin to go low
 653              		.loc 1 162 8 discriminator 1 view .LVU148
 162:Core/Src/sensors.c **** 		; // wait for the pin to go low
 654              		.loc 1 162 10 is_stmt 0 discriminator 1 view .LVU149
 655 0014 1021     		movs	r1, #16
 656 0016 0948     		ldr	r0, .L45
 657 0018 FFF7FEFF 		bl	HAL_GPIO_ReadPin
 658              	.LVL71:
 162:Core/Src/sensors.c **** 		; // wait for the pin to go low
 659              		.loc 1 162 8 discriminator 1 view .LVU150
 660 001c 0028     		cmp	r0, #0
 661 001e F9D1     		bne	.L40
 164:Core/Src/sensors.c **** 
 165:Core/Src/sensors.c **** 	return Response;
 662              		.loc 1 165 2 is_stmt 1 view .LVU151
 166:Core/Src/sensors.c **** }
 663              		.loc 1 166 1 is_stmt 0 view .LVU152
 664 0020 2046     		mov	r0, r4
 665 0022 10BD     		pop	{r4, pc}
 666              	.LVL72:
 667              	.L44:
 156:Core/Src/sensors.c **** 		if ((HAL_GPIO_ReadPin(DHT11_SENSOR_GPIO_Port, DHT11_SENSOR_Pin)))
ARM GAS  C:\Users\Admin\AppData\Local\Temp\ccCdQXHc.s 			page 16


 668              		.loc 1 156 3 is_stmt 1 view .LVU153
 669 0024 5020     		movs	r0, #80
 670 0026 FFF7FEFF 		bl	delay
 671              	.LVL73:
 157:Core/Src/sensors.c **** 			Response = 1; // if the pin is high, response is ok
 672              		.loc 1 157 3 view .LVU154
 157:Core/Src/sensors.c **** 			Response = 1; // if the pin is high, response is ok
 673              		.loc 1 157 8 is_stmt 0 view .LVU155
 674 002a 1021     		movs	r1, #16
 675 002c 0348     		ldr	r0, .L45
 676 002e FFF7FEFF 		bl	HAL_GPIO_ReadPin
 677              	.LVL74:
 157:Core/Src/sensors.c **** 			Response = 1; // if the pin is high, response is ok
 678              		.loc 1 157 6 view .LVU156
 679 0032 08B1     		cbz	r0, .L42
 158:Core/Src/sensors.c **** 		else
 680              		.loc 1 158 13 view .LVU157
 681 0034 0124     		movs	r4, #1
 682 0036 EDE7     		b	.L40
 683              	.L42:
 160:Core/Src/sensors.c **** 	}
 684              		.loc 1 160 13 view .LVU158
 685 0038 FF24     		movs	r4, #255
 686              	.LVL75:
 160:Core/Src/sensors.c **** 	}
 687              		.loc 1 160 13 view .LVU159
 688 003a EBE7     		b	.L40
 689              	.L46:
 690              		.align	2
 691              	.L45:
 692 003c 00100140 		.word	1073811456
 693              		.cfi_endproc
 694              	.LFE76:
 696              		.section	.text.DHT11_Read,"ax",%progbits
 697              		.align	1
 698              		.global	DHT11_Read
 699              		.syntax unified
 700              		.thumb
 701              		.thumb_func
 703              	DHT11_Read:
 704              	.LFB77:
 167:Core/Src/sensors.c **** 
 168:Core/Src/sensors.c **** uint8_t DHT11_Read(void)
 169:Core/Src/sensors.c **** {
 705              		.loc 1 169 1 is_stmt 1 view -0
 706              		.cfi_startproc
 707              		@ args = 0, pretend = 0, frame = 0
 708              		@ frame_needed = 0, uses_anonymous_args = 0
 709 0000 38B5     		push	{r3, r4, r5, lr}
 710              	.LCFI12:
 711              		.cfi_def_cfa_offset 16
 712              		.cfi_offset 3, -16
 713              		.cfi_offset 4, -12
 714              		.cfi_offset 5, -8
 715              		.cfi_offset 14, -4
 716 0002 0025     		movs	r5, #0
 170:Core/Src/sensors.c **** 	uint8_t i, j;
ARM GAS  C:\Users\Admin\AppData\Local\Temp\ccCdQXHc.s 			page 17


 717              		.loc 1 170 2 view .LVU161
 171:Core/Src/sensors.c **** 	for (j = 0; j < 8; j++)
 718              		.loc 1 171 2 view .LVU162
 719              	.LVL76:
 720              		.loc 1 171 9 is_stmt 0 view .LVU163
 721 0004 2C46     		mov	r4, r5
 722              		.loc 1 171 2 view .LVU164
 723 0006 0DE0     		b	.L48
 724              	.LVL77:
 725              	.L50:
 172:Core/Src/sensors.c **** 	{
 173:Core/Src/sensors.c **** 		while (!(HAL_GPIO_ReadPin(DHT11_SENSOR_GPIO_Port, DHT11_SENSOR_Pin)));	// wait for the pin to go 
 174:Core/Src/sensors.c **** 		delay(40);														   // wait for 40 us
 175:Core/Src/sensors.c **** 		if (!(HAL_GPIO_ReadPin(DHT11_SENSOR_GPIO_Port, DHT11_SENSOR_Pin))) // if the pin is low
 176:Core/Src/sensors.c **** 		{
 177:Core/Src/sensors.c **** 			i &= ~(1 << (7 - j)); // write 0
 178:Core/Src/sensors.c **** 		}
 179:Core/Src/sensors.c **** 		else
 180:Core/Src/sensors.c **** 			i |= (1 << (7 - j)); // if the pin is high, write 1
 726              		.loc 1 180 4 is_stmt 1 view .LVU165
 727              		.loc 1 180 18 is_stmt 0 view .LVU166
 728 0008 C4F10702 		rsb	r2, r4, #7
 729              		.loc 1 180 12 view .LVU167
 730 000c 0123     		movs	r3, #1
 731 000e 9340     		lsls	r3, r3, r2
 732              		.loc 1 180 6 view .LVU168
 733 0010 2B43     		orrs	r3, r3, r5
 734 0012 DDB2     		uxtb	r5, r3
 735              	.LVL78:
 736              	.L52:
 181:Core/Src/sensors.c **** 		while ((HAL_GPIO_ReadPin(DHT11_SENSOR_GPIO_Port, DHT11_SENSOR_Pin)))
 182:Core/Src/sensors.c **** 			; // wait for the pin to go low
 737              		.loc 1 182 4 is_stmt 1 discriminator 1 view .LVU169
 181:Core/Src/sensors.c **** 		while ((HAL_GPIO_ReadPin(DHT11_SENSOR_GPIO_Port, DHT11_SENSOR_Pin)))
 738              		.loc 1 181 9 discriminator 1 view .LVU170
 181:Core/Src/sensors.c **** 		while ((HAL_GPIO_ReadPin(DHT11_SENSOR_GPIO_Port, DHT11_SENSOR_Pin)))
 739              		.loc 1 181 11 is_stmt 0 discriminator 1 view .LVU171
 740 0014 1021     		movs	r1, #16
 741 0016 1048     		ldr	r0, .L55
 742 0018 FFF7FEFF 		bl	HAL_GPIO_ReadPin
 743              	.LVL79:
 181:Core/Src/sensors.c **** 		while ((HAL_GPIO_ReadPin(DHT11_SENSOR_GPIO_Port, DHT11_SENSOR_Pin)))
 744              		.loc 1 181 9 discriminator 1 view .LVU172
 745 001c 0028     		cmp	r0, #0
 746 001e F9D1     		bne	.L52
 171:Core/Src/sensors.c **** 	{
 747              		.loc 1 171 21 is_stmt 1 discriminator 2 view .LVU173
 171:Core/Src/sensors.c **** 	{
 748              		.loc 1 171 22 is_stmt 0 discriminator 2 view .LVU174
 749 0020 0134     		adds	r4, r4, #1
 750              	.LVL80:
 171:Core/Src/sensors.c **** 	{
 751              		.loc 1 171 22 discriminator 2 view .LVU175
 752 0022 E4B2     		uxtb	r4, r4
 753              	.LVL81:
 754              	.L48:
 171:Core/Src/sensors.c **** 	{
ARM GAS  C:\Users\Admin\AppData\Local\Temp\ccCdQXHc.s 			page 18


 755              		.loc 1 171 14 is_stmt 1 discriminator 1 view .LVU176
 171:Core/Src/sensors.c **** 	{
 756              		.loc 1 171 2 is_stmt 0 discriminator 1 view .LVU177
 757 0024 072C     		cmp	r4, #7
 758 0026 15D8     		bhi	.L54
 759              	.L49:
 173:Core/Src/sensors.c **** 		delay(40);														   // wait for 40 us
 760              		.loc 1 173 72 is_stmt 1 discriminator 1 view .LVU178
 173:Core/Src/sensors.c **** 		delay(40);														   // wait for 40 us
 761              		.loc 1 173 9 discriminator 1 view .LVU179
 173:Core/Src/sensors.c **** 		delay(40);														   // wait for 40 us
 762              		.loc 1 173 12 is_stmt 0 discriminator 1 view .LVU180
 763 0028 1021     		movs	r1, #16
 764 002a 0B48     		ldr	r0, .L55
 765 002c FFF7FEFF 		bl	HAL_GPIO_ReadPin
 766              	.LVL82:
 173:Core/Src/sensors.c **** 		delay(40);														   // wait for 40 us
 767              		.loc 1 173 9 discriminator 1 view .LVU181
 768 0030 0028     		cmp	r0, #0
 769 0032 F9D0     		beq	.L49
 174:Core/Src/sensors.c **** 		if (!(HAL_GPIO_ReadPin(DHT11_SENSOR_GPIO_Port, DHT11_SENSOR_Pin))) // if the pin is low
 770              		.loc 1 174 3 is_stmt 1 view .LVU182
 771 0034 2820     		movs	r0, #40
 772 0036 FFF7FEFF 		bl	delay
 773              	.LVL83:
 175:Core/Src/sensors.c **** 		{
 774              		.loc 1 175 3 view .LVU183
 175:Core/Src/sensors.c **** 		{
 775              		.loc 1 175 9 is_stmt 0 view .LVU184
 776 003a 1021     		movs	r1, #16
 777 003c 0648     		ldr	r0, .L55
 778 003e FFF7FEFF 		bl	HAL_GPIO_ReadPin
 779              	.LVL84:
 175:Core/Src/sensors.c **** 		{
 780              		.loc 1 175 6 view .LVU185
 781 0042 0028     		cmp	r0, #0
 782 0044 E0D1     		bne	.L50
 177:Core/Src/sensors.c **** 		}
 783              		.loc 1 177 4 is_stmt 1 view .LVU186
 177:Core/Src/sensors.c **** 		}
 784              		.loc 1 177 19 is_stmt 0 view .LVU187
 785 0046 C4F10702 		rsb	r2, r4, #7
 177:Core/Src/sensors.c **** 		}
 786              		.loc 1 177 13 view .LVU188
 787 004a 0123     		movs	r3, #1
 788 004c 9340     		lsls	r3, r3, r2
 177:Core/Src/sensors.c **** 		}
 789              		.loc 1 177 6 view .LVU189
 790 004e 25EA0305 		bic	r5, r5, r3
 791              	.LVL85:
 177:Core/Src/sensors.c **** 		}
 792              		.loc 1 177 6 view .LVU190
 793 0052 DFE7     		b	.L52
 794              	.L54:
 183:Core/Src/sensors.c **** 	}
 184:Core/Src/sensors.c **** 	return i;
 795              		.loc 1 184 2 is_stmt 1 view .LVU191
ARM GAS  C:\Users\Admin\AppData\Local\Temp\ccCdQXHc.s 			page 19


 185:Core/Src/sensors.c **** }
 796              		.loc 1 185 1 is_stmt 0 view .LVU192
 797 0054 2846     		mov	r0, r5
 798 0056 38BD     		pop	{r3, r4, r5, pc}
 799              	.LVL86:
 800              	.L56:
 801              		.loc 1 185 1 view .LVU193
 802              		.align	2
 803              	.L55:
 804 0058 00100140 		.word	1073811456
 805              		.cfi_endproc
 806              	.LFE77:
 808              		.section	.text.DHT11_Result,"ax",%progbits
 809              		.align	1
 810              		.global	DHT11_Result
 811              		.syntax unified
 812              		.thumb
 813              		.thumb_func
 815              	DHT11_Result:
 816              	.LVL87:
 817              	.LFB78:
 186:Core/Src/sensors.c **** 
 187:Core/Src/sensors.c **** float DHT11_Result(float* Temperature, float* Humidity)
 188:Core/Src/sensors.c **** {
 818              		.loc 1 188 1 is_stmt 1 view -0
 819              		.cfi_startproc
 820              		@ args = 0, pretend = 0, frame = 0
 821              		@ frame_needed = 0, uses_anonymous_args = 0
 822              		.loc 1 188 1 is_stmt 0 view .LVU195
 823 0000 F8B5     		push	{r3, r4, r5, r6, r7, lr}
 824              	.LCFI13:
 825              		.cfi_def_cfa_offset 24
 826              		.cfi_offset 3, -24
 827              		.cfi_offset 4, -20
 828              		.cfi_offset 5, -16
 829              		.cfi_offset 6, -12
 830              		.cfi_offset 7, -8
 831              		.cfi_offset 14, -4
 832 0002 0646     		mov	r6, r0
 833 0004 0C46     		mov	r4, r1
 189:Core/Src/sensors.c **** 	uint8_t Presence = 0;
 834              		.loc 1 189 2 is_stmt 1 view .LVU196
 835              	.LVL88:
 190:Core/Src/sensors.c **** 	uint8_t Rh_byte1, Rh_byte2, Temp_byte1, Temp_byte2;
 836              		.loc 1 190 2 view .LVU197
 191:Core/Src/sensors.c **** 	uint16_t SUM, RH, TEMP;
 837              		.loc 1 191 2 view .LVU198
 192:Core/Src/sensors.c **** 	// float Temperature = 0;
 193:Core/Src/sensors.c **** 	// float Humidity = 0;
 194:Core/Src/sensors.c **** 	DHT11_Start();
 838              		.loc 1 194 2 view .LVU199
 839 0006 FFF7FEFF 		bl	DHT11_Start
 840              	.LVL89:
 195:Core/Src/sensors.c **** 	Presence = DHT11_Check_Response();
 841              		.loc 1 195 2 view .LVU200
 842              		.loc 1 195 13 is_stmt 0 view .LVU201
 843 000a FFF7FEFF 		bl	DHT11_Check_Response
ARM GAS  C:\Users\Admin\AppData\Local\Temp\ccCdQXHc.s 			page 20


 844              	.LVL90:
 196:Core/Src/sensors.c **** 	Rh_byte1 = DHT11_Read();
 845              		.loc 1 196 2 is_stmt 1 view .LVU202
 846              		.loc 1 196 13 is_stmt 0 view .LVU203
 847 000e FFF7FEFF 		bl	DHT11_Read
 848              	.LVL91:
 849 0012 0546     		mov	r5, r0
 850              	.LVL92:
 197:Core/Src/sensors.c **** 	Rh_byte2 = DHT11_Read();
 851              		.loc 1 197 2 is_stmt 1 view .LVU204
 852              		.loc 1 197 13 is_stmt 0 view .LVU205
 853 0014 FFF7FEFF 		bl	DHT11_Read
 854              	.LVL93:
 198:Core/Src/sensors.c **** 	Temp_byte1 = DHT11_Read();
 855              		.loc 1 198 2 is_stmt 1 view .LVU206
 856              		.loc 1 198 15 is_stmt 0 view .LVU207
 857 0018 FFF7FEFF 		bl	DHT11_Read
 858              	.LVL94:
 859 001c 0746     		mov	r7, r0
 860              	.LVL95:
 199:Core/Src/sensors.c **** 	Temp_byte2 = DHT11_Read();
 861              		.loc 1 199 2 is_stmt 1 view .LVU208
 862              		.loc 1 199 15 is_stmt 0 view .LVU209
 863 001e FFF7FEFF 		bl	DHT11_Read
 864              	.LVL96:
 200:Core/Src/sensors.c **** 	SUM = DHT11_Read();
 865              		.loc 1 200 2 is_stmt 1 view .LVU210
 866              		.loc 1 200 8 is_stmt 0 view .LVU211
 867 0022 FFF7FEFF 		bl	DHT11_Read
 868              	.LVL97:
 201:Core/Src/sensors.c **** 
 202:Core/Src/sensors.c **** 	TEMP = Temp_byte1;
 869              		.loc 1 202 2 is_stmt 1 view .LVU212
 203:Core/Src/sensors.c **** 	RH = Rh_byte1;
 870              		.loc 1 203 2 view .LVU213
 204:Core/Src/sensors.c **** 
 205:Core/Src/sensors.c **** 	*Temperature = (float)TEMP;
 871              		.loc 1 205 2 view .LVU214
 872              		.loc 1 205 17 is_stmt 0 view .LVU215
 873 0026 3846     		mov	r0, r7
 874 0028 FFF7FEFF 		bl	__aeabi_ui2f
 875              	.LVL98:
 876              		.loc 1 205 15 view .LVU216
 877 002c 3060     		str	r0, [r6]	@ float
 206:Core/Src/sensors.c **** 	*Humidity = (float)RH;
 878              		.loc 1 206 2 is_stmt 1 view .LVU217
 879              		.loc 1 206 14 is_stmt 0 view .LVU218
 880 002e 2846     		mov	r0, r5
 881 0030 FFF7FEFF 		bl	__aeabi_ui2f
 882              	.LVL99:
 883              		.loc 1 206 12 view .LVU219
 884 0034 2060     		str	r0, [r4]	@ float
 207:Core/Src/sensors.c **** }
 885              		.loc 1 207 1 view .LVU220
 886 0036 F8BD     		pop	{r3, r4, r5, r6, r7, pc}
 887              		.loc 1 207 1 view .LVU221
 888              		.cfi_endproc
ARM GAS  C:\Users\Admin\AppData\Local\Temp\ccCdQXHc.s 			page 21


 889              	.LFE78:
 891              		.global	__aeabi_fsub
 892              		.section	.text.Level_Result,"ax",%progbits
 893              		.align	1
 894              		.global	Level_Result
 895              		.syntax unified
 896              		.thumb
 897              		.thumb_func
 899              	Level_Result:
 900              	.LFB79:
 208:Core/Src/sensors.c **** 
 209:Core/Src/sensors.c **** /************for LEVEL***************/
 210:Core/Src/sensors.c **** //4095 -> 0cm
 211:Core/Src/sensors.c **** float Level_Result()
 212:Core/Src/sensors.c **** {
 901              		.loc 1 212 1 is_stmt 1 view -0
 902              		.cfi_startproc
 903              		@ args = 0, pretend = 0, frame = 0
 904              		@ frame_needed = 0, uses_anonymous_args = 0
 905 0000 08B5     		push	{r3, lr}
 906              	.LCFI14:
 907              		.cfi_def_cfa_offset 8
 908              		.cfi_offset 3, -8
 909              		.cfi_offset 14, -4
 213:Core/Src/sensors.c **** 	uint16_t value_level;
 910              		.loc 1 213 2 view .LVU223
 214:Core/Src/sensors.c **** 	float level;
 911              		.loc 1 214 2 view .LVU224
 215:Core/Src/sensors.c **** 	value_level = HAL_ADC_GetValue(&hadc2);
 912              		.loc 1 215 2 view .LVU225
 913              		.loc 1 215 16 is_stmt 0 view .LVU226
 914 0002 0748     		ldr	r0, .L61
 915 0004 FFF7FEFF 		bl	HAL_ADC_GetValue
 916              	.LVL100:
 216:Core/Src/sensors.c **** 	level = 10.0-(10/4095)*(float)value_level;
 917              		.loc 1 216 2 is_stmt 1 view .LVU227
 918              		.loc 1 216 25 is_stmt 0 view .LVU228
 919 0008 80B2     		uxth	r0, r0
 920              		.loc 1 216 25 view .LVU229
 921 000a FFF7FEFF 		bl	__aeabi_ui2f
 922              	.LVL101:
 923              		.loc 1 216 24 view .LVU230
 924 000e 0021     		movs	r1, #0
 925 0010 FFF7FEFF 		bl	__aeabi_fmul
 926              	.LVL102:
 927 0014 0146     		mov	r1, r0
 928              		.loc 1 216 8 view .LVU231
 929 0016 0348     		ldr	r0, .L61+4
 930 0018 FFF7FEFF 		bl	__aeabi_fsub
 931              	.LVL103:
 217:Core/Src/sensors.c **** 	return level;
 932              		.loc 1 217 2 is_stmt 1 view .LVU232
 218:Core/Src/sensors.c **** }
 933              		.loc 1 218 1 is_stmt 0 view .LVU233
 934 001c 08BD     		pop	{r3, pc}
 935              	.L62:
 936 001e 00BF     		.align	2
ARM GAS  C:\Users\Admin\AppData\Local\Temp\ccCdQXHc.s 			page 22


 937              	.L61:
 938 0020 00000000 		.word	hadc2
 939 0024 00002041 		.word	1092616192
 940              		.cfi_endproc
 941              	.LFE79:
 943              		.global	__aeabi_f2d
 944              		.global	__aeabi_dmul
 945              		.global	__aeabi_d2f
 946              		.section	.text.Accqui_Result,"ax",%progbits
 947              		.align	1
 948              		.global	Accqui_Result
 949              		.syntax unified
 950              		.thumb
 951              		.thumb_func
 953              	Accqui_Result:
 954              	.LFB80:
 219:Core/Src/sensors.c **** 
 220:Core/Src/sensors.c **** /************for ADC ACCQUI***************/
 221:Core/Src/sensors.c **** //4095-> 3.3V
 222:Core/Src/sensors.c **** float Accqui_Result()
 223:Core/Src/sensors.c **** {
 955              		.loc 1 223 1 is_stmt 1 view -0
 956              		.cfi_startproc
 957              		@ args = 0, pretend = 0, frame = 0
 958              		@ frame_needed = 0, uses_anonymous_args = 0
 959 0000 08B5     		push	{r3, lr}
 960              	.LCFI15:
 961              		.cfi_def_cfa_offset 8
 962              		.cfi_offset 3, -8
 963              		.cfi_offset 14, -4
 224:Core/Src/sensors.c **** 	uint16_t value_accqui;
 964              		.loc 1 224 2 view .LVU235
 225:Core/Src/sensors.c **** 	float vol_accqi;
 965              		.loc 1 225 2 view .LVU236
 226:Core/Src/sensors.c **** 	value_accqui = HAL_ADC_GetValue(&hadc1);
 966              		.loc 1 226 2 view .LVU237
 967              		.loc 1 226 17 is_stmt 0 view .LVU238
 968 0002 0B48     		ldr	r0, .L65+8
 969 0004 FFF7FEFF 		bl	HAL_ADC_GetValue
 970              	.LVL104:
 227:Core/Src/sensors.c **** 	vol_accqi = (3.3/4095)*(float)value_accqui;
 971              		.loc 1 227 2 is_stmt 1 view .LVU239
 972              		.loc 1 227 25 is_stmt 0 view .LVU240
 973 0008 80B2     		uxth	r0, r0
 974              		.loc 1 227 25 view .LVU241
 975 000a FFF7FEFF 		bl	__aeabi_ui2f
 976              	.LVL105:
 977              		.loc 1 227 25 view .LVU242
 978 000e FFF7FEFF 		bl	__aeabi_f2d
 979              	.LVL106:
 980              		.loc 1 227 24 view .LVU243
 981 0012 05A3     		adr	r3, .L65
 982 0014 D3E90023 		ldrd	r2, [r3]
 983 0018 FFF7FEFF 		bl	__aeabi_dmul
 984              	.LVL107:
 985              		.loc 1 227 12 view .LVU244
 986 001c FFF7FEFF 		bl	__aeabi_d2f
ARM GAS  C:\Users\Admin\AppData\Local\Temp\ccCdQXHc.s 			page 23


 987              	.LVL108:
 228:Core/Src/sensors.c **** 	return vol_accqi;
 988              		.loc 1 228 2 is_stmt 1 view .LVU245
 229:Core/Src/sensors.c **** }
 989              		.loc 1 229 1 is_stmt 0 view .LVU246
 990 0020 08BD     		pop	{r3, pc}
 991              	.L66:
 992 0022 00BFAFF3 		.align	3
 992      0080
 993              	.L65:
 994 0028 B4D934E7 		.word	-415966796
 995 002c 0C684A3F 		.word	1061840908
 996 0030 00000000 		.word	hadc1
 997              		.cfi_endproc
 998              	.LFE80:
 1000              		.global	detect
 1001              		.section	.bss.detect,"aw",%nobits
 1002              		.align	2
 1005              	detect:
 1006 0000 00000000 		.space	4
 1007              		.text
 1008              	.Letext0:
 1009              		.file 2 "d:\\10 2021.10\\arm-none-eabi\\include\\machine\\_default_types.h"
 1010              		.file 3 "d:\\10 2021.10\\arm-none-eabi\\include\\sys\\_stdint.h"
 1011              		.file 4 "Drivers/CMSIS/Device/ST/STM32F1xx/Include/stm32f103xe.h"
 1012              		.file 5 "Drivers/CMSIS/Device/ST/STM32F1xx/Include/stm32f1xx.h"
 1013              		.file 6 "Drivers/STM32F1xx_HAL_Driver/Inc/stm32f1xx_hal_def.h"
 1014              		.file 7 "Drivers/STM32F1xx_HAL_Driver/Inc/stm32f1xx_hal_gpio.h"
 1015              		.file 8 "Drivers/STM32F1xx_HAL_Driver/Inc/stm32f1xx_hal_dma.h"
 1016              		.file 9 "Drivers/STM32F1xx_HAL_Driver/Inc/stm32f1xx_hal_adc.h"
 1017              		.file 10 "Drivers/STM32F1xx_HAL_Driver/Inc/stm32f1xx_hal_tim.h"
 1018              		.file 11 "Core/Inc/tim.h"
 1019              		.file 12 "Core/Inc/adc.h"
 1020              		.file 13 "Drivers/STM32F1xx_HAL_Driver/Inc/stm32f1xx_hal.h"
ARM GAS  C:\Users\Admin\AppData\Local\Temp\ccCdQXHc.s 			page 24

