ARM GAS  C:\Users\Admin\AppData\Local\Temp\ccox48gp.s 			page 1


   1              		.cpu cortex-m3
   2              		.arch armv7-m
   3              		.fpu softvfp
   4              		.eabi_attribute 20, 1
   5              		.eabi_attribute 21, 1
   6              		.eabi_attribute 23, 3
   7              		.eabi_attribute 24, 1
   8              		.eabi_attribute 25, 1
   9              		.eabi_attribute 26, 1
  10              		.eabi_attribute 30, 1
  11              		.eabi_attribute 34, 1
  12              		.eabi_attribute 18, 4
  13              		.file	"sim4g_lte.c"
  14              		.text
  15              	.Ltext0:
  16              		.cfi_sections	.debug_frame
  17              		.section	.rodata.sim7672_reset.str1.4,"aMS",%progbits,1
  18              		.align	2
  19              	.LC0:
  20 0000 53494D20 		.ascii	"SIM RESET\012\000"
  20      52455345 
  20      540A00
  21              		.section	.text.sim7672_reset,"ax",%progbits
  22              		.align	1
  23              		.global	sim7672_reset
  24              		.syntax unified
  25              		.thumb
  26              		.thumb_func
  28              	sim7672_reset:
  29              	.LFB68:
  30              		.file 1 "Core/Src/sim4g_lte.c"
   1:Core/Src/sim4g_lte.c **** #include "sim4g_lte.h"
   2:Core/Src/sim4g_lte.c **** 
   3:Core/Src/sim4g_lte.c **** char simRxBuf[100] = {0};
   4:Core/Src/sim4g_lte.c **** char simRxData;
   5:Core/Src/sim4g_lte.c **** simRxCplt_t simRxCplt = SIM_NOT_RX_CPLT;
   6:Core/Src/sim4g_lte.c **** char simRxResponse[100] = {0};
   7:Core/Src/sim4g_lte.c **** volatile int simRxIndex = 0;
   8:Core/Src/sim4g_lte.c **** volatile bool iswaiting4response = false;
   9:Core/Src/sim4g_lte.c **** 
  10:Core/Src/sim4g_lte.c **** void sim7672_reset(void)
  11:Core/Src/sim4g_lte.c **** {
  31              		.loc 1 11 1 view -0
  32              		.cfi_startproc
  33              		@ args = 0, pretend = 0, frame = 0
  34              		@ frame_needed = 0, uses_anonymous_args = 0
  35 0000 10B5     		push	{r4, lr}
  36              	.LCFI0:
  37              		.cfi_def_cfa_offset 8
  38              		.cfi_offset 4, -8
  39              		.cfi_offset 14, -4
  12:Core/Src/sim4g_lte.c ****     HAL_GPIO_WritePin(SIM_RESET_GPIO_Port, SIM_RESET_Pin, GPIO_PIN_RESET);
  40              		.loc 1 12 5 view .LVU1
  41 0002 0E4C     		ldr	r4, .L3
  42 0004 0022     		movs	r2, #0
  43 0006 4FF40041 		mov	r1, #32768
  44 000a 2046     		mov	r0, r4
ARM GAS  C:\Users\Admin\AppData\Local\Temp\ccox48gp.s 			page 2


  45 000c FFF7FEFF 		bl	HAL_GPIO_WritePin
  46              	.LVL0:
  13:Core/Src/sim4g_lte.c ****     HAL_Delay(10);
  47              		.loc 1 13 5 view .LVU2
  48 0010 0A20     		movs	r0, #10
  49 0012 FFF7FEFF 		bl	HAL_Delay
  50              	.LVL1:
  14:Core/Src/sim4g_lte.c ****     HAL_GPIO_WritePin(SIM_RESET_GPIO_Port, SIM_RESET_Pin, GPIO_PIN_SET);
  51              		.loc 1 14 5 view .LVU3
  52 0016 0122     		movs	r2, #1
  53 0018 4FF40041 		mov	r1, #32768
  54 001c 2046     		mov	r0, r4
  55 001e FFF7FEFF 		bl	HAL_GPIO_WritePin
  56              	.LVL2:
  15:Core/Src/sim4g_lte.c ****     HAL_Delay(50);
  57              		.loc 1 15 5 view .LVU4
  58 0022 3220     		movs	r0, #50
  59 0024 FFF7FEFF 		bl	HAL_Delay
  60              	.LVL3:
  16:Core/Src/sim4g_lte.c ****     HAL_GPIO_WritePin(SIM_RESET_GPIO_Port, SIM_RESET_Pin, GPIO_PIN_RESET);
  61              		.loc 1 16 5 view .LVU5
  62 0028 0022     		movs	r2, #0
  63 002a 4FF40041 		mov	r1, #32768
  64 002e 2046     		mov	r0, r4
  65 0030 FFF7FEFF 		bl	HAL_GPIO_WritePin
  66              	.LVL4:
  17:Core/Src/sim4g_lte.c ****     log_data("SIM RESET\n");
  67              		.loc 1 17 5 view .LVU6
  68 0034 0248     		ldr	r0, .L3+4
  69 0036 FFF7FEFF 		bl	log_data
  70              	.LVL5:
  18:Core/Src/sim4g_lte.c **** }
  71              		.loc 1 18 1 is_stmt 0 view .LVU7
  72 003a 10BD     		pop	{r4, pc}
  73              	.L4:
  74              		.align	2
  75              	.L3:
  76 003c 00080140 		.word	1073809408
  77 0040 00000000 		.word	.LC0
  78              		.cfi_endproc
  79              	.LFE68:
  81              		.section	.rodata.sim7672_pwrkey.str1.4,"aMS",%progbits,1
  82              		.align	2
  83              	.LC1:
  84 0000 53494D20 		.ascii	"SIM PWERKEY\012\000"
  84      50574552 
  84      4B45590A 
  84      00
  85              		.section	.text.sim7672_pwrkey,"ax",%progbits
  86              		.align	1
  87              		.global	sim7672_pwrkey
  88              		.syntax unified
  89              		.thumb
  90              		.thumb_func
  92              	sim7672_pwrkey:
  93              	.LFB69:
  19:Core/Src/sim4g_lte.c **** 
ARM GAS  C:\Users\Admin\AppData\Local\Temp\ccox48gp.s 			page 3


  20:Core/Src/sim4g_lte.c **** void sim7672_pwrkey(void)
  21:Core/Src/sim4g_lte.c **** {
  94              		.loc 1 21 1 is_stmt 1 view -0
  95              		.cfi_startproc
  96              		@ args = 0, pretend = 0, frame = 0
  97              		@ frame_needed = 0, uses_anonymous_args = 0
  98 0000 10B5     		push	{r4, lr}
  99              	.LCFI1:
 100              		.cfi_def_cfa_offset 8
 101              		.cfi_offset 4, -8
 102              		.cfi_offset 14, -4
  22:Core/Src/sim4g_lte.c ****     // do
  23:Core/Src/sim4g_lte.c ****     // {
  24:Core/Src/sim4g_lte.c ****     //     HAL_GPIO_WritePin(SIM_PWRKEY_GPIO_Port, SIM_PWRKEY_Pin, GPIO_PIN_SET);
  25:Core/Src/sim4g_lte.c ****     //     HAL_Delay(100);
  26:Core/Src/sim4g_lte.c ****     // } while (HAL_GPIO_ReadPin(SIM_PWRKEY_GPIO_Port, SIM_PWRKEY_Pin) == GPIO_PIN_RESET);
  27:Core/Src/sim4g_lte.c ****     HAL_GPIO_WritePin(SIM_PWRKEY_GPIO_Port, SIM_PWRKEY_Pin, GPIO_PIN_SET);
 103              		.loc 1 27 5 view .LVU9
 104 0002 134C     		ldr	r4, .L7
 105 0004 0122     		movs	r2, #1
 106 0006 4FF48051 		mov	r1, #4096
 107 000a 2046     		mov	r0, r4
 108 000c FFF7FEFF 		bl	HAL_GPIO_WritePin
 109              	.LVL6:
  28:Core/Src/sim4g_lte.c ****     HAL_Delay(50);
 110              		.loc 1 28 5 view .LVU10
 111 0010 3220     		movs	r0, #50
 112 0012 FFF7FEFF 		bl	HAL_Delay
 113              	.LVL7:
  29:Core/Src/sim4g_lte.c ****     HAL_GPIO_WritePin(SIM_PWRKEY_GPIO_Port, SIM_PWRKEY_Pin, GPIO_PIN_RESET);
 114              		.loc 1 29 5 view .LVU11
 115 0016 0022     		movs	r2, #0
 116 0018 4FF48051 		mov	r1, #4096
 117 001c 2046     		mov	r0, r4
 118 001e FFF7FEFF 		bl	HAL_GPIO_WritePin
 119              	.LVL8:
  30:Core/Src/sim4g_lte.c ****     HAL_Delay(50);
 120              		.loc 1 30 5 view .LVU12
 121 0022 3220     		movs	r0, #50
 122 0024 FFF7FEFF 		bl	HAL_Delay
 123              	.LVL9:
  31:Core/Src/sim4g_lte.c ****     HAL_GPIO_WritePin(SIM_PWRKEY_GPIO_Port, SIM_PWRKEY_Pin, GPIO_PIN_SET);
 124              		.loc 1 31 5 view .LVU13
 125 0028 0122     		movs	r2, #1
 126 002a 4FF48051 		mov	r1, #4096
 127 002e 2046     		mov	r0, r4
 128 0030 FFF7FEFF 		bl	HAL_GPIO_WritePin
 129              	.LVL10:
  32:Core/Src/sim4g_lte.c ****     HAL_Delay(50);
 130              		.loc 1 32 5 view .LVU14
 131 0034 3220     		movs	r0, #50
 132 0036 FFF7FEFF 		bl	HAL_Delay
 133              	.LVL11:
  33:Core/Src/sim4g_lte.c ****     HAL_GPIO_WritePin(SIM_PWRKEY_GPIO_Port, SIM_PWRKEY_Pin, GPIO_PIN_RESET);
 134              		.loc 1 33 5 view .LVU15
 135 003a 0022     		movs	r2, #0
 136 003c 4FF48051 		mov	r1, #4096
ARM GAS  C:\Users\Admin\AppData\Local\Temp\ccox48gp.s 			page 4


 137 0040 2046     		mov	r0, r4
 138 0042 FFF7FEFF 		bl	HAL_GPIO_WritePin
 139              	.LVL12:
  34:Core/Src/sim4g_lte.c ****     log_data("SIM PWERKEY\n");
 140              		.loc 1 34 5 view .LVU16
 141 0046 0348     		ldr	r0, .L7+4
 142 0048 FFF7FEFF 		bl	log_data
 143              	.LVL13:
  35:Core/Src/sim4g_lte.c **** }
 144              		.loc 1 35 1 is_stmt 0 view .LVU17
 145 004c 10BD     		pop	{r4, pc}
 146              	.L8:
 147 004e 00BF     		.align	2
 148              	.L7:
 149 0050 00080140 		.word	1073809408
 150 0054 00000000 		.word	.LC1
 151              		.cfi_endproc
 152              	.LFE69:
 154              		.section	.text.sim7672_send_command,"ax",%progbits
 155              		.align	1
 156              		.global	sim7672_send_command
 157              		.syntax unified
 158              		.thumb
 159              		.thumb_func
 161              	sim7672_send_command:
 162              	.LVL14:
 163              	.LFB71:
  36:Core/Src/sim4g_lte.c **** 
  37:Core/Src/sim4g_lte.c **** void sim7672_init(void)
  38:Core/Src/sim4g_lte.c **** {
  39:Core/Src/sim4g_lte.c ****     if (sim7672_send_command("ATE0\r\n", "OK\r\n") != SIM_OKE)
  40:Core/Src/sim4g_lte.c ****     {
  41:Core/Src/sim4g_lte.c ****         sim7672_errorHandle();
  42:Core/Src/sim4g_lte.c ****     }
  43:Core/Src/sim4g_lte.c ****     HAL_Delay(200);
  44:Core/Src/sim4g_lte.c ****     if (sim7672_send_command("AT\r\n", "OK\r\n") != SIM_OKE)
  45:Core/Src/sim4g_lte.c ****     {
  46:Core/Src/sim4g_lte.c ****         sim7672_errorHandle();
  47:Core/Src/sim4g_lte.c ****     }
  48:Core/Src/sim4g_lte.c ****         HAL_Delay(200);
  49:Core/Src/sim4g_lte.c ****     if (sim7672_send_command("AT+CFUN?\r\n", "1\r\n") != SIM_OKE)
  50:Core/Src/sim4g_lte.c ****     {
  51:Core/Src/sim4g_lte.c ****         sim7672_errorHandle();
  52:Core/Src/sim4g_lte.c ****     }
  53:Core/Src/sim4g_lte.c **** }
  54:Core/Src/sim4g_lte.c **** 
  55:Core/Src/sim4g_lte.c **** simState_t sim7672_send_command(char *simCommand, char *trueResponse)
  56:Core/Src/sim4g_lte.c **** {
 164              		.loc 1 56 1 is_stmt 1 view -0
 165              		.cfi_startproc
 166              		@ args = 0, pretend = 0, frame = 0
 167              		@ frame_needed = 0, uses_anonymous_args = 0
 168              		.loc 1 56 1 is_stmt 0 view .LVU19
 169 0000 70B5     		push	{r4, r5, r6, lr}
 170              	.LCFI2:
 171              		.cfi_def_cfa_offset 16
 172              		.cfi_offset 4, -16
ARM GAS  C:\Users\Admin\AppData\Local\Temp\ccox48gp.s 			page 5


 173              		.cfi_offset 5, -12
 174              		.cfi_offset 6, -8
 175              		.cfi_offset 14, -4
 176 0002 0446     		mov	r4, r0
 177 0004 0D46     		mov	r5, r1
  57:Core/Src/sim4g_lte.c ****     HAL_UART_Receive_IT(&huart1, (uint8_t *)&simRxData, 1);
 178              		.loc 1 57 5 is_stmt 1 view .LVU20
 179 0006 1D4E     		ldr	r6, .L15
 180 0008 0122     		movs	r2, #1
 181 000a 1D49     		ldr	r1, .L15+4
 182              	.LVL15:
 183              		.loc 1 57 5 is_stmt 0 view .LVU21
 184 000c 3046     		mov	r0, r6
 185              	.LVL16:
 186              		.loc 1 57 5 view .LVU22
 187 000e FFF7FEFF 		bl	HAL_UART_Receive_IT
 188              	.LVL17:
  58:Core/Src/sim4g_lte.c ****     HAL_UART_Transmit(&huart1, (uint8_t *)simCommand, strlen(simCommand), 100);
 189              		.loc 1 58 5 is_stmt 1 view .LVU23
 190              		.loc 1 58 55 is_stmt 0 view .LVU24
 191 0012 2046     		mov	r0, r4
 192 0014 FFF7FEFF 		bl	strlen
 193              	.LVL18:
 194              		.loc 1 58 5 view .LVU25
 195 0018 6423     		movs	r3, #100
 196 001a 82B2     		uxth	r2, r0
 197 001c 2146     		mov	r1, r4
 198 001e 3046     		mov	r0, r6
 199 0020 FFF7FEFF 		bl	HAL_UART_Transmit
 200              	.LVL19:
  59:Core/Src/sim4g_lte.c **** 
  60:Core/Src/sim4g_lte.c ****     log_data(simCommand);
 201              		.loc 1 60 5 is_stmt 1 view .LVU26
 202 0024 2046     		mov	r0, r4
 203 0026 FFF7FEFF 		bl	log_data
 204              	.LVL20:
  61:Core/Src/sim4g_lte.c **** 
  62:Core/Src/sim4g_lte.c ****     // HAL_TIM_Base_Start_IT(&htim3);
  63:Core/Src/sim4g_lte.c **** 
  64:Core/Src/sim4g_lte.c ****     // // Wait until complete receiving respone from SIM
  65:Core/Src/sim4g_lte.c ****     // while (!(simRxCplt == SIM_RX_CPLT))
  66:Core/Src/sim4g_lte.c ****     //     ;
  67:Core/Src/sim4g_lte.c ****     while (iswaiting4response != true)
 205              		.loc 1 67 5 view .LVU27
 206              	.L10:
  68:Core/Src/sim4g_lte.c ****     {
  69:Core/Src/sim4g_lte.c ****         /* code */
  70:Core/Src/sim4g_lte.c ****     }
 207              		.loc 1 70 5 discriminator 1 view .LVU28
  67:Core/Src/sim4g_lte.c ****     {
 208              		.loc 1 67 11 discriminator 1 view .LVU29
  67:Core/Src/sim4g_lte.c ****     {
 209              		.loc 1 67 31 is_stmt 0 discriminator 1 view .LVU30
 210 002a 164B     		ldr	r3, .L15+8
 211 002c 1B78     		ldrb	r3, [r3]	@ zero_extendqisi2
  67:Core/Src/sim4g_lte.c ****     {
 212              		.loc 1 67 11 discriminator 1 view .LVU31
ARM GAS  C:\Users\Admin\AppData\Local\Temp\ccox48gp.s 			page 6


 213 002e 002B     		cmp	r3, #0
 214 0030 FBD0     		beq	.L10
  71:Core/Src/sim4g_lte.c ****     if ((strstr(simRxResponse, trueResponse) == NULL))
 215              		.loc 1 71 5 is_stmt 1 view .LVU32
 216              		.loc 1 71 10 is_stmt 0 view .LVU33
 217 0032 2946     		mov	r1, r5
 218 0034 1448     		ldr	r0, .L15+12
 219 0036 FFF7FEFF 		bl	strstr
 220              	.LVL21:
 221              		.loc 1 71 8 view .LVU34
 222 003a 90B1     		cbz	r0, .L14
  72:Core/Src/sim4g_lte.c ****     {
  73:Core/Src/sim4g_lte.c ****         memset(simRxResponse, '\0', strlen(simRxResponse));
  74:Core/Src/sim4g_lte.c ****         simRxCplt = SIM_NOT_RX_CPLT;
  75:Core/Src/sim4g_lte.c ****         return SIM_NOT_OKE;
  76:Core/Src/sim4g_lte.c ****     }
  77:Core/Src/sim4g_lte.c ****     log_data(simRxResponse);
 223              		.loc 1 77 5 is_stmt 1 view .LVU35
 224 003c 124C     		ldr	r4, .L15+12
 225              	.LVL22:
 226              		.loc 1 77 5 is_stmt 0 view .LVU36
 227 003e 2046     		mov	r0, r4
 228 0040 FFF7FEFF 		bl	log_data
 229              	.LVL23:
  78:Core/Src/sim4g_lte.c ****     memset(simRxResponse, '\0', strlen(simRxResponse));
 230              		.loc 1 78 5 is_stmt 1 view .LVU37
 231 0044 2046     		mov	r0, r4
 232 0046 FFF7FEFF 		bl	strlen
 233              	.LVL24:
 234 004a 0246     		mov	r2, r0
 235 004c 0021     		movs	r1, #0
 236 004e 2046     		mov	r0, r4
 237 0050 FFF7FEFF 		bl	memset
 238              	.LVL25:
  79:Core/Src/sim4g_lte.c ****     simRxCplt = SIM_NOT_RX_CPLT;
 239              		.loc 1 79 5 view .LVU38
 240              		.loc 1 79 15 is_stmt 0 view .LVU39
 241 0054 0023     		movs	r3, #0
 242 0056 0D4A     		ldr	r2, .L15+16
 243 0058 1370     		strb	r3, [r2]
  80:Core/Src/sim4g_lte.c ****     iswaiting4response=false;
 244              		.loc 1 80 5 is_stmt 1 view .LVU40
 245              		.loc 1 80 23 is_stmt 0 view .LVU41
 246 005a 0A4A     		ldr	r2, .L15+8
 247 005c 1370     		strb	r3, [r2]
  81:Core/Src/sim4g_lte.c ****     return SIM_OKE;
 248              		.loc 1 81 5 is_stmt 1 view .LVU42
 249              		.loc 1 81 12 is_stmt 0 view .LVU43
 250 005e 0120     		movs	r0, #1
 251              	.L12:
  82:Core/Src/sim4g_lte.c **** }
 252              		.loc 1 82 1 view .LVU44
 253 0060 70BD     		pop	{r4, r5, r6, pc}
 254              	.LVL26:
 255              	.L14:
  73:Core/Src/sim4g_lte.c ****         simRxCplt = SIM_NOT_RX_CPLT;
 256              		.loc 1 73 9 is_stmt 1 view .LVU45
ARM GAS  C:\Users\Admin\AppData\Local\Temp\ccox48gp.s 			page 7


 257 0062 094C     		ldr	r4, .L15+12
 258              	.LVL27:
  73:Core/Src/sim4g_lte.c ****         simRxCplt = SIM_NOT_RX_CPLT;
 259              		.loc 1 73 9 is_stmt 0 view .LVU46
 260 0064 2046     		mov	r0, r4
 261 0066 FFF7FEFF 		bl	strlen
 262              	.LVL28:
 263 006a 0246     		mov	r2, r0
 264 006c 0021     		movs	r1, #0
 265 006e 2046     		mov	r0, r4
 266 0070 FFF7FEFF 		bl	memset
 267              	.LVL29:
  74:Core/Src/sim4g_lte.c ****         return SIM_NOT_OKE;
 268              		.loc 1 74 9 is_stmt 1 view .LVU47
  74:Core/Src/sim4g_lte.c ****         return SIM_NOT_OKE;
 269              		.loc 1 74 19 is_stmt 0 view .LVU48
 270 0074 0020     		movs	r0, #0
 271 0076 054B     		ldr	r3, .L15+16
 272 0078 1870     		strb	r0, [r3]
  75:Core/Src/sim4g_lte.c ****     }
 273              		.loc 1 75 9 is_stmt 1 view .LVU49
  75:Core/Src/sim4g_lte.c ****     }
 274              		.loc 1 75 16 is_stmt 0 view .LVU50
 275 007a F1E7     		b	.L12
 276              	.L16:
 277              		.align	2
 278              	.L15:
 279 007c 00000000 		.word	huart1
 280 0080 00000000 		.word	.LANCHOR0
 281 0084 00000000 		.word	.LANCHOR1
 282 0088 00000000 		.word	.LANCHOR2
 283 008c 00000000 		.word	.LANCHOR3
 284              		.cfi_endproc
 285              	.LFE71:
 287              		.section	.rodata.sim7672_callback.str1.4,"aMS",%progbits,1
 288              		.align	2
 289              	.LC2:
 290 0000 0D0A00   		.ascii	"\015\012\000"
 291              		.section	.text.sim7672_callback,"ax",%progbits
 292              		.align	1
 293              		.global	sim7672_callback
 294              		.syntax unified
 295              		.thumb
 296              		.thumb_func
 298              	sim7672_callback:
 299              	.LFB72:
  83:Core/Src/sim4g_lte.c **** 
  84:Core/Src/sim4g_lte.c **** // Receive response from SIM and delete Buffer
  85:Core/Src/sim4g_lte.c **** void sim7672_callback(void)
  86:Core/Src/sim4g_lte.c **** {
 300              		.loc 1 86 1 is_stmt 1 view -0
 301              		.cfi_startproc
 302              		@ args = 0, pretend = 0, frame = 0
 303              		@ frame_needed = 0, uses_anonymous_args = 0
 304 0000 10B5     		push	{r4, lr}
 305              	.LCFI3:
 306              		.cfi_def_cfa_offset 8
ARM GAS  C:\Users\Admin\AppData\Local\Temp\ccox48gp.s 			page 8


 307              		.cfi_offset 4, -8
 308              		.cfi_offset 14, -4
  87:Core/Src/sim4g_lte.c ****     htim3.Instance->CNT = 0;
 309              		.loc 1 87 5 view .LVU52
 310              		.loc 1 87 10 is_stmt 0 view .LVU53
 311 0002 214B     		ldr	r3, .L22
 312 0004 1B68     		ldr	r3, [r3]
 313              		.loc 1 87 25 view .LVU54
 314 0006 0022     		movs	r2, #0
 315 0008 5A62     		str	r2, [r3, #36]
  88:Core/Src/sim4g_lte.c ****     simRxBuf[simRxIndex++] = simRxData;
 316              		.loc 1 88 5 is_stmt 1 view .LVU55
 317              		.loc 1 88 24 is_stmt 0 view .LVU56
 318 000a 204A     		ldr	r2, .L22+4
 319 000c 1368     		ldr	r3, [r2]
 320 000e 591C     		adds	r1, r3, #1
 321 0010 1160     		str	r1, [r2]
 322              		.loc 1 88 28 view .LVU57
 323 0012 1F48     		ldr	r0, .L22+8
 324 0014 1F4A     		ldr	r2, .L22+12
 325 0016 1278     		ldrb	r2, [r2]	@ zero_extendqisi2
 326 0018 C254     		strb	r2, [r0, r3]
  89:Core/Src/sim4g_lte.c ****     if ((strstr(simRxBuf, "\r\n") != NULL) && (simRxIndex == 2))
 327              		.loc 1 89 5 is_stmt 1 view .LVU58
 328              		.loc 1 89 10 is_stmt 0 view .LVU59
 329 001a 1F49     		ldr	r1, .L22+16
 330 001c FFF7FEFF 		bl	strstr
 331              	.LVL30:
 332              		.loc 1 89 8 view .LVU60
 333 0020 18B1     		cbz	r0, .L18
 334              		.loc 1 89 59 discriminator 1 view .LVU61
 335 0022 1A4B     		ldr	r3, .L22+4
 336 0024 1B68     		ldr	r3, [r3]
 337              		.loc 1 89 44 discriminator 1 view .LVU62
 338 0026 022B     		cmp	r3, #2
 339 0028 21D0     		beq	.L21
 340              	.L18:
  90:Core/Src/sim4g_lte.c ****     {
  91:Core/Src/sim4g_lte.c ****         memset(simRxBuf, '\0', strlen(simRxBuf));
  92:Core/Src/sim4g_lte.c ****         simRxIndex = 0;
  93:Core/Src/sim4g_lte.c ****     }
  94:Core/Src/sim4g_lte.c ****     if ((strstr(simRxBuf, "\r\n") != NULL))
 341              		.loc 1 94 5 is_stmt 1 view .LVU63
 342              		.loc 1 94 10 is_stmt 0 view .LVU64
 343 002a 1B49     		ldr	r1, .L22+16
 344 002c 1848     		ldr	r0, .L22+8
 345 002e FFF7FEFF 		bl	strstr
 346              	.LVL31:
 347              		.loc 1 94 8 view .LVU65
 348 0032 B0B1     		cbz	r0, .L19
  95:Core/Src/sim4g_lte.c ****     {
  96:Core/Src/sim4g_lte.c ****         //log_data(simRxBuf);
  97:Core/Src/sim4g_lte.c ****         memcpy(simRxResponse, simRxBuf, strlen(simRxBuf));
 349              		.loc 1 97 9 is_stmt 1 view .LVU66
 350 0034 164C     		ldr	r4, .L22+8
 351 0036 2046     		mov	r0, r4
 352 0038 FFF7FEFF 		bl	strlen
ARM GAS  C:\Users\Admin\AppData\Local\Temp\ccox48gp.s 			page 9


 353              	.LVL32:
 354 003c 0246     		mov	r2, r0
 355 003e 2146     		mov	r1, r4
 356 0040 1648     		ldr	r0, .L22+20
 357 0042 FFF7FEFF 		bl	memcpy
 358              	.LVL33:
  98:Core/Src/sim4g_lte.c ****         memset(simRxBuf, '\0', strlen(simRxBuf));
 359              		.loc 1 98 9 view .LVU67
 360 0046 2046     		mov	r0, r4
 361 0048 FFF7FEFF 		bl	strlen
 362              	.LVL34:
 363 004c 0246     		mov	r2, r0
 364 004e 0021     		movs	r1, #0
 365 0050 2046     		mov	r0, r4
 366 0052 FFF7FEFF 		bl	memset
 367              	.LVL35:
  99:Core/Src/sim4g_lte.c ****         simRxIndex = 0;
 368              		.loc 1 99 9 view .LVU68
 369              		.loc 1 99 20 is_stmt 0 view .LVU69
 370 0056 0D4B     		ldr	r3, .L22+4
 371 0058 0022     		movs	r2, #0
 372 005a 1A60     		str	r2, [r3]
 100:Core/Src/sim4g_lte.c ****         iswaiting4response = true;
 373              		.loc 1 100 9 is_stmt 1 view .LVU70
 374              		.loc 1 100 28 is_stmt 0 view .LVU71
 375 005c 104B     		ldr	r3, .L22+24
 376 005e 0122     		movs	r2, #1
 377 0060 1A70     		strb	r2, [r3]
 378              	.L19:
 101:Core/Src/sim4g_lte.c ****     }
 102:Core/Src/sim4g_lte.c ****     HAL_UART_Receive_IT(&huart1, (uint8_t *)&simRxData, 1);
 379              		.loc 1 102 5 is_stmt 1 view .LVU72
 380 0062 0122     		movs	r2, #1
 381 0064 0B49     		ldr	r1, .L22+12
 382 0066 0F48     		ldr	r0, .L22+28
 383 0068 FFF7FEFF 		bl	HAL_UART_Receive_IT
 384              	.LVL36:
 103:Core/Src/sim4g_lte.c **** }
 385              		.loc 1 103 1 is_stmt 0 view .LVU73
 386 006c 10BD     		pop	{r4, pc}
 387              	.L21:
  91:Core/Src/sim4g_lte.c ****         simRxIndex = 0;
 388              		.loc 1 91 9 is_stmt 1 view .LVU74
 389 006e 084C     		ldr	r4, .L22+8
 390 0070 2046     		mov	r0, r4
 391 0072 FFF7FEFF 		bl	strlen
 392              	.LVL37:
 393 0076 0246     		mov	r2, r0
 394 0078 0021     		movs	r1, #0
 395 007a 2046     		mov	r0, r4
 396 007c FFF7FEFF 		bl	memset
 397              	.LVL38:
  92:Core/Src/sim4g_lte.c ****     }
 398              		.loc 1 92 9 view .LVU75
  92:Core/Src/sim4g_lte.c ****     }
 399              		.loc 1 92 20 is_stmt 0 view .LVU76
 400 0080 024B     		ldr	r3, .L22+4
ARM GAS  C:\Users\Admin\AppData\Local\Temp\ccox48gp.s 			page 10


 401 0082 0022     		movs	r2, #0
 402 0084 1A60     		str	r2, [r3]
 403 0086 D0E7     		b	.L18
 404              	.L23:
 405              		.align	2
 406              	.L22:
 407 0088 00000000 		.word	htim3
 408 008c 00000000 		.word	.LANCHOR4
 409 0090 00000000 		.word	.LANCHOR5
 410 0094 00000000 		.word	.LANCHOR0
 411 0098 00000000 		.word	.LC2
 412 009c 00000000 		.word	.LANCHOR2
 413 00a0 00000000 		.word	.LANCHOR1
 414 00a4 00000000 		.word	huart1
 415              		.cfi_endproc
 416              	.LFE72:
 418              		.section	.text.sim7672_timerCallback,"ax",%progbits
 419              		.align	1
 420              		.global	sim7672_timerCallback
 421              		.syntax unified
 422              		.thumb
 423              		.thumb_func
 425              	sim7672_timerCallback:
 426              	.LFB73:
 104:Core/Src/sim4g_lte.c **** // wait timeout, once receiving complete wait 0.2s to check remain response
 105:Core/Src/sim4g_lte.c **** void sim7672_timerCallback(void)
 106:Core/Src/sim4g_lte.c **** {
 427              		.loc 1 106 1 is_stmt 1 view -0
 428              		.cfi_startproc
 429              		@ args = 0, pretend = 0, frame = 0
 430              		@ frame_needed = 0, uses_anonymous_args = 0
 431 0000 38B5     		push	{r3, r4, r5, lr}
 432              	.LCFI4:
 433              		.cfi_def_cfa_offset 16
 434              		.cfi_offset 3, -16
 435              		.cfi_offset 4, -12
 436              		.cfi_offset 5, -8
 437              		.cfi_offset 14, -4
 107:Core/Src/sim4g_lte.c ****     HAL_TIM_Base_Stop_IT(&htim3);
 438              		.loc 1 107 5 view .LVU78
 439 0002 164C     		ldr	r4, .L28
 440 0004 2046     		mov	r0, r4
 441 0006 FFF7FEFF 		bl	HAL_TIM_Base_Stop_IT
 442              	.LVL39:
 108:Core/Src/sim4g_lte.c ****     htim3.Instance->CNT = 0;
 443              		.loc 1 108 5 view .LVU79
 444              		.loc 1 108 10 is_stmt 0 view .LVU80
 445 000a 2368     		ldr	r3, [r4]
 446              		.loc 1 108 25 view .LVU81
 447 000c 0022     		movs	r2, #0
 448 000e 5A62     		str	r2, [r3, #36]
 109:Core/Src/sim4g_lte.c ****     if ((strstr(simRxBuf, "\r\n") != NULL) | (strstr(simRxBuf, ">") != NULL))
 449              		.loc 1 109 5 is_stmt 1 view .LVU82
 450              		.loc 1 109 10 is_stmt 0 view .LVU83
 451 0010 134D     		ldr	r5, .L28+4
 452 0012 1449     		ldr	r1, .L28+8
 453 0014 2846     		mov	r0, r5
ARM GAS  C:\Users\Admin\AppData\Local\Temp\ccox48gp.s 			page 11


 454 0016 FFF7FEFF 		bl	strstr
 455              	.LVL40:
 456 001a 0446     		mov	r4, r0
 457              		.loc 1 109 47 view .LVU84
 458 001c 3E21     		movs	r1, #62
 459 001e 2846     		mov	r0, r5
 460 0020 FFF7FEFF 		bl	strchr
 461              	.LVL41:
 462              		.loc 1 109 8 view .LVU85
 463 0024 0028     		cmp	r0, #0
 464 0026 08BF     		it	eq
 465 0028 002C     		cmpeq	r4, #0
 466 002a 03D1     		bne	.L27
 467              	.L25:
 110:Core/Src/sim4g_lte.c ****     {
 111:Core/Src/sim4g_lte.c ****         memcpy(simRxResponse, simRxBuf, strlen(simRxBuf));
 112:Core/Src/sim4g_lte.c ****         memset(simRxBuf, '\0', strlen(simRxBuf));
 113:Core/Src/sim4g_lte.c ****         simRxIndex = 0;
 114:Core/Src/sim4g_lte.c ****     }
 115:Core/Src/sim4g_lte.c ****     simRxCplt = SIM_RX_CPLT;
 468              		.loc 1 115 5 is_stmt 1 view .LVU86
 469              		.loc 1 115 15 is_stmt 0 view .LVU87
 470 002c 0E4B     		ldr	r3, .L28+12
 471 002e 0122     		movs	r2, #1
 472 0030 1A70     		strb	r2, [r3]
 116:Core/Src/sim4g_lte.c **** }
 473              		.loc 1 116 1 view .LVU88
 474 0032 38BD     		pop	{r3, r4, r5, pc}
 475              	.L27:
 111:Core/Src/sim4g_lte.c ****         memset(simRxBuf, '\0', strlen(simRxBuf));
 476              		.loc 1 111 9 is_stmt 1 view .LVU89
 477 0034 2846     		mov	r0, r5
 478 0036 FFF7FEFF 		bl	strlen
 479              	.LVL42:
 480 003a 0246     		mov	r2, r0
 481 003c 2946     		mov	r1, r5
 482 003e 0B48     		ldr	r0, .L28+16
 483 0040 FFF7FEFF 		bl	memcpy
 484              	.LVL43:
 112:Core/Src/sim4g_lte.c ****         simRxIndex = 0;
 485              		.loc 1 112 9 view .LVU90
 486 0044 2846     		mov	r0, r5
 487 0046 FFF7FEFF 		bl	strlen
 488              	.LVL44:
 489 004a 0246     		mov	r2, r0
 490 004c 0021     		movs	r1, #0
 491 004e 2846     		mov	r0, r5
 492 0050 FFF7FEFF 		bl	memset
 493              	.LVL45:
 113:Core/Src/sim4g_lte.c ****     }
 494              		.loc 1 113 9 view .LVU91
 113:Core/Src/sim4g_lte.c ****     }
 495              		.loc 1 113 20 is_stmt 0 view .LVU92
 496 0054 064B     		ldr	r3, .L28+20
 497 0056 0022     		movs	r2, #0
 498 0058 1A60     		str	r2, [r3]
 499 005a E7E7     		b	.L25
ARM GAS  C:\Users\Admin\AppData\Local\Temp\ccox48gp.s 			page 12


 500              	.L29:
 501              		.align	2
 502              	.L28:
 503 005c 00000000 		.word	htim3
 504 0060 00000000 		.word	.LANCHOR5
 505 0064 00000000 		.word	.LC2
 506 0068 00000000 		.word	.LANCHOR3
 507 006c 00000000 		.word	.LANCHOR2
 508 0070 00000000 		.word	.LANCHOR4
 509              		.cfi_endproc
 510              	.LFE73:
 512              		.section	.rodata.sim7672_errorHandle.str1.4,"aMS",%progbits,1
 513              		.align	2
 514              	.LC3:
 515 0000 73696D20 		.ascii	"sim error\000"
 515      6572726F 
 515      7200
 516              		.section	.text.sim7672_errorHandle,"ax",%progbits
 517              		.align	1
 518              		.global	sim7672_errorHandle
 519              		.syntax unified
 520              		.thumb
 521              		.thumb_func
 523              	sim7672_errorHandle:
 524              	.LFB74:
 117:Core/Src/sim4g_lte.c **** 
 118:Core/Src/sim4g_lte.c **** void sim7672_errorHandle(void)
 119:Core/Src/sim4g_lte.c **** {
 525              		.loc 1 119 1 is_stmt 1 view -0
 526              		.cfi_startproc
 527              		@ Volatile: function does not return.
 528              		@ args = 0, pretend = 0, frame = 0
 529              		@ frame_needed = 0, uses_anonymous_args = 0
 530 0000 08B5     		push	{r3, lr}
 531              	.LCFI5:
 532              		.cfi_def_cfa_offset 8
 533              		.cfi_offset 3, -8
 534              		.cfi_offset 14, -4
 120:Core/Src/sim4g_lte.c ****     log_data("sim error");
 535              		.loc 1 120 5 view .LVU94
 536 0002 0248     		ldr	r0, .L33
 537 0004 FFF7FEFF 		bl	log_data
 538              	.LVL46:
 121:Core/Src/sim4g_lte.c ****     __disable_irq();
 539              		.loc 1 121 5 view .LVU95
 540              	.LBB4:
 541              	.LBI4:
 542              		.file 2 "Drivers/CMSIS/Include/cmsis_gcc.h"
   1:Drivers/CMSIS/Include/cmsis_gcc.h **** /**************************************************************************//**
   2:Drivers/CMSIS/Include/cmsis_gcc.h ****  * @file     cmsis_gcc.h
   3:Drivers/CMSIS/Include/cmsis_gcc.h ****  * @brief    CMSIS compiler GCC header file
   4:Drivers/CMSIS/Include/cmsis_gcc.h ****  * @version  V5.0.4
   5:Drivers/CMSIS/Include/cmsis_gcc.h ****  * @date     09. April 2018
   6:Drivers/CMSIS/Include/cmsis_gcc.h ****  ******************************************************************************/
   7:Drivers/CMSIS/Include/cmsis_gcc.h **** /*
   8:Drivers/CMSIS/Include/cmsis_gcc.h ****  * Copyright (c) 2009-2018 Arm Limited. All rights reserved.
   9:Drivers/CMSIS/Include/cmsis_gcc.h ****  *
ARM GAS  C:\Users\Admin\AppData\Local\Temp\ccox48gp.s 			page 13


  10:Drivers/CMSIS/Include/cmsis_gcc.h ****  * SPDX-License-Identifier: Apache-2.0
  11:Drivers/CMSIS/Include/cmsis_gcc.h ****  *
  12:Drivers/CMSIS/Include/cmsis_gcc.h ****  * Licensed under the Apache License, Version 2.0 (the License); you may
  13:Drivers/CMSIS/Include/cmsis_gcc.h ****  * not use this file except in compliance with the License.
  14:Drivers/CMSIS/Include/cmsis_gcc.h ****  * You may obtain a copy of the License at
  15:Drivers/CMSIS/Include/cmsis_gcc.h ****  *
  16:Drivers/CMSIS/Include/cmsis_gcc.h ****  * www.apache.org/licenses/LICENSE-2.0
  17:Drivers/CMSIS/Include/cmsis_gcc.h ****  *
  18:Drivers/CMSIS/Include/cmsis_gcc.h ****  * Unless required by applicable law or agreed to in writing, software
  19:Drivers/CMSIS/Include/cmsis_gcc.h ****  * distributed under the License is distributed on an AS IS BASIS, WITHOUT
  20:Drivers/CMSIS/Include/cmsis_gcc.h ****  * WARRANTIES OR CONDITIONS OF ANY KIND, either express or implied.
  21:Drivers/CMSIS/Include/cmsis_gcc.h ****  * See the License for the specific language governing permissions and
  22:Drivers/CMSIS/Include/cmsis_gcc.h ****  * limitations under the License.
  23:Drivers/CMSIS/Include/cmsis_gcc.h ****  */
  24:Drivers/CMSIS/Include/cmsis_gcc.h **** 
  25:Drivers/CMSIS/Include/cmsis_gcc.h **** #ifndef __CMSIS_GCC_H
  26:Drivers/CMSIS/Include/cmsis_gcc.h **** #define __CMSIS_GCC_H
  27:Drivers/CMSIS/Include/cmsis_gcc.h **** 
  28:Drivers/CMSIS/Include/cmsis_gcc.h **** /* ignore some GCC warnings */
  29:Drivers/CMSIS/Include/cmsis_gcc.h **** #pragma GCC diagnostic push
  30:Drivers/CMSIS/Include/cmsis_gcc.h **** #pragma GCC diagnostic ignored "-Wsign-conversion"
  31:Drivers/CMSIS/Include/cmsis_gcc.h **** #pragma GCC diagnostic ignored "-Wconversion"
  32:Drivers/CMSIS/Include/cmsis_gcc.h **** #pragma GCC diagnostic ignored "-Wunused-parameter"
  33:Drivers/CMSIS/Include/cmsis_gcc.h **** 
  34:Drivers/CMSIS/Include/cmsis_gcc.h **** /* Fallback for __has_builtin */
  35:Drivers/CMSIS/Include/cmsis_gcc.h **** #ifndef __has_builtin
  36:Drivers/CMSIS/Include/cmsis_gcc.h ****   #define __has_builtin(x) (0)
  37:Drivers/CMSIS/Include/cmsis_gcc.h **** #endif
  38:Drivers/CMSIS/Include/cmsis_gcc.h **** 
  39:Drivers/CMSIS/Include/cmsis_gcc.h **** /* CMSIS compiler specific defines */
  40:Drivers/CMSIS/Include/cmsis_gcc.h **** #ifndef   __ASM
  41:Drivers/CMSIS/Include/cmsis_gcc.h ****   #define __ASM                                  __asm
  42:Drivers/CMSIS/Include/cmsis_gcc.h **** #endif
  43:Drivers/CMSIS/Include/cmsis_gcc.h **** #ifndef   __INLINE
  44:Drivers/CMSIS/Include/cmsis_gcc.h ****   #define __INLINE                               inline
  45:Drivers/CMSIS/Include/cmsis_gcc.h **** #endif
  46:Drivers/CMSIS/Include/cmsis_gcc.h **** #ifndef   __STATIC_INLINE
  47:Drivers/CMSIS/Include/cmsis_gcc.h ****   #define __STATIC_INLINE                        static inline
  48:Drivers/CMSIS/Include/cmsis_gcc.h **** #endif
  49:Drivers/CMSIS/Include/cmsis_gcc.h **** #ifndef   __STATIC_FORCEINLINE                 
  50:Drivers/CMSIS/Include/cmsis_gcc.h ****   #define __STATIC_FORCEINLINE                   __attribute__((always_inline)) static inline
  51:Drivers/CMSIS/Include/cmsis_gcc.h **** #endif                                           
  52:Drivers/CMSIS/Include/cmsis_gcc.h **** #ifndef   __NO_RETURN
  53:Drivers/CMSIS/Include/cmsis_gcc.h ****   #define __NO_RETURN                            __attribute__((__noreturn__))
  54:Drivers/CMSIS/Include/cmsis_gcc.h **** #endif
  55:Drivers/CMSIS/Include/cmsis_gcc.h **** #ifndef   __USED
  56:Drivers/CMSIS/Include/cmsis_gcc.h ****   #define __USED                                 __attribute__((used))
  57:Drivers/CMSIS/Include/cmsis_gcc.h **** #endif
  58:Drivers/CMSIS/Include/cmsis_gcc.h **** #ifndef   __WEAK
  59:Drivers/CMSIS/Include/cmsis_gcc.h ****   #define __WEAK                                 __attribute__((weak))
  60:Drivers/CMSIS/Include/cmsis_gcc.h **** #endif
  61:Drivers/CMSIS/Include/cmsis_gcc.h **** #ifndef   __PACKED
  62:Drivers/CMSIS/Include/cmsis_gcc.h ****   #define __PACKED                               __attribute__((packed, aligned(1)))
  63:Drivers/CMSIS/Include/cmsis_gcc.h **** #endif
  64:Drivers/CMSIS/Include/cmsis_gcc.h **** #ifndef   __PACKED_STRUCT
  65:Drivers/CMSIS/Include/cmsis_gcc.h ****   #define __PACKED_STRUCT                        struct __attribute__((packed, aligned(1)))
  66:Drivers/CMSIS/Include/cmsis_gcc.h **** #endif
ARM GAS  C:\Users\Admin\AppData\Local\Temp\ccox48gp.s 			page 14


  67:Drivers/CMSIS/Include/cmsis_gcc.h **** #ifndef   __PACKED_UNION
  68:Drivers/CMSIS/Include/cmsis_gcc.h ****   #define __PACKED_UNION                         union __attribute__((packed, aligned(1)))
  69:Drivers/CMSIS/Include/cmsis_gcc.h **** #endif
  70:Drivers/CMSIS/Include/cmsis_gcc.h **** #ifndef   __UNALIGNED_UINT32        /* deprecated */
  71:Drivers/CMSIS/Include/cmsis_gcc.h ****   #pragma GCC diagnostic push
  72:Drivers/CMSIS/Include/cmsis_gcc.h ****   #pragma GCC diagnostic ignored "-Wpacked"
  73:Drivers/CMSIS/Include/cmsis_gcc.h ****   #pragma GCC diagnostic ignored "-Wattributes"
  74:Drivers/CMSIS/Include/cmsis_gcc.h ****   struct __attribute__((packed)) T_UINT32 { uint32_t v; };
  75:Drivers/CMSIS/Include/cmsis_gcc.h ****   #pragma GCC diagnostic pop
  76:Drivers/CMSIS/Include/cmsis_gcc.h ****   #define __UNALIGNED_UINT32(x)                  (((struct T_UINT32 *)(x))->v)
  77:Drivers/CMSIS/Include/cmsis_gcc.h **** #endif
  78:Drivers/CMSIS/Include/cmsis_gcc.h **** #ifndef   __UNALIGNED_UINT16_WRITE
  79:Drivers/CMSIS/Include/cmsis_gcc.h ****   #pragma GCC diagnostic push
  80:Drivers/CMSIS/Include/cmsis_gcc.h ****   #pragma GCC diagnostic ignored "-Wpacked"
  81:Drivers/CMSIS/Include/cmsis_gcc.h ****   #pragma GCC diagnostic ignored "-Wattributes"
  82:Drivers/CMSIS/Include/cmsis_gcc.h ****   __PACKED_STRUCT T_UINT16_WRITE { uint16_t v; };
  83:Drivers/CMSIS/Include/cmsis_gcc.h ****   #pragma GCC diagnostic pop
  84:Drivers/CMSIS/Include/cmsis_gcc.h ****   #define __UNALIGNED_UINT16_WRITE(addr, val)    (void)((((struct T_UINT16_WRITE *)(void *)(addr))-
  85:Drivers/CMSIS/Include/cmsis_gcc.h **** #endif
  86:Drivers/CMSIS/Include/cmsis_gcc.h **** #ifndef   __UNALIGNED_UINT16_READ
  87:Drivers/CMSIS/Include/cmsis_gcc.h ****   #pragma GCC diagnostic push
  88:Drivers/CMSIS/Include/cmsis_gcc.h ****   #pragma GCC diagnostic ignored "-Wpacked"
  89:Drivers/CMSIS/Include/cmsis_gcc.h ****   #pragma GCC diagnostic ignored "-Wattributes"
  90:Drivers/CMSIS/Include/cmsis_gcc.h ****   __PACKED_STRUCT T_UINT16_READ { uint16_t v; };
  91:Drivers/CMSIS/Include/cmsis_gcc.h ****   #pragma GCC diagnostic pop
  92:Drivers/CMSIS/Include/cmsis_gcc.h ****   #define __UNALIGNED_UINT16_READ(addr)          (((const struct T_UINT16_READ *)(const void *)(add
  93:Drivers/CMSIS/Include/cmsis_gcc.h **** #endif
  94:Drivers/CMSIS/Include/cmsis_gcc.h **** #ifndef   __UNALIGNED_UINT32_WRITE
  95:Drivers/CMSIS/Include/cmsis_gcc.h ****   #pragma GCC diagnostic push
  96:Drivers/CMSIS/Include/cmsis_gcc.h ****   #pragma GCC diagnostic ignored "-Wpacked"
  97:Drivers/CMSIS/Include/cmsis_gcc.h ****   #pragma GCC diagnostic ignored "-Wattributes"
  98:Drivers/CMSIS/Include/cmsis_gcc.h ****   __PACKED_STRUCT T_UINT32_WRITE { uint32_t v; };
  99:Drivers/CMSIS/Include/cmsis_gcc.h ****   #pragma GCC diagnostic pop
 100:Drivers/CMSIS/Include/cmsis_gcc.h ****   #define __UNALIGNED_UINT32_WRITE(addr, val)    (void)((((struct T_UINT32_WRITE *)(void *)(addr))-
 101:Drivers/CMSIS/Include/cmsis_gcc.h **** #endif
 102:Drivers/CMSIS/Include/cmsis_gcc.h **** #ifndef   __UNALIGNED_UINT32_READ
 103:Drivers/CMSIS/Include/cmsis_gcc.h ****   #pragma GCC diagnostic push
 104:Drivers/CMSIS/Include/cmsis_gcc.h ****   #pragma GCC diagnostic ignored "-Wpacked"
 105:Drivers/CMSIS/Include/cmsis_gcc.h ****   #pragma GCC diagnostic ignored "-Wattributes"
 106:Drivers/CMSIS/Include/cmsis_gcc.h ****   __PACKED_STRUCT T_UINT32_READ { uint32_t v; };
 107:Drivers/CMSIS/Include/cmsis_gcc.h ****   #pragma GCC diagnostic pop
 108:Drivers/CMSIS/Include/cmsis_gcc.h ****   #define __UNALIGNED_UINT32_READ(addr)          (((const struct T_UINT32_READ *)(const void *)(add
 109:Drivers/CMSIS/Include/cmsis_gcc.h **** #endif
 110:Drivers/CMSIS/Include/cmsis_gcc.h **** #ifndef   __ALIGNED
 111:Drivers/CMSIS/Include/cmsis_gcc.h ****   #define __ALIGNED(x)                           __attribute__((aligned(x)))
 112:Drivers/CMSIS/Include/cmsis_gcc.h **** #endif
 113:Drivers/CMSIS/Include/cmsis_gcc.h **** #ifndef   __RESTRICT
 114:Drivers/CMSIS/Include/cmsis_gcc.h ****   #define __RESTRICT                             __restrict
 115:Drivers/CMSIS/Include/cmsis_gcc.h **** #endif
 116:Drivers/CMSIS/Include/cmsis_gcc.h **** 
 117:Drivers/CMSIS/Include/cmsis_gcc.h **** 
 118:Drivers/CMSIS/Include/cmsis_gcc.h **** /* ###########################  Core Function Access  ########################### */
 119:Drivers/CMSIS/Include/cmsis_gcc.h **** /** \ingroup  CMSIS_Core_FunctionInterface
 120:Drivers/CMSIS/Include/cmsis_gcc.h ****     \defgroup CMSIS_Core_RegAccFunctions CMSIS Core Register Access Functions
 121:Drivers/CMSIS/Include/cmsis_gcc.h ****   @{
 122:Drivers/CMSIS/Include/cmsis_gcc.h ****  */
 123:Drivers/CMSIS/Include/cmsis_gcc.h **** 
ARM GAS  C:\Users\Admin\AppData\Local\Temp\ccox48gp.s 			page 15


 124:Drivers/CMSIS/Include/cmsis_gcc.h **** /**
 125:Drivers/CMSIS/Include/cmsis_gcc.h ****   \brief   Enable IRQ Interrupts
 126:Drivers/CMSIS/Include/cmsis_gcc.h ****   \details Enables IRQ interrupts by clearing the I-bit in the CPSR.
 127:Drivers/CMSIS/Include/cmsis_gcc.h ****            Can only be executed in Privileged modes.
 128:Drivers/CMSIS/Include/cmsis_gcc.h ****  */
 129:Drivers/CMSIS/Include/cmsis_gcc.h **** __STATIC_FORCEINLINE void __enable_irq(void)
 130:Drivers/CMSIS/Include/cmsis_gcc.h **** {
 131:Drivers/CMSIS/Include/cmsis_gcc.h ****   __ASM volatile ("cpsie i" : : : "memory");
 132:Drivers/CMSIS/Include/cmsis_gcc.h **** }
 133:Drivers/CMSIS/Include/cmsis_gcc.h **** 
 134:Drivers/CMSIS/Include/cmsis_gcc.h **** 
 135:Drivers/CMSIS/Include/cmsis_gcc.h **** /**
 136:Drivers/CMSIS/Include/cmsis_gcc.h ****   \brief   Disable IRQ Interrupts
 137:Drivers/CMSIS/Include/cmsis_gcc.h ****   \details Disables IRQ interrupts by setting the I-bit in the CPSR.
 138:Drivers/CMSIS/Include/cmsis_gcc.h ****            Can only be executed in Privileged modes.
 139:Drivers/CMSIS/Include/cmsis_gcc.h ****  */
 140:Drivers/CMSIS/Include/cmsis_gcc.h **** __STATIC_FORCEINLINE void __disable_irq(void)
 543              		.loc 2 140 27 view .LVU96
 544              	.LBB5:
 141:Drivers/CMSIS/Include/cmsis_gcc.h **** {
 142:Drivers/CMSIS/Include/cmsis_gcc.h ****   __ASM volatile ("cpsid i" : : : "memory");
 545              		.loc 2 142 3 view .LVU97
 546              		.syntax unified
 547              	@ 142 "Drivers/CMSIS/Include/cmsis_gcc.h" 1
 548 0008 72B6     		cpsid i
 549              	@ 0 "" 2
 550              		.thumb
 551              		.syntax unified
 552              	.L31:
 553              	.LBE5:
 554              	.LBE4:
 122:Core/Src/sim4g_lte.c ****     while (1)
 555              		.loc 1 122 5 discriminator 1 view .LVU98
 123:Core/Src/sim4g_lte.c ****     {
 124:Core/Src/sim4g_lte.c ****     }
 556              		.loc 1 124 5 discriminator 1 view .LVU99
 122:Core/Src/sim4g_lte.c ****     while (1)
 557              		.loc 1 122 11 discriminator 1 view .LVU100
 558 000a FEE7     		b	.L31
 559              	.L34:
 560              		.align	2
 561              	.L33:
 562 000c 00000000 		.word	.LC3
 563              		.cfi_endproc
 564              	.LFE74:
 566              		.section	.rodata.sim7672_init.str1.4,"aMS",%progbits,1
 567              		.align	2
 568              	.LC4:
 569 0000 4F4B0D0A 		.ascii	"OK\015\012\000"
 569      00
 570 0005 000000   		.align	2
 571              	.LC5:
 572 0008 41544530 		.ascii	"ATE0\015\012\000"
 572      0D0A00
 573 000f 00       		.align	2
 574              	.LC6:
 575 0010 41540D0A 		.ascii	"AT\015\012\000"
ARM GAS  C:\Users\Admin\AppData\Local\Temp\ccox48gp.s 			page 16


 575      00
 576 0015 000000   		.align	2
 577              	.LC7:
 578 0018 310D0A00 		.ascii	"1\015\012\000"
 579              		.align	2
 580              	.LC8:
 581 001c 41542B43 		.ascii	"AT+CFUN?\015\012\000"
 581      46554E3F 
 581      0D0A00
 582              		.section	.text.sim7672_init,"ax",%progbits
 583              		.align	1
 584              		.global	sim7672_init
 585              		.syntax unified
 586              		.thumb
 587              		.thumb_func
 589              	sim7672_init:
 590              	.LFB70:
  38:Core/Src/sim4g_lte.c ****     if (sim7672_send_command("ATE0\r\n", "OK\r\n") != SIM_OKE)
 591              		.loc 1 38 1 view -0
 592              		.cfi_startproc
 593              		@ args = 0, pretend = 0, frame = 0
 594              		@ frame_needed = 0, uses_anonymous_args = 0
 595 0000 08B5     		push	{r3, lr}
 596              	.LCFI6:
 597              		.cfi_def_cfa_offset 8
 598              		.cfi_offset 3, -8
 599              		.cfi_offset 14, -4
  39:Core/Src/sim4g_lte.c ****     {
 600              		.loc 1 39 5 view .LVU102
  39:Core/Src/sim4g_lte.c ****     {
 601              		.loc 1 39 9 is_stmt 0 view .LVU103
 602 0002 0F49     		ldr	r1, .L43
 603 0004 0F48     		ldr	r0, .L43+4
 604 0006 FFF7FEFF 		bl	sim7672_send_command
 605              	.LVL47:
  39:Core/Src/sim4g_lte.c ****     {
 606              		.loc 1 39 8 view .LVU104
 607 000a 0128     		cmp	r0, #1
 608 000c 12D1     		bne	.L40
  43:Core/Src/sim4g_lte.c ****     if (sim7672_send_command("AT\r\n", "OK\r\n") != SIM_OKE)
 609              		.loc 1 43 5 is_stmt 1 view .LVU105
 610 000e C820     		movs	r0, #200
 611 0010 FFF7FEFF 		bl	HAL_Delay
 612              	.LVL48:
  44:Core/Src/sim4g_lte.c ****     {
 613              		.loc 1 44 5 view .LVU106
  44:Core/Src/sim4g_lte.c ****     {
 614              		.loc 1 44 9 is_stmt 0 view .LVU107
 615 0014 0A49     		ldr	r1, .L43
 616 0016 0C48     		ldr	r0, .L43+8
 617 0018 FFF7FEFF 		bl	sim7672_send_command
 618              	.LVL49:
  44:Core/Src/sim4g_lte.c ****     {
 619              		.loc 1 44 8 view .LVU108
 620 001c 0128     		cmp	r0, #1
 621 001e 0BD1     		bne	.L41
  48:Core/Src/sim4g_lte.c ****     if (sim7672_send_command("AT+CFUN?\r\n", "1\r\n") != SIM_OKE)
ARM GAS  C:\Users\Admin\AppData\Local\Temp\ccox48gp.s 			page 17


 622              		.loc 1 48 9 is_stmt 1 view .LVU109
 623 0020 C820     		movs	r0, #200
 624 0022 FFF7FEFF 		bl	HAL_Delay
 625              	.LVL50:
  49:Core/Src/sim4g_lte.c ****     {
 626              		.loc 1 49 5 view .LVU110
  49:Core/Src/sim4g_lte.c ****     {
 627              		.loc 1 49 9 is_stmt 0 view .LVU111
 628 0026 0949     		ldr	r1, .L43+12
 629 0028 0948     		ldr	r0, .L43+16
 630 002a FFF7FEFF 		bl	sim7672_send_command
 631              	.LVL51:
  49:Core/Src/sim4g_lte.c ****     {
 632              		.loc 1 49 8 view .LVU112
 633 002e 0128     		cmp	r0, #1
 634 0030 04D1     		bne	.L42
  53:Core/Src/sim4g_lte.c **** 
 635              		.loc 1 53 1 view .LVU113
 636 0032 08BD     		pop	{r3, pc}
 637              	.L40:
  41:Core/Src/sim4g_lte.c ****     }
 638              		.loc 1 41 9 is_stmt 1 view .LVU114
 639 0034 FFF7FEFF 		bl	sim7672_errorHandle
 640              	.LVL52:
 641              	.L41:
  46:Core/Src/sim4g_lte.c ****     }
 642              		.loc 1 46 9 view .LVU115
 643 0038 FFF7FEFF 		bl	sim7672_errorHandle
 644              	.LVL53:
 645              	.L42:
  51:Core/Src/sim4g_lte.c ****     }
 646              		.loc 1 51 9 view .LVU116
 647 003c FFF7FEFF 		bl	sim7672_errorHandle
 648              	.LVL54:
 649              	.L44:
 650              		.align	2
 651              	.L43:
 652 0040 00000000 		.word	.LC4
 653 0044 08000000 		.word	.LC5
 654 0048 10000000 		.word	.LC6
 655 004c 18000000 		.word	.LC7
 656 0050 1C000000 		.word	.LC8
 657              		.cfi_endproc
 658              	.LFE70:
 660              		.global	iswaiting4response
 661              		.global	simRxIndex
 662              		.global	simRxResponse
 663              		.global	simRxCplt
 664              		.global	simRxData
 665              		.global	simRxBuf
 666              		.section	.bss.iswaiting4response,"aw",%nobits
 667              		.set	.LANCHOR1,. + 0
 670              	iswaiting4response:
 671 0000 00       		.space	1
 672              		.section	.bss.simRxBuf,"aw",%nobits
 673              		.align	2
 674              		.set	.LANCHOR5,. + 0
ARM GAS  C:\Users\Admin\AppData\Local\Temp\ccox48gp.s 			page 18


 677              	simRxBuf:
 678 0000 00000000 		.space	100
 678      00000000 
 678      00000000 
 678      00000000 
 678      00000000 
 679              		.section	.bss.simRxCplt,"aw",%nobits
 680              		.set	.LANCHOR3,. + 0
 683              	simRxCplt:
 684 0000 00       		.space	1
 685              		.section	.bss.simRxData,"aw",%nobits
 686              		.set	.LANCHOR0,. + 0
 689              	simRxData:
 690 0000 00       		.space	1
 691              		.section	.bss.simRxIndex,"aw",%nobits
 692              		.align	2
 693              		.set	.LANCHOR4,. + 0
 696              	simRxIndex:
 697 0000 00000000 		.space	4
 698              		.section	.bss.simRxResponse,"aw",%nobits
 699              		.align	2
 700              		.set	.LANCHOR2,. + 0
 703              	simRxResponse:
 704 0000 00000000 		.space	100
 704      00000000 
 704      00000000 
 704      00000000 
 704      00000000 
 705              		.text
 706              	.Letext0:
 707              		.file 3 "d:\\10 2021.10\\arm-none-eabi\\include\\machine\\_default_types.h"
 708              		.file 4 "d:\\10 2021.10\\arm-none-eabi\\include\\sys\\_stdint.h"
 709              		.file 5 "Drivers/CMSIS/Device/ST/STM32F1xx/Include/stm32f103xe.h"
 710              		.file 6 "Drivers/STM32F1xx_HAL_Driver/Inc/stm32f1xx_hal_def.h"
 711              		.file 7 "Drivers/STM32F1xx_HAL_Driver/Inc/stm32f1xx_hal_gpio.h"
 712              		.file 8 "Drivers/STM32F1xx_HAL_Driver/Inc/stm32f1xx_hal_dma.h"
 713              		.file 9 "Drivers/STM32F1xx_HAL_Driver/Inc/stm32f1xx_hal_tim.h"
 714              		.file 10 "Drivers/STM32F1xx_HAL_Driver/Inc/stm32f1xx_hal_uart.h"
 715              		.file 11 "Core/Inc/sim4g_lte.h"
 716              		.file 12 "Core/Inc/debug.h"
 717              		.file 13 "d:\\10 2021.10\\arm-none-eabi\\include\\string.h"
 718              		.file 14 "<built-in>"
 719              		.file 15 "Drivers/STM32F1xx_HAL_Driver/Inc/stm32f1xx_hal.h"
ARM GAS  C:\Users\Admin\AppData\Local\Temp\ccox48gp.s 			page 19

