ARM GAS  C:\Users\Admin\AppData\Local\Temp\ccRKmbo6.s 			page 1


   1              		.cpu cortex-m3
   2              		.arch armv7-m
   3              		.fpu softvfp
   4              		.eabi_attribute 20, 1
   5              		.eabi_attribute 21, 1
   6              		.eabi_attribute 23, 3
   7              		.eabi_attribute 24, 1
   8              		.eabi_attribute 25, 1
   9              		.eabi_attribute 26, 1
  10              		.eabi_attribute 30, 1
  11              		.eabi_attribute 34, 1
  12              		.eabi_attribute 18, 4
  13              		.file	"stm32f1xx_it.c"
  14              		.text
  15              	.Ltext0:
  16              		.cfi_sections	.debug_frame
  17              		.section	.text.SDTimer_Handler,"ax",%progbits
  18              		.align	1
  19              		.global	SDTimer_Handler
  20              		.syntax unified
  21              		.thumb
  22              		.thumb_func
  24              	SDTimer_Handler:
  25              	.LFB65:
  26              		.file 1 "Core/Src/stm32f1xx_it.c"
   1:Core/Src/stm32f1xx_it.c **** /* USER CODE BEGIN Header */
   2:Core/Src/stm32f1xx_it.c **** /**
   3:Core/Src/stm32f1xx_it.c ****   ******************************************************************************
   4:Core/Src/stm32f1xx_it.c ****   * @file    stm32f1xx_it.c
   5:Core/Src/stm32f1xx_it.c ****   * @brief   Interrupt Service Routines.
   6:Core/Src/stm32f1xx_it.c ****   ******************************************************************************
   7:Core/Src/stm32f1xx_it.c ****   * @attention
   8:Core/Src/stm32f1xx_it.c ****   *
   9:Core/Src/stm32f1xx_it.c ****   * Copyright (c) 2023 STMicroelectronics.
  10:Core/Src/stm32f1xx_it.c ****   * All rights reserved.
  11:Core/Src/stm32f1xx_it.c ****   *
  12:Core/Src/stm32f1xx_it.c ****   * This software is licensed under terms that can be found in the LICENSE file
  13:Core/Src/stm32f1xx_it.c ****   * in the root directory of this software component.
  14:Core/Src/stm32f1xx_it.c ****   * If no LICENSE file comes with this software, it is provided AS-IS.
  15:Core/Src/stm32f1xx_it.c ****   *
  16:Core/Src/stm32f1xx_it.c ****   ******************************************************************************
  17:Core/Src/stm32f1xx_it.c ****   */
  18:Core/Src/stm32f1xx_it.c **** /* USER CODE END Header */
  19:Core/Src/stm32f1xx_it.c **** 
  20:Core/Src/stm32f1xx_it.c **** /* Includes ------------------------------------------------------------------*/
  21:Core/Src/stm32f1xx_it.c **** #include "main.h"
  22:Core/Src/stm32f1xx_it.c **** #include "stm32f1xx_it.h"
  23:Core/Src/stm32f1xx_it.c **** /* Private includes ----------------------------------------------------------*/
  24:Core/Src/stm32f1xx_it.c **** /* USER CODE BEGIN Includes */
  25:Core/Src/stm32f1xx_it.c **** /* USER CODE END Includes */
  26:Core/Src/stm32f1xx_it.c **** 
  27:Core/Src/stm32f1xx_it.c **** /* Private typedef -----------------------------------------------------------*/
  28:Core/Src/stm32f1xx_it.c **** /* USER CODE BEGIN TD */
  29:Core/Src/stm32f1xx_it.c **** 
  30:Core/Src/stm32f1xx_it.c **** /* USER CODE END TD */
  31:Core/Src/stm32f1xx_it.c **** 
  32:Core/Src/stm32f1xx_it.c **** /* Private define ------------------------------------------------------------*/
ARM GAS  C:\Users\Admin\AppData\Local\Temp\ccRKmbo6.s 			page 2


  33:Core/Src/stm32f1xx_it.c **** /* USER CODE BEGIN PD */
  34:Core/Src/stm32f1xx_it.c **** 
  35:Core/Src/stm32f1xx_it.c **** /* USER CODE END PD */
  36:Core/Src/stm32f1xx_it.c **** 
  37:Core/Src/stm32f1xx_it.c **** /* Private macro -------------------------------------------------------------*/
  38:Core/Src/stm32f1xx_it.c **** /* USER CODE BEGIN PM */
  39:Core/Src/stm32f1xx_it.c **** 
  40:Core/Src/stm32f1xx_it.c **** /* USER CODE END PM */
  41:Core/Src/stm32f1xx_it.c **** 
  42:Core/Src/stm32f1xx_it.c **** /* Private variables ---------------------------------------------------------*/
  43:Core/Src/stm32f1xx_it.c **** /* USER CODE BEGIN PV */
  44:Core/Src/stm32f1xx_it.c **** 
  45:Core/Src/stm32f1xx_it.c **** /* USER CODE END PV */
  46:Core/Src/stm32f1xx_it.c **** 
  47:Core/Src/stm32f1xx_it.c **** /* Private function prototypes -----------------------------------------------*/
  48:Core/Src/stm32f1xx_it.c **** /* USER CODE BEGIN PFP */
  49:Core/Src/stm32f1xx_it.c **** 
  50:Core/Src/stm32f1xx_it.c **** /* USER CODE END PFP */
  51:Core/Src/stm32f1xx_it.c **** 
  52:Core/Src/stm32f1xx_it.c **** /* Private user code ---------------------------------------------------------*/
  53:Core/Src/stm32f1xx_it.c **** /* USER CODE BEGIN 0 */
  54:Core/Src/stm32f1xx_it.c **** volatile uint8_t FatFsCnt = 0;
  55:Core/Src/stm32f1xx_it.c **** volatile uint16_t Timer1, Timer2;
  56:Core/Src/stm32f1xx_it.c **** /* USER CODE END 0 */
  57:Core/Src/stm32f1xx_it.c **** 
  58:Core/Src/stm32f1xx_it.c **** /* External variables --------------------------------------------------------*/
  59:Core/Src/stm32f1xx_it.c **** extern RTC_HandleTypeDef hrtc;
  60:Core/Src/stm32f1xx_it.c **** extern TIM_HandleTypeDef htim2;
  61:Core/Src/stm32f1xx_it.c **** extern TIM_HandleTypeDef htim3;
  62:Core/Src/stm32f1xx_it.c **** extern UART_HandleTypeDef huart4;
  63:Core/Src/stm32f1xx_it.c **** extern UART_HandleTypeDef huart1;
  64:Core/Src/stm32f1xx_it.c **** extern UART_HandleTypeDef huart2;
  65:Core/Src/stm32f1xx_it.c **** /* USER CODE BEGIN EV */
  66:Core/Src/stm32f1xx_it.c **** void SDTimer_Handler(void)
  67:Core/Src/stm32f1xx_it.c **** {
  27              		.loc 1 67 1 view -0
  28              		.cfi_startproc
  29              		@ args = 0, pretend = 0, frame = 0
  30              		@ frame_needed = 0, uses_anonymous_args = 0
  31              		@ link register save eliminated.
  68:Core/Src/stm32f1xx_it.c ****   if(Timer1 > 0)
  32              		.loc 1 68 3 view .LVU1
  33              		.loc 1 68 13 is_stmt 0 view .LVU2
  34 0000 0A4B     		ldr	r3, .L4
  35 0002 1B88     		ldrh	r3, [r3]
  36 0004 9BB2     		uxth	r3, r3
  37              		.loc 1 68 5 view .LVU3
  38 0006 2BB1     		cbz	r3, .L2
  69:Core/Src/stm32f1xx_it.c ****     Timer1--;
  39              		.loc 1 69 5 is_stmt 1 view .LVU4
  40              		.loc 1 69 11 is_stmt 0 view .LVU5
  41 0008 084A     		ldr	r2, .L4
  42 000a 1388     		ldrh	r3, [r2]
  43 000c 9BB2     		uxth	r3, r3
  44 000e 013B     		subs	r3, r3, #1
  45 0010 9BB2     		uxth	r3, r3
  46 0012 1380     		strh	r3, [r2]	@ movhi
ARM GAS  C:\Users\Admin\AppData\Local\Temp\ccRKmbo6.s 			page 3


  47              	.L2:
  70:Core/Src/stm32f1xx_it.c **** 
  71:Core/Src/stm32f1xx_it.c ****   if(Timer2 > 0)
  48              		.loc 1 71 3 is_stmt 1 view .LVU6
  49              		.loc 1 71 13 is_stmt 0 view .LVU7
  50 0014 064B     		ldr	r3, .L4+4
  51 0016 1B88     		ldrh	r3, [r3]
  52 0018 9BB2     		uxth	r3, r3
  53              		.loc 1 71 5 view .LVU8
  54 001a 2BB1     		cbz	r3, .L1
  72:Core/Src/stm32f1xx_it.c ****     Timer2--;
  55              		.loc 1 72 5 is_stmt 1 view .LVU9
  56              		.loc 1 72 11 is_stmt 0 view .LVU10
  57 001c 044A     		ldr	r2, .L4+4
  58 001e 1388     		ldrh	r3, [r2]
  59 0020 9BB2     		uxth	r3, r3
  60 0022 013B     		subs	r3, r3, #1
  61 0024 9BB2     		uxth	r3, r3
  62 0026 1380     		strh	r3, [r2]	@ movhi
  63              	.L1:
  73:Core/Src/stm32f1xx_it.c **** }
  64              		.loc 1 73 1 view .LVU11
  65 0028 7047     		bx	lr
  66              	.L5:
  67 002a 00BF     		.align	2
  68              	.L4:
  69 002c 00000000 		.word	.LANCHOR0
  70 0030 00000000 		.word	.LANCHOR1
  71              		.cfi_endproc
  72              	.LFE65:
  74              		.section	.text.NMI_Handler,"ax",%progbits
  75              		.align	1
  76              		.global	NMI_Handler
  77              		.syntax unified
  78              		.thumb
  79              		.thumb_func
  81              	NMI_Handler:
  82              	.LFB66:
  74:Core/Src/stm32f1xx_it.c **** /* USER CODE END EV */
  75:Core/Src/stm32f1xx_it.c **** 
  76:Core/Src/stm32f1xx_it.c **** /******************************************************************************/
  77:Core/Src/stm32f1xx_it.c **** /*           Cortex-M3 Processor Interruption and Exception Handlers          */
  78:Core/Src/stm32f1xx_it.c **** /******************************************************************************/
  79:Core/Src/stm32f1xx_it.c **** /**
  80:Core/Src/stm32f1xx_it.c ****   * @brief This function handles Non maskable interrupt.
  81:Core/Src/stm32f1xx_it.c ****   */
  82:Core/Src/stm32f1xx_it.c **** void NMI_Handler(void)
  83:Core/Src/stm32f1xx_it.c **** {
  83              		.loc 1 83 1 is_stmt 1 view -0
  84              		.cfi_startproc
  85              		@ Volatile: function does not return.
  86              		@ args = 0, pretend = 0, frame = 0
  87              		@ frame_needed = 0, uses_anonymous_args = 0
  88              		@ link register save eliminated.
  89              	.L7:
  84:Core/Src/stm32f1xx_it.c ****   /* USER CODE BEGIN NonMaskableInt_IRQn 0 */
  85:Core/Src/stm32f1xx_it.c **** 
ARM GAS  C:\Users\Admin\AppData\Local\Temp\ccRKmbo6.s 			page 4


  86:Core/Src/stm32f1xx_it.c ****   /* USER CODE END NonMaskableInt_IRQn 0 */
  87:Core/Src/stm32f1xx_it.c ****   /* USER CODE BEGIN NonMaskableInt_IRQn 1 */
  88:Core/Src/stm32f1xx_it.c ****   while (1)
  90              		.loc 1 88 3 discriminator 1 view .LVU13
  89:Core/Src/stm32f1xx_it.c ****   {
  90:Core/Src/stm32f1xx_it.c ****   }
  91              		.loc 1 90 3 discriminator 1 view .LVU14
  88:Core/Src/stm32f1xx_it.c ****   {
  92              		.loc 1 88 9 discriminator 1 view .LVU15
  93 0000 FEE7     		b	.L7
  94              		.cfi_endproc
  95              	.LFE66:
  97              		.section	.text.HardFault_Handler,"ax",%progbits
  98              		.align	1
  99              		.global	HardFault_Handler
 100              		.syntax unified
 101              		.thumb
 102              		.thumb_func
 104              	HardFault_Handler:
 105              	.LFB67:
  91:Core/Src/stm32f1xx_it.c ****   /* USER CODE END NonMaskableInt_IRQn 1 */
  92:Core/Src/stm32f1xx_it.c **** }
  93:Core/Src/stm32f1xx_it.c **** 
  94:Core/Src/stm32f1xx_it.c **** /**
  95:Core/Src/stm32f1xx_it.c ****   * @brief This function handles Hard fault interrupt.
  96:Core/Src/stm32f1xx_it.c ****   */
  97:Core/Src/stm32f1xx_it.c **** void HardFault_Handler(void)
  98:Core/Src/stm32f1xx_it.c **** {
 106              		.loc 1 98 1 view -0
 107              		.cfi_startproc
 108              		@ Volatile: function does not return.
 109              		@ args = 0, pretend = 0, frame = 0
 110              		@ frame_needed = 0, uses_anonymous_args = 0
 111              		@ link register save eliminated.
 112              	.L9:
  99:Core/Src/stm32f1xx_it.c ****   /* USER CODE BEGIN HardFault_IRQn 0 */
 100:Core/Src/stm32f1xx_it.c **** 
 101:Core/Src/stm32f1xx_it.c ****   /* USER CODE END HardFault_IRQn 0 */
 102:Core/Src/stm32f1xx_it.c ****   while (1)
 113              		.loc 1 102 3 discriminator 1 view .LVU17
 103:Core/Src/stm32f1xx_it.c ****   {
 104:Core/Src/stm32f1xx_it.c ****     /* USER CODE BEGIN W1_HardFault_IRQn 0 */
 105:Core/Src/stm32f1xx_it.c ****     /* USER CODE END W1_HardFault_IRQn 0 */
 106:Core/Src/stm32f1xx_it.c ****   }
 114              		.loc 1 106 3 discriminator 1 view .LVU18
 102:Core/Src/stm32f1xx_it.c ****   {
 115              		.loc 1 102 9 discriminator 1 view .LVU19
 116 0000 FEE7     		b	.L9
 117              		.cfi_endproc
 118              	.LFE67:
 120              		.section	.text.MemManage_Handler,"ax",%progbits
 121              		.align	1
 122              		.global	MemManage_Handler
 123              		.syntax unified
 124              		.thumb
 125              		.thumb_func
 127              	MemManage_Handler:
ARM GAS  C:\Users\Admin\AppData\Local\Temp\ccRKmbo6.s 			page 5


 128              	.LFB68:
 107:Core/Src/stm32f1xx_it.c **** }
 108:Core/Src/stm32f1xx_it.c **** 
 109:Core/Src/stm32f1xx_it.c **** /**
 110:Core/Src/stm32f1xx_it.c ****   * @brief This function handles Memory management fault.
 111:Core/Src/stm32f1xx_it.c ****   */
 112:Core/Src/stm32f1xx_it.c **** void MemManage_Handler(void)
 113:Core/Src/stm32f1xx_it.c **** {
 129              		.loc 1 113 1 view -0
 130              		.cfi_startproc
 131              		@ Volatile: function does not return.
 132              		@ args = 0, pretend = 0, frame = 0
 133              		@ frame_needed = 0, uses_anonymous_args = 0
 134              		@ link register save eliminated.
 135              	.L11:
 114:Core/Src/stm32f1xx_it.c ****   /* USER CODE BEGIN MemoryManagement_IRQn 0 */
 115:Core/Src/stm32f1xx_it.c **** 
 116:Core/Src/stm32f1xx_it.c ****   /* USER CODE END MemoryManagement_IRQn 0 */
 117:Core/Src/stm32f1xx_it.c ****   while (1)
 136              		.loc 1 117 3 discriminator 1 view .LVU21
 118:Core/Src/stm32f1xx_it.c ****   {
 119:Core/Src/stm32f1xx_it.c ****     /* USER CODE BEGIN W1_MemoryManagement_IRQn 0 */
 120:Core/Src/stm32f1xx_it.c ****     /* USER CODE END W1_MemoryManagement_IRQn 0 */
 121:Core/Src/stm32f1xx_it.c ****   }
 137              		.loc 1 121 3 discriminator 1 view .LVU22
 117:Core/Src/stm32f1xx_it.c ****   {
 138              		.loc 1 117 9 discriminator 1 view .LVU23
 139 0000 FEE7     		b	.L11
 140              		.cfi_endproc
 141              	.LFE68:
 143              		.section	.text.BusFault_Handler,"ax",%progbits
 144              		.align	1
 145              		.global	BusFault_Handler
 146              		.syntax unified
 147              		.thumb
 148              		.thumb_func
 150              	BusFault_Handler:
 151              	.LFB69:
 122:Core/Src/stm32f1xx_it.c **** }
 123:Core/Src/stm32f1xx_it.c **** 
 124:Core/Src/stm32f1xx_it.c **** /**
 125:Core/Src/stm32f1xx_it.c ****   * @brief This function handles Prefetch fault, memory access fault.
 126:Core/Src/stm32f1xx_it.c ****   */
 127:Core/Src/stm32f1xx_it.c **** void BusFault_Handler(void)
 128:Core/Src/stm32f1xx_it.c **** {
 152              		.loc 1 128 1 view -0
 153              		.cfi_startproc
 154              		@ Volatile: function does not return.
 155              		@ args = 0, pretend = 0, frame = 0
 156              		@ frame_needed = 0, uses_anonymous_args = 0
 157              		@ link register save eliminated.
 158              	.L13:
 129:Core/Src/stm32f1xx_it.c ****   /* USER CODE BEGIN BusFault_IRQn 0 */
 130:Core/Src/stm32f1xx_it.c **** 
 131:Core/Src/stm32f1xx_it.c ****   /* USER CODE END BusFault_IRQn 0 */
 132:Core/Src/stm32f1xx_it.c ****   while (1)
 159              		.loc 1 132 3 discriminator 1 view .LVU25
ARM GAS  C:\Users\Admin\AppData\Local\Temp\ccRKmbo6.s 			page 6


 133:Core/Src/stm32f1xx_it.c ****   {
 134:Core/Src/stm32f1xx_it.c ****     /* USER CODE BEGIN W1_BusFault_IRQn 0 */
 135:Core/Src/stm32f1xx_it.c ****     /* USER CODE END W1_BusFault_IRQn 0 */
 136:Core/Src/stm32f1xx_it.c ****   }
 160              		.loc 1 136 3 discriminator 1 view .LVU26
 132:Core/Src/stm32f1xx_it.c ****   {
 161              		.loc 1 132 9 discriminator 1 view .LVU27
 162 0000 FEE7     		b	.L13
 163              		.cfi_endproc
 164              	.LFE69:
 166              		.section	.text.UsageFault_Handler,"ax",%progbits
 167              		.align	1
 168              		.global	UsageFault_Handler
 169              		.syntax unified
 170              		.thumb
 171              		.thumb_func
 173              	UsageFault_Handler:
 174              	.LFB70:
 137:Core/Src/stm32f1xx_it.c **** }
 138:Core/Src/stm32f1xx_it.c **** 
 139:Core/Src/stm32f1xx_it.c **** /**
 140:Core/Src/stm32f1xx_it.c ****   * @brief This function handles Undefined instruction or illegal state.
 141:Core/Src/stm32f1xx_it.c ****   */
 142:Core/Src/stm32f1xx_it.c **** void UsageFault_Handler(void)
 143:Core/Src/stm32f1xx_it.c **** {
 175              		.loc 1 143 1 view -0
 176              		.cfi_startproc
 177              		@ Volatile: function does not return.
 178              		@ args = 0, pretend = 0, frame = 0
 179              		@ frame_needed = 0, uses_anonymous_args = 0
 180              		@ link register save eliminated.
 181              	.L15:
 144:Core/Src/stm32f1xx_it.c ****   /* USER CODE BEGIN UsageFault_IRQn 0 */
 145:Core/Src/stm32f1xx_it.c **** 
 146:Core/Src/stm32f1xx_it.c ****   /* USER CODE END UsageFault_IRQn 0 */
 147:Core/Src/stm32f1xx_it.c ****   while (1)
 182              		.loc 1 147 3 discriminator 1 view .LVU29
 148:Core/Src/stm32f1xx_it.c ****   {
 149:Core/Src/stm32f1xx_it.c ****     /* USER CODE BEGIN W1_UsageFault_IRQn 0 */
 150:Core/Src/stm32f1xx_it.c ****     /* USER CODE END W1_UsageFault_IRQn 0 */
 151:Core/Src/stm32f1xx_it.c ****   }
 183              		.loc 1 151 3 discriminator 1 view .LVU30
 147:Core/Src/stm32f1xx_it.c ****   {
 184              		.loc 1 147 9 discriminator 1 view .LVU31
 185 0000 FEE7     		b	.L15
 186              		.cfi_endproc
 187              	.LFE70:
 189              		.section	.text.SVC_Handler,"ax",%progbits
 190              		.align	1
 191              		.global	SVC_Handler
 192              		.syntax unified
 193              		.thumb
 194              		.thumb_func
 196              	SVC_Handler:
 197              	.LFB71:
 152:Core/Src/stm32f1xx_it.c **** }
 153:Core/Src/stm32f1xx_it.c **** 
ARM GAS  C:\Users\Admin\AppData\Local\Temp\ccRKmbo6.s 			page 7


 154:Core/Src/stm32f1xx_it.c **** /**
 155:Core/Src/stm32f1xx_it.c ****   * @brief This function handles System service call via SWI instruction.
 156:Core/Src/stm32f1xx_it.c ****   */
 157:Core/Src/stm32f1xx_it.c **** void SVC_Handler(void)
 158:Core/Src/stm32f1xx_it.c **** {
 198              		.loc 1 158 1 view -0
 199              		.cfi_startproc
 200              		@ args = 0, pretend = 0, frame = 0
 201              		@ frame_needed = 0, uses_anonymous_args = 0
 202              		@ link register save eliminated.
 159:Core/Src/stm32f1xx_it.c ****   /* USER CODE BEGIN SVCall_IRQn 0 */
 160:Core/Src/stm32f1xx_it.c **** 
 161:Core/Src/stm32f1xx_it.c ****   /* USER CODE END SVCall_IRQn 0 */
 162:Core/Src/stm32f1xx_it.c ****   /* USER CODE BEGIN SVCall_IRQn 1 */
 163:Core/Src/stm32f1xx_it.c **** 
 164:Core/Src/stm32f1xx_it.c ****   /* USER CODE END SVCall_IRQn 1 */
 165:Core/Src/stm32f1xx_it.c **** }
 203              		.loc 1 165 1 view .LVU33
 204 0000 7047     		bx	lr
 205              		.cfi_endproc
 206              	.LFE71:
 208              		.section	.text.DebugMon_Handler,"ax",%progbits
 209              		.align	1
 210              		.global	DebugMon_Handler
 211              		.syntax unified
 212              		.thumb
 213              		.thumb_func
 215              	DebugMon_Handler:
 216              	.LFB72:
 166:Core/Src/stm32f1xx_it.c **** 
 167:Core/Src/stm32f1xx_it.c **** /**
 168:Core/Src/stm32f1xx_it.c ****   * @brief This function handles Debug monitor.
 169:Core/Src/stm32f1xx_it.c ****   */
 170:Core/Src/stm32f1xx_it.c **** void DebugMon_Handler(void)
 171:Core/Src/stm32f1xx_it.c **** {
 217              		.loc 1 171 1 view -0
 218              		.cfi_startproc
 219              		@ args = 0, pretend = 0, frame = 0
 220              		@ frame_needed = 0, uses_anonymous_args = 0
 221              		@ link register save eliminated.
 172:Core/Src/stm32f1xx_it.c ****   /* USER CODE BEGIN DebugMonitor_IRQn 0 */
 173:Core/Src/stm32f1xx_it.c **** 
 174:Core/Src/stm32f1xx_it.c ****   /* USER CODE END DebugMonitor_IRQn 0 */
 175:Core/Src/stm32f1xx_it.c ****   /* USER CODE BEGIN DebugMonitor_IRQn 1 */
 176:Core/Src/stm32f1xx_it.c **** 
 177:Core/Src/stm32f1xx_it.c ****   /* USER CODE END DebugMonitor_IRQn 1 */
 178:Core/Src/stm32f1xx_it.c **** }
 222              		.loc 1 178 1 view .LVU35
 223 0000 7047     		bx	lr
 224              		.cfi_endproc
 225              	.LFE72:
 227              		.section	.text.PendSV_Handler,"ax",%progbits
 228              		.align	1
 229              		.global	PendSV_Handler
 230              		.syntax unified
 231              		.thumb
 232              		.thumb_func
ARM GAS  C:\Users\Admin\AppData\Local\Temp\ccRKmbo6.s 			page 8


 234              	PendSV_Handler:
 235              	.LFB73:
 179:Core/Src/stm32f1xx_it.c **** 
 180:Core/Src/stm32f1xx_it.c **** /**
 181:Core/Src/stm32f1xx_it.c ****   * @brief This function handles Pendable request for system service.
 182:Core/Src/stm32f1xx_it.c ****   */
 183:Core/Src/stm32f1xx_it.c **** void PendSV_Handler(void)
 184:Core/Src/stm32f1xx_it.c **** {
 236              		.loc 1 184 1 view -0
 237              		.cfi_startproc
 238              		@ args = 0, pretend = 0, frame = 0
 239              		@ frame_needed = 0, uses_anonymous_args = 0
 240              		@ link register save eliminated.
 185:Core/Src/stm32f1xx_it.c ****   /* USER CODE BEGIN PendSV_IRQn 0 */
 186:Core/Src/stm32f1xx_it.c **** 
 187:Core/Src/stm32f1xx_it.c ****   /* USER CODE END PendSV_IRQn 0 */
 188:Core/Src/stm32f1xx_it.c ****   /* USER CODE BEGIN PendSV_IRQn 1 */
 189:Core/Src/stm32f1xx_it.c **** 
 190:Core/Src/stm32f1xx_it.c ****   /* USER CODE END PendSV_IRQn 1 */
 191:Core/Src/stm32f1xx_it.c **** }
 241              		.loc 1 191 1 view .LVU37
 242 0000 7047     		bx	lr
 243              		.cfi_endproc
 244              	.LFE73:
 246              		.section	.text.SysTick_Handler,"ax",%progbits
 247              		.align	1
 248              		.global	SysTick_Handler
 249              		.syntax unified
 250              		.thumb
 251              		.thumb_func
 253              	SysTick_Handler:
 254              	.LFB74:
 192:Core/Src/stm32f1xx_it.c **** 
 193:Core/Src/stm32f1xx_it.c **** /**
 194:Core/Src/stm32f1xx_it.c ****   * @brief This function handles System tick timer.
 195:Core/Src/stm32f1xx_it.c ****   */
 196:Core/Src/stm32f1xx_it.c **** void SysTick_Handler(void)
 197:Core/Src/stm32f1xx_it.c **** {
 255              		.loc 1 197 1 view -0
 256              		.cfi_startproc
 257              		@ args = 0, pretend = 0, frame = 0
 258              		@ frame_needed = 0, uses_anonymous_args = 0
 259 0000 08B5     		push	{r3, lr}
 260              	.LCFI0:
 261              		.cfi_def_cfa_offset 8
 262              		.cfi_offset 3, -8
 263              		.cfi_offset 14, -4
 198:Core/Src/stm32f1xx_it.c ****   /* USER CODE BEGIN SysTick_IRQn 0 */
 199:Core/Src/stm32f1xx_it.c **** 	  FatFsCnt++;
 264              		.loc 1 199 4 view .LVU39
 265              		.loc 1 199 12 is_stmt 0 view .LVU40
 266 0002 094A     		ldr	r2, .L23
 267 0004 1378     		ldrb	r3, [r2]	@ zero_extendqisi2
 268 0006 0133     		adds	r3, r3, #1
 269 0008 DBB2     		uxtb	r3, r3
 270 000a 1370     		strb	r3, [r2]
 200:Core/Src/stm32f1xx_it.c **** 	  if(FatFsCnt >= 10)
ARM GAS  C:\Users\Admin\AppData\Local\Temp\ccRKmbo6.s 			page 9


 271              		.loc 1 200 4 is_stmt 1 view .LVU41
 272              		.loc 1 200 16 is_stmt 0 view .LVU42
 273 000c 1378     		ldrb	r3, [r2]	@ zero_extendqisi2
 274 000e DBB2     		uxtb	r3, r3
 275              		.loc 1 200 6 view .LVU43
 276 0010 092B     		cmp	r3, #9
 277 0012 02D8     		bhi	.L22
 278              	.L20:
 201:Core/Src/stm32f1xx_it.c **** 	  {
 202:Core/Src/stm32f1xx_it.c **** 	    FatFsCnt = 0;
 203:Core/Src/stm32f1xx_it.c **** 	    SDTimer_Handler();
 204:Core/Src/stm32f1xx_it.c **** 	  }
 205:Core/Src/stm32f1xx_it.c ****   /* USER CODE END SysTick_IRQn 0 */
 206:Core/Src/stm32f1xx_it.c ****   HAL_IncTick();
 279              		.loc 1 206 3 is_stmt 1 view .LVU44
 280 0014 FFF7FEFF 		bl	HAL_IncTick
 281              	.LVL0:
 207:Core/Src/stm32f1xx_it.c ****   /* USER CODE BEGIN SysTick_IRQn 1 */
 208:Core/Src/stm32f1xx_it.c **** 
 209:Core/Src/stm32f1xx_it.c ****   /* USER CODE END SysTick_IRQn 1 */
 210:Core/Src/stm32f1xx_it.c **** }
 282              		.loc 1 210 1 is_stmt 0 view .LVU45
 283 0018 08BD     		pop	{r3, pc}
 284              	.L22:
 202:Core/Src/stm32f1xx_it.c **** 	    SDTimer_Handler();
 285              		.loc 1 202 6 is_stmt 1 view .LVU46
 202:Core/Src/stm32f1xx_it.c **** 	    SDTimer_Handler();
 286              		.loc 1 202 15 is_stmt 0 view .LVU47
 287 001a 1346     		mov	r3, r2
 288 001c 0022     		movs	r2, #0
 289 001e 1A70     		strb	r2, [r3]
 203:Core/Src/stm32f1xx_it.c **** 	  }
 290              		.loc 1 203 6 is_stmt 1 view .LVU48
 291 0020 FFF7FEFF 		bl	SDTimer_Handler
 292              	.LVL1:
 293 0024 F6E7     		b	.L20
 294              	.L24:
 295 0026 00BF     		.align	2
 296              	.L23:
 297 0028 00000000 		.word	.LANCHOR2
 298              		.cfi_endproc
 299              	.LFE74:
 301              		.section	.text.TIM2_IRQHandler,"ax",%progbits
 302              		.align	1
 303              		.global	TIM2_IRQHandler
 304              		.syntax unified
 305              		.thumb
 306              		.thumb_func
 308              	TIM2_IRQHandler:
 309              	.LFB75:
 211:Core/Src/stm32f1xx_it.c **** 
 212:Core/Src/stm32f1xx_it.c **** /******************************************************************************/
 213:Core/Src/stm32f1xx_it.c **** /* STM32F1xx Peripheral Interrupt Handlers                                    */
 214:Core/Src/stm32f1xx_it.c **** /* Add here the Interrupt Handlers for the used peripherals.                  */
 215:Core/Src/stm32f1xx_it.c **** /* For the available peripheral interrupt handler names,                      */
 216:Core/Src/stm32f1xx_it.c **** /* please refer to the startup file (startup_stm32f1xx.s).                    */
 217:Core/Src/stm32f1xx_it.c **** /******************************************************************************/
ARM GAS  C:\Users\Admin\AppData\Local\Temp\ccRKmbo6.s 			page 10


 218:Core/Src/stm32f1xx_it.c **** 
 219:Core/Src/stm32f1xx_it.c **** /**
 220:Core/Src/stm32f1xx_it.c ****   * @brief This function handles TIM2 global interrupt.
 221:Core/Src/stm32f1xx_it.c ****   */
 222:Core/Src/stm32f1xx_it.c **** void TIM2_IRQHandler(void)
 223:Core/Src/stm32f1xx_it.c **** {
 310              		.loc 1 223 1 view -0
 311              		.cfi_startproc
 312              		@ args = 0, pretend = 0, frame = 0
 313              		@ frame_needed = 0, uses_anonymous_args = 0
 314 0000 08B5     		push	{r3, lr}
 315              	.LCFI1:
 316              		.cfi_def_cfa_offset 8
 317              		.cfi_offset 3, -8
 318              		.cfi_offset 14, -4
 224:Core/Src/stm32f1xx_it.c ****   /* USER CODE BEGIN TIM2_IRQn 0 */
 225:Core/Src/stm32f1xx_it.c **** 
 226:Core/Src/stm32f1xx_it.c ****   /* USER CODE END TIM2_IRQn 0 */
 227:Core/Src/stm32f1xx_it.c ****   HAL_TIM_IRQHandler(&htim2);
 319              		.loc 1 227 3 view .LVU50
 320 0002 0248     		ldr	r0, .L27
 321 0004 FFF7FEFF 		bl	HAL_TIM_IRQHandler
 322              	.LVL2:
 228:Core/Src/stm32f1xx_it.c ****   /* USER CODE BEGIN TIM2_IRQn 1 */
 229:Core/Src/stm32f1xx_it.c **** 
 230:Core/Src/stm32f1xx_it.c ****   /* USER CODE END TIM2_IRQn 1 */
 231:Core/Src/stm32f1xx_it.c **** }
 323              		.loc 1 231 1 is_stmt 0 view .LVU51
 324 0008 08BD     		pop	{r3, pc}
 325              	.L28:
 326 000a 00BF     		.align	2
 327              	.L27:
 328 000c 00000000 		.word	htim2
 329              		.cfi_endproc
 330              	.LFE75:
 332              		.section	.text.TIM3_IRQHandler,"ax",%progbits
 333              		.align	1
 334              		.global	TIM3_IRQHandler
 335              		.syntax unified
 336              		.thumb
 337              		.thumb_func
 339              	TIM3_IRQHandler:
 340              	.LFB76:
 232:Core/Src/stm32f1xx_it.c **** 
 233:Core/Src/stm32f1xx_it.c **** /**
 234:Core/Src/stm32f1xx_it.c ****   * @brief This function handles TIM3 global interrupt.
 235:Core/Src/stm32f1xx_it.c ****   */
 236:Core/Src/stm32f1xx_it.c **** void TIM3_IRQHandler(void)
 237:Core/Src/stm32f1xx_it.c **** {
 341              		.loc 1 237 1 is_stmt 1 view -0
 342              		.cfi_startproc
 343              		@ args = 0, pretend = 0, frame = 0
 344              		@ frame_needed = 0, uses_anonymous_args = 0
 345 0000 08B5     		push	{r3, lr}
 346              	.LCFI2:
 347              		.cfi_def_cfa_offset 8
 348              		.cfi_offset 3, -8
ARM GAS  C:\Users\Admin\AppData\Local\Temp\ccRKmbo6.s 			page 11


 349              		.cfi_offset 14, -4
 238:Core/Src/stm32f1xx_it.c ****   /* USER CODE BEGIN TIM3_IRQn 0 */
 239:Core/Src/stm32f1xx_it.c **** 
 240:Core/Src/stm32f1xx_it.c ****   /* USER CODE END TIM3_IRQn 0 */
 241:Core/Src/stm32f1xx_it.c ****   HAL_TIM_IRQHandler(&htim3);
 350              		.loc 1 241 3 view .LVU53
 351 0002 0248     		ldr	r0, .L31
 352 0004 FFF7FEFF 		bl	HAL_TIM_IRQHandler
 353              	.LVL3:
 242:Core/Src/stm32f1xx_it.c ****   /* USER CODE BEGIN TIM3_IRQn 1 */
 243:Core/Src/stm32f1xx_it.c **** 
 244:Core/Src/stm32f1xx_it.c ****   /* USER CODE END TIM3_IRQn 1 */
 245:Core/Src/stm32f1xx_it.c **** }
 354              		.loc 1 245 1 is_stmt 0 view .LVU54
 355 0008 08BD     		pop	{r3, pc}
 356              	.L32:
 357 000a 00BF     		.align	2
 358              	.L31:
 359 000c 00000000 		.word	htim3
 360              		.cfi_endproc
 361              	.LFE76:
 363              		.section	.text.USART1_IRQHandler,"ax",%progbits
 364              		.align	1
 365              		.global	USART1_IRQHandler
 366              		.syntax unified
 367              		.thumb
 368              		.thumb_func
 370              	USART1_IRQHandler:
 371              	.LFB77:
 246:Core/Src/stm32f1xx_it.c **** 
 247:Core/Src/stm32f1xx_it.c **** /**
 248:Core/Src/stm32f1xx_it.c ****   * @brief This function handles USART1 global interrupt.
 249:Core/Src/stm32f1xx_it.c ****   */
 250:Core/Src/stm32f1xx_it.c **** void USART1_IRQHandler(void)
 251:Core/Src/stm32f1xx_it.c **** {
 372              		.loc 1 251 1 is_stmt 1 view -0
 373              		.cfi_startproc
 374              		@ args = 0, pretend = 0, frame = 0
 375              		@ frame_needed = 0, uses_anonymous_args = 0
 376 0000 08B5     		push	{r3, lr}
 377              	.LCFI3:
 378              		.cfi_def_cfa_offset 8
 379              		.cfi_offset 3, -8
 380              		.cfi_offset 14, -4
 252:Core/Src/stm32f1xx_it.c ****   /* USER CODE BEGIN USART1_IRQn 0 */
 253:Core/Src/stm32f1xx_it.c **** 
 254:Core/Src/stm32f1xx_it.c ****   /* USER CODE END USART1_IRQn 0 */
 255:Core/Src/stm32f1xx_it.c ****   HAL_UART_IRQHandler(&huart1);
 381              		.loc 1 255 3 view .LVU56
 382 0002 0248     		ldr	r0, .L35
 383 0004 FFF7FEFF 		bl	HAL_UART_IRQHandler
 384              	.LVL4:
 256:Core/Src/stm32f1xx_it.c ****   /* USER CODE BEGIN USART1_IRQn 1 */
 257:Core/Src/stm32f1xx_it.c **** 
 258:Core/Src/stm32f1xx_it.c ****   /* USER CODE END USART1_IRQn 1 */
 259:Core/Src/stm32f1xx_it.c **** }
 385              		.loc 1 259 1 is_stmt 0 view .LVU57
ARM GAS  C:\Users\Admin\AppData\Local\Temp\ccRKmbo6.s 			page 12


 386 0008 08BD     		pop	{r3, pc}
 387              	.L36:
 388 000a 00BF     		.align	2
 389              	.L35:
 390 000c 00000000 		.word	huart1
 391              		.cfi_endproc
 392              	.LFE77:
 394              		.section	.text.USART2_IRQHandler,"ax",%progbits
 395              		.align	1
 396              		.global	USART2_IRQHandler
 397              		.syntax unified
 398              		.thumb
 399              		.thumb_func
 401              	USART2_IRQHandler:
 402              	.LFB78:
 260:Core/Src/stm32f1xx_it.c **** 
 261:Core/Src/stm32f1xx_it.c **** /**
 262:Core/Src/stm32f1xx_it.c ****   * @brief This function handles USART2 global interrupt.
 263:Core/Src/stm32f1xx_it.c ****   */
 264:Core/Src/stm32f1xx_it.c **** void USART2_IRQHandler(void)
 265:Core/Src/stm32f1xx_it.c **** {
 403              		.loc 1 265 1 is_stmt 1 view -0
 404              		.cfi_startproc
 405              		@ args = 0, pretend = 0, frame = 0
 406              		@ frame_needed = 0, uses_anonymous_args = 0
 407 0000 08B5     		push	{r3, lr}
 408              	.LCFI4:
 409              		.cfi_def_cfa_offset 8
 410              		.cfi_offset 3, -8
 411              		.cfi_offset 14, -4
 266:Core/Src/stm32f1xx_it.c ****   /* USER CODE BEGIN USART2_IRQn 0 */
 267:Core/Src/stm32f1xx_it.c **** 
 268:Core/Src/stm32f1xx_it.c ****   /* USER CODE END USART2_IRQn 0 */
 269:Core/Src/stm32f1xx_it.c ****   HAL_UART_IRQHandler(&huart2);
 412              		.loc 1 269 3 view .LVU59
 413 0002 0248     		ldr	r0, .L39
 414 0004 FFF7FEFF 		bl	HAL_UART_IRQHandler
 415              	.LVL5:
 270:Core/Src/stm32f1xx_it.c ****   /* USER CODE BEGIN USART2_IRQn 1 */
 271:Core/Src/stm32f1xx_it.c **** 
 272:Core/Src/stm32f1xx_it.c ****   /* USER CODE END USART2_IRQn 1 */
 273:Core/Src/stm32f1xx_it.c **** }
 416              		.loc 1 273 1 is_stmt 0 view .LVU60
 417 0008 08BD     		pop	{r3, pc}
 418              	.L40:
 419 000a 00BF     		.align	2
 420              	.L39:
 421 000c 00000000 		.word	huart2
 422              		.cfi_endproc
 423              	.LFE78:
 425              		.section	.text.RTC_Alarm_IRQHandler,"ax",%progbits
 426              		.align	1
 427              		.global	RTC_Alarm_IRQHandler
 428              		.syntax unified
 429              		.thumb
 430              		.thumb_func
 432              	RTC_Alarm_IRQHandler:
ARM GAS  C:\Users\Admin\AppData\Local\Temp\ccRKmbo6.s 			page 13


 433              	.LFB79:
 274:Core/Src/stm32f1xx_it.c **** 
 275:Core/Src/stm32f1xx_it.c **** /**
 276:Core/Src/stm32f1xx_it.c ****   * @brief This function handles RTC alarm interrupt through EXTI line 17.
 277:Core/Src/stm32f1xx_it.c ****   */
 278:Core/Src/stm32f1xx_it.c **** void RTC_Alarm_IRQHandler(void)
 279:Core/Src/stm32f1xx_it.c **** {
 434              		.loc 1 279 1 is_stmt 1 view -0
 435              		.cfi_startproc
 436              		@ args = 0, pretend = 0, frame = 0
 437              		@ frame_needed = 0, uses_anonymous_args = 0
 438 0000 08B5     		push	{r3, lr}
 439              	.LCFI5:
 440              		.cfi_def_cfa_offset 8
 441              		.cfi_offset 3, -8
 442              		.cfi_offset 14, -4
 280:Core/Src/stm32f1xx_it.c ****   /* USER CODE BEGIN RTC_Alarm_IRQn 0 */
 281:Core/Src/stm32f1xx_it.c **** 
 282:Core/Src/stm32f1xx_it.c ****   /* USER CODE END RTC_Alarm_IRQn 0 */
 283:Core/Src/stm32f1xx_it.c ****   HAL_RTC_AlarmIRQHandler(&hrtc);
 443              		.loc 1 283 3 view .LVU62
 444 0002 0248     		ldr	r0, .L43
 445 0004 FFF7FEFF 		bl	HAL_RTC_AlarmIRQHandler
 446              	.LVL6:
 284:Core/Src/stm32f1xx_it.c ****   /* USER CODE BEGIN RTC_Alarm_IRQn 1 */
 285:Core/Src/stm32f1xx_it.c **** 
 286:Core/Src/stm32f1xx_it.c ****   /* USER CODE END RTC_Alarm_IRQn 1 */
 287:Core/Src/stm32f1xx_it.c **** }
 447              		.loc 1 287 1 is_stmt 0 view .LVU63
 448 0008 08BD     		pop	{r3, pc}
 449              	.L44:
 450 000a 00BF     		.align	2
 451              	.L43:
 452 000c 00000000 		.word	hrtc
 453              		.cfi_endproc
 454              	.LFE79:
 456              		.section	.text.UART4_IRQHandler,"ax",%progbits
 457              		.align	1
 458              		.global	UART4_IRQHandler
 459              		.syntax unified
 460              		.thumb
 461              		.thumb_func
 463              	UART4_IRQHandler:
 464              	.LFB80:
 288:Core/Src/stm32f1xx_it.c **** 
 289:Core/Src/stm32f1xx_it.c **** /**
 290:Core/Src/stm32f1xx_it.c ****   * @brief This function handles UART4 global interrupt.
 291:Core/Src/stm32f1xx_it.c ****   */
 292:Core/Src/stm32f1xx_it.c **** void UART4_IRQHandler(void)
 293:Core/Src/stm32f1xx_it.c **** {
 465              		.loc 1 293 1 is_stmt 1 view -0
 466              		.cfi_startproc
 467              		@ args = 0, pretend = 0, frame = 0
 468              		@ frame_needed = 0, uses_anonymous_args = 0
 469 0000 08B5     		push	{r3, lr}
 470              	.LCFI6:
 471              		.cfi_def_cfa_offset 8
ARM GAS  C:\Users\Admin\AppData\Local\Temp\ccRKmbo6.s 			page 14


 472              		.cfi_offset 3, -8
 473              		.cfi_offset 14, -4
 294:Core/Src/stm32f1xx_it.c ****   /* USER CODE BEGIN UART4_IRQn 0 */
 295:Core/Src/stm32f1xx_it.c **** 
 296:Core/Src/stm32f1xx_it.c ****   /* USER CODE END UART4_IRQn 0 */
 297:Core/Src/stm32f1xx_it.c ****   HAL_UART_IRQHandler(&huart4);
 474              		.loc 1 297 3 view .LVU65
 475 0002 0248     		ldr	r0, .L47
 476 0004 FFF7FEFF 		bl	HAL_UART_IRQHandler
 477              	.LVL7:
 298:Core/Src/stm32f1xx_it.c ****   /* USER CODE BEGIN UART4_IRQn 1 */
 299:Core/Src/stm32f1xx_it.c **** 
 300:Core/Src/stm32f1xx_it.c ****   /* USER CODE END UART4_IRQn 1 */
 301:Core/Src/stm32f1xx_it.c **** }
 478              		.loc 1 301 1 is_stmt 0 view .LVU66
 479 0008 08BD     		pop	{r3, pc}
 480              	.L48:
 481 000a 00BF     		.align	2
 482              	.L47:
 483 000c 00000000 		.word	huart4
 484              		.cfi_endproc
 485              	.LFE80:
 487              		.global	Timer2
 488              		.global	Timer1
 489              		.global	FatFsCnt
 490              		.section	.bss.FatFsCnt,"aw",%nobits
 491              		.set	.LANCHOR2,. + 0
 494              	FatFsCnt:
 495 0000 00       		.space	1
 496              		.section	.bss.Timer1,"aw",%nobits
 497              		.align	1
 498              		.set	.LANCHOR0,. + 0
 501              	Timer1:
 502 0000 0000     		.space	2
 503              		.section	.bss.Timer2,"aw",%nobits
 504              		.align	1
 505              		.set	.LANCHOR1,. + 0
 508              	Timer2:
 509 0000 0000     		.space	2
 510              		.text
 511              	.Letext0:
 512              		.file 2 "d:\\10 2021.10\\arm-none-eabi\\include\\machine\\_default_types.h"
 513              		.file 3 "d:\\10 2021.10\\arm-none-eabi\\include\\sys\\_stdint.h"
 514              		.file 4 "Drivers/CMSIS/Device/ST/STM32F1xx/Include/stm32f103xe.h"
 515              		.file 5 "Drivers/STM32F1xx_HAL_Driver/Inc/stm32f1xx_hal_def.h"
 516              		.file 6 "Drivers/STM32F1xx_HAL_Driver/Inc/stm32f1xx_hal_dma.h"
 517              		.file 7 "Drivers/STM32F1xx_HAL_Driver/Inc/stm32f1xx_hal_rtc.h"
 518              		.file 8 "Drivers/STM32F1xx_HAL_Driver/Inc/stm32f1xx_hal_tim.h"
 519              		.file 9 "Drivers/STM32F1xx_HAL_Driver/Inc/stm32f1xx_hal_uart.h"
 520              		.file 10 "Drivers/STM32F1xx_HAL_Driver/Inc/stm32f1xx_hal.h"
ARM GAS  C:\Users\Admin\AppData\Local\Temp\ccRKmbo6.s 			page 15

