ARM GAS  C:\Users\Admin\AppData\Local\Temp\ccT3ViES.s 			page 1


   1              		.cpu cortex-m3
   2              		.arch armv7-m
   3              		.fpu softvfp
   4              		.eabi_attribute 20, 1
   5              		.eabi_attribute 21, 1
   6              		.eabi_attribute 23, 3
   7              		.eabi_attribute 24, 1
   8              		.eabi_attribute 25, 1
   9              		.eabi_attribute 26, 1
  10              		.eabi_attribute 30, 1
  11              		.eabi_attribute 34, 1
  12              		.eabi_attribute 18, 4
  13              		.file	"usart.c"
  14              		.text
  15              	.Ltext0:
  16              		.cfi_sections	.debug_frame
  17              		.section	.text.MX_UART4_Init,"ax",%progbits
  18              		.align	1
  19              		.global	MX_UART4_Init
  20              		.syntax unified
  21              		.thumb
  22              		.thumb_func
  24              	MX_UART4_Init:
  25              	.LFB65:
  26              		.file 1 "Core/Src/usart.c"
   1:Core/Src/usart.c **** /* USER CODE BEGIN Header */
   2:Core/Src/usart.c **** /**
   3:Core/Src/usart.c ****   ******************************************************************************
   4:Core/Src/usart.c ****   * @file    usart.c
   5:Core/Src/usart.c ****   * @brief   This file provides code for the configuration
   6:Core/Src/usart.c ****   *          of the USART instances.
   7:Core/Src/usart.c ****   ******************************************************************************
   8:Core/Src/usart.c ****   * @attention
   9:Core/Src/usart.c ****   *
  10:Core/Src/usart.c ****   * Copyright (c) 2023 STMicroelectronics.
  11:Core/Src/usart.c ****   * All rights reserved.
  12:Core/Src/usart.c ****   *
  13:Core/Src/usart.c ****   * This software is licensed under terms that can be found in the LICENSE file
  14:Core/Src/usart.c ****   * in the root directory of this software component.
  15:Core/Src/usart.c ****   * If no LICENSE file comes with this software, it is provided AS-IS.
  16:Core/Src/usart.c ****   *
  17:Core/Src/usart.c ****   ******************************************************************************
  18:Core/Src/usart.c ****   */
  19:Core/Src/usart.c **** /* USER CODE END Header */
  20:Core/Src/usart.c **** /* Includes ------------------------------------------------------------------*/
  21:Core/Src/usart.c **** #include "usart.h"
  22:Core/Src/usart.c **** 
  23:Core/Src/usart.c **** /* USER CODE BEGIN 0 */
  24:Core/Src/usart.c **** 
  25:Core/Src/usart.c **** /* USER CODE END 0 */
  26:Core/Src/usart.c **** 
  27:Core/Src/usart.c **** UART_HandleTypeDef huart4;
  28:Core/Src/usart.c **** UART_HandleTypeDef huart5;
  29:Core/Src/usart.c **** UART_HandleTypeDef huart1;
  30:Core/Src/usart.c **** UART_HandleTypeDef huart2;
  31:Core/Src/usart.c **** 
  32:Core/Src/usart.c **** /* UART4 init function */
ARM GAS  C:\Users\Admin\AppData\Local\Temp\ccT3ViES.s 			page 2


  33:Core/Src/usart.c **** void MX_UART4_Init(void)
  34:Core/Src/usart.c **** {
  27              		.loc 1 34 1 view -0
  28              		.cfi_startproc
  29              		@ args = 0, pretend = 0, frame = 0
  30              		@ frame_needed = 0, uses_anonymous_args = 0
  31 0000 08B5     		push	{r3, lr}
  32              	.LCFI0:
  33              		.cfi_def_cfa_offset 8
  34              		.cfi_offset 3, -8
  35              		.cfi_offset 14, -4
  35:Core/Src/usart.c **** 
  36:Core/Src/usart.c ****   /* USER CODE BEGIN UART4_Init 0 */
  37:Core/Src/usart.c **** 
  38:Core/Src/usart.c ****   /* USER CODE END UART4_Init 0 */
  39:Core/Src/usart.c **** 
  40:Core/Src/usart.c ****   /* USER CODE BEGIN UART4_Init 1 */
  41:Core/Src/usart.c **** 
  42:Core/Src/usart.c ****   /* USER CODE END UART4_Init 1 */
  43:Core/Src/usart.c ****   huart4.Instance = UART4;
  36              		.loc 1 43 3 view .LVU1
  37              		.loc 1 43 19 is_stmt 0 view .LVU2
  38 0002 0A48     		ldr	r0, .L5
  39 0004 0A4B     		ldr	r3, .L5+4
  40 0006 0360     		str	r3, [r0]
  44:Core/Src/usart.c ****   huart4.Init.BaudRate = 9600;
  41              		.loc 1 44 3 is_stmt 1 view .LVU3
  42              		.loc 1 44 24 is_stmt 0 view .LVU4
  43 0008 4FF41653 		mov	r3, #9600
  44 000c 4360     		str	r3, [r0, #4]
  45:Core/Src/usart.c ****   huart4.Init.WordLength = UART_WORDLENGTH_8B;
  45              		.loc 1 45 3 is_stmt 1 view .LVU5
  46              		.loc 1 45 26 is_stmt 0 view .LVU6
  47 000e 0023     		movs	r3, #0
  48 0010 8360     		str	r3, [r0, #8]
  46:Core/Src/usart.c ****   huart4.Init.StopBits = UART_STOPBITS_1;
  49              		.loc 1 46 3 is_stmt 1 view .LVU7
  50              		.loc 1 46 24 is_stmt 0 view .LVU8
  51 0012 C360     		str	r3, [r0, #12]
  47:Core/Src/usart.c ****   huart4.Init.Parity = UART_PARITY_NONE;
  52              		.loc 1 47 3 is_stmt 1 view .LVU9
  53              		.loc 1 47 22 is_stmt 0 view .LVU10
  54 0014 0361     		str	r3, [r0, #16]
  48:Core/Src/usart.c ****   huart4.Init.Mode = UART_MODE_TX_RX;
  55              		.loc 1 48 3 is_stmt 1 view .LVU11
  56              		.loc 1 48 20 is_stmt 0 view .LVU12
  57 0016 0C22     		movs	r2, #12
  58 0018 4261     		str	r2, [r0, #20]
  49:Core/Src/usart.c ****   huart4.Init.HwFlowCtl = UART_HWCONTROL_NONE;
  59              		.loc 1 49 3 is_stmt 1 view .LVU13
  60              		.loc 1 49 25 is_stmt 0 view .LVU14
  61 001a 8361     		str	r3, [r0, #24]
  50:Core/Src/usart.c ****   huart4.Init.OverSampling = UART_OVERSAMPLING_16;
  62              		.loc 1 50 3 is_stmt 1 view .LVU15
  63              		.loc 1 50 28 is_stmt 0 view .LVU16
  64 001c C361     		str	r3, [r0, #28]
  51:Core/Src/usart.c ****   if (HAL_UART_Init(&huart4) != HAL_OK)
ARM GAS  C:\Users\Admin\AppData\Local\Temp\ccT3ViES.s 			page 3


  65              		.loc 1 51 3 is_stmt 1 view .LVU17
  66              		.loc 1 51 7 is_stmt 0 view .LVU18
  67 001e FFF7FEFF 		bl	HAL_UART_Init
  68              	.LVL0:
  69              		.loc 1 51 6 view .LVU19
  70 0022 00B9     		cbnz	r0, .L4
  71              	.L1:
  52:Core/Src/usart.c ****   {
  53:Core/Src/usart.c ****     Error_Handler();
  54:Core/Src/usart.c ****   }
  55:Core/Src/usart.c ****   /* USER CODE BEGIN UART4_Init 2 */
  56:Core/Src/usart.c **** 
  57:Core/Src/usart.c ****   /* USER CODE END UART4_Init 2 */
  58:Core/Src/usart.c **** 
  59:Core/Src/usart.c **** }
  72              		.loc 1 59 1 view .LVU20
  73 0024 08BD     		pop	{r3, pc}
  74              	.L4:
  53:Core/Src/usart.c ****   }
  75              		.loc 1 53 5 is_stmt 1 view .LVU21
  76 0026 FFF7FEFF 		bl	Error_Handler
  77              	.LVL1:
  78              		.loc 1 59 1 is_stmt 0 view .LVU22
  79 002a FBE7     		b	.L1
  80              	.L6:
  81              		.align	2
  82              	.L5:
  83 002c 00000000 		.word	.LANCHOR0
  84 0030 004C0040 		.word	1073761280
  85              		.cfi_endproc
  86              	.LFE65:
  88              		.section	.text.MX_UART5_Init,"ax",%progbits
  89              		.align	1
  90              		.global	MX_UART5_Init
  91              		.syntax unified
  92              		.thumb
  93              		.thumb_func
  95              	MX_UART5_Init:
  96              	.LFB66:
  60:Core/Src/usart.c **** /* UART5 init function */
  61:Core/Src/usart.c **** void MX_UART5_Init(void)
  62:Core/Src/usart.c **** {
  97              		.loc 1 62 1 is_stmt 1 view -0
  98              		.cfi_startproc
  99              		@ args = 0, pretend = 0, frame = 0
 100              		@ frame_needed = 0, uses_anonymous_args = 0
 101 0000 08B5     		push	{r3, lr}
 102              	.LCFI1:
 103              		.cfi_def_cfa_offset 8
 104              		.cfi_offset 3, -8
 105              		.cfi_offset 14, -4
  63:Core/Src/usart.c **** 
  64:Core/Src/usart.c ****   /* USER CODE BEGIN UART5_Init 0 */
  65:Core/Src/usart.c **** 
  66:Core/Src/usart.c ****   /* USER CODE END UART5_Init 0 */
  67:Core/Src/usart.c **** 
  68:Core/Src/usart.c ****   /* USER CODE BEGIN UART5_Init 1 */
ARM GAS  C:\Users\Admin\AppData\Local\Temp\ccT3ViES.s 			page 4


  69:Core/Src/usart.c **** 
  70:Core/Src/usart.c ****   /* USER CODE END UART5_Init 1 */
  71:Core/Src/usart.c ****   huart5.Instance = UART5;
 106              		.loc 1 71 3 view .LVU24
 107              		.loc 1 71 19 is_stmt 0 view .LVU25
 108 0002 0A48     		ldr	r0, .L11
 109 0004 0A4B     		ldr	r3, .L11+4
 110 0006 0360     		str	r3, [r0]
  72:Core/Src/usart.c ****   huart5.Init.BaudRate = 115200;
 111              		.loc 1 72 3 is_stmt 1 view .LVU26
 112              		.loc 1 72 24 is_stmt 0 view .LVU27
 113 0008 4FF4E133 		mov	r3, #115200
 114 000c 4360     		str	r3, [r0, #4]
  73:Core/Src/usart.c ****   huart5.Init.WordLength = UART_WORDLENGTH_8B;
 115              		.loc 1 73 3 is_stmt 1 view .LVU28
 116              		.loc 1 73 26 is_stmt 0 view .LVU29
 117 000e 0023     		movs	r3, #0
 118 0010 8360     		str	r3, [r0, #8]
  74:Core/Src/usart.c ****   huart5.Init.StopBits = UART_STOPBITS_1;
 119              		.loc 1 74 3 is_stmt 1 view .LVU30
 120              		.loc 1 74 24 is_stmt 0 view .LVU31
 121 0012 C360     		str	r3, [r0, #12]
  75:Core/Src/usart.c ****   huart5.Init.Parity = UART_PARITY_NONE;
 122              		.loc 1 75 3 is_stmt 1 view .LVU32
 123              		.loc 1 75 22 is_stmt 0 view .LVU33
 124 0014 0361     		str	r3, [r0, #16]
  76:Core/Src/usart.c ****   huart5.Init.Mode = UART_MODE_TX_RX;
 125              		.loc 1 76 3 is_stmt 1 view .LVU34
 126              		.loc 1 76 20 is_stmt 0 view .LVU35
 127 0016 0C22     		movs	r2, #12
 128 0018 4261     		str	r2, [r0, #20]
  77:Core/Src/usart.c ****   huart5.Init.HwFlowCtl = UART_HWCONTROL_NONE;
 129              		.loc 1 77 3 is_stmt 1 view .LVU36
 130              		.loc 1 77 25 is_stmt 0 view .LVU37
 131 001a 8361     		str	r3, [r0, #24]
  78:Core/Src/usart.c ****   huart5.Init.OverSampling = UART_OVERSAMPLING_16;
 132              		.loc 1 78 3 is_stmt 1 view .LVU38
 133              		.loc 1 78 28 is_stmt 0 view .LVU39
 134 001c C361     		str	r3, [r0, #28]
  79:Core/Src/usart.c ****   if (HAL_UART_Init(&huart5) != HAL_OK)
 135              		.loc 1 79 3 is_stmt 1 view .LVU40
 136              		.loc 1 79 7 is_stmt 0 view .LVU41
 137 001e FFF7FEFF 		bl	HAL_UART_Init
 138              	.LVL2:
 139              		.loc 1 79 6 view .LVU42
 140 0022 00B9     		cbnz	r0, .L10
 141              	.L7:
  80:Core/Src/usart.c ****   {
  81:Core/Src/usart.c ****     Error_Handler();
  82:Core/Src/usart.c ****   }
  83:Core/Src/usart.c ****   /* USER CODE BEGIN UART5_Init 2 */
  84:Core/Src/usart.c **** 
  85:Core/Src/usart.c ****   /* USER CODE END UART5_Init 2 */
  86:Core/Src/usart.c **** 
  87:Core/Src/usart.c **** }
 142              		.loc 1 87 1 view .LVU43
 143 0024 08BD     		pop	{r3, pc}
ARM GAS  C:\Users\Admin\AppData\Local\Temp\ccT3ViES.s 			page 5


 144              	.L10:
  81:Core/Src/usart.c ****   }
 145              		.loc 1 81 5 is_stmt 1 view .LVU44
 146 0026 FFF7FEFF 		bl	Error_Handler
 147              	.LVL3:
 148              		.loc 1 87 1 is_stmt 0 view .LVU45
 149 002a FBE7     		b	.L7
 150              	.L12:
 151              		.align	2
 152              	.L11:
 153 002c 00000000 		.word	.LANCHOR1
 154 0030 00500040 		.word	1073762304
 155              		.cfi_endproc
 156              	.LFE66:
 158              		.section	.text.MX_USART1_UART_Init,"ax",%progbits
 159              		.align	1
 160              		.global	MX_USART1_UART_Init
 161              		.syntax unified
 162              		.thumb
 163              		.thumb_func
 165              	MX_USART1_UART_Init:
 166              	.LFB67:
  88:Core/Src/usart.c **** /* USART1 init function */
  89:Core/Src/usart.c **** 
  90:Core/Src/usart.c **** void MX_USART1_UART_Init(void)
  91:Core/Src/usart.c **** {
 167              		.loc 1 91 1 is_stmt 1 view -0
 168              		.cfi_startproc
 169              		@ args = 0, pretend = 0, frame = 0
 170              		@ frame_needed = 0, uses_anonymous_args = 0
 171 0000 08B5     		push	{r3, lr}
 172              	.LCFI2:
 173              		.cfi_def_cfa_offset 8
 174              		.cfi_offset 3, -8
 175              		.cfi_offset 14, -4
  92:Core/Src/usart.c **** 
  93:Core/Src/usart.c ****   /* USER CODE BEGIN USART1_Init 0 */
  94:Core/Src/usart.c **** 
  95:Core/Src/usart.c ****   /* USER CODE END USART1_Init 0 */
  96:Core/Src/usart.c **** 
  97:Core/Src/usart.c ****   /* USER CODE BEGIN USART1_Init 1 */
  98:Core/Src/usart.c **** 
  99:Core/Src/usart.c ****   /* USER CODE END USART1_Init 1 */
 100:Core/Src/usart.c ****   huart1.Instance = USART1;
 176              		.loc 1 100 3 view .LVU47
 177              		.loc 1 100 19 is_stmt 0 view .LVU48
 178 0002 0A48     		ldr	r0, .L17
 179 0004 0A4B     		ldr	r3, .L17+4
 180 0006 0360     		str	r3, [r0]
 101:Core/Src/usart.c ****   huart1.Init.BaudRate = 115200;
 181              		.loc 1 101 3 is_stmt 1 view .LVU49
 182              		.loc 1 101 24 is_stmt 0 view .LVU50
 183 0008 4FF4E133 		mov	r3, #115200
 184 000c 4360     		str	r3, [r0, #4]
 102:Core/Src/usart.c ****   huart1.Init.WordLength = UART_WORDLENGTH_8B;
 185              		.loc 1 102 3 is_stmt 1 view .LVU51
 186              		.loc 1 102 26 is_stmt 0 view .LVU52
ARM GAS  C:\Users\Admin\AppData\Local\Temp\ccT3ViES.s 			page 6


 187 000e 0023     		movs	r3, #0
 188 0010 8360     		str	r3, [r0, #8]
 103:Core/Src/usart.c ****   huart1.Init.StopBits = UART_STOPBITS_1;
 189              		.loc 1 103 3 is_stmt 1 view .LVU53
 190              		.loc 1 103 24 is_stmt 0 view .LVU54
 191 0012 C360     		str	r3, [r0, #12]
 104:Core/Src/usart.c ****   huart1.Init.Parity = UART_PARITY_NONE;
 192              		.loc 1 104 3 is_stmt 1 view .LVU55
 193              		.loc 1 104 22 is_stmt 0 view .LVU56
 194 0014 0361     		str	r3, [r0, #16]
 105:Core/Src/usart.c ****   huart1.Init.Mode = UART_MODE_TX_RX;
 195              		.loc 1 105 3 is_stmt 1 view .LVU57
 196              		.loc 1 105 20 is_stmt 0 view .LVU58
 197 0016 0C22     		movs	r2, #12
 198 0018 4261     		str	r2, [r0, #20]
 106:Core/Src/usart.c ****   huart1.Init.HwFlowCtl = UART_HWCONTROL_NONE;
 199              		.loc 1 106 3 is_stmt 1 view .LVU59
 200              		.loc 1 106 25 is_stmt 0 view .LVU60
 201 001a 8361     		str	r3, [r0, #24]
 107:Core/Src/usart.c ****   huart1.Init.OverSampling = UART_OVERSAMPLING_16;
 202              		.loc 1 107 3 is_stmt 1 view .LVU61
 203              		.loc 1 107 28 is_stmt 0 view .LVU62
 204 001c C361     		str	r3, [r0, #28]
 108:Core/Src/usart.c ****   if (HAL_UART_Init(&huart1) != HAL_OK)
 205              		.loc 1 108 3 is_stmt 1 view .LVU63
 206              		.loc 1 108 7 is_stmt 0 view .LVU64
 207 001e FFF7FEFF 		bl	HAL_UART_Init
 208              	.LVL4:
 209              		.loc 1 108 6 view .LVU65
 210 0022 00B9     		cbnz	r0, .L16
 211              	.L13:
 109:Core/Src/usart.c ****   {
 110:Core/Src/usart.c ****     Error_Handler();
 111:Core/Src/usart.c ****   }
 112:Core/Src/usart.c ****   /* USER CODE BEGIN USART1_Init 2 */
 113:Core/Src/usart.c **** 
 114:Core/Src/usart.c ****   /* USER CODE END USART1_Init 2 */
 115:Core/Src/usart.c **** 
 116:Core/Src/usart.c **** }
 212              		.loc 1 116 1 view .LVU66
 213 0024 08BD     		pop	{r3, pc}
 214              	.L16:
 110:Core/Src/usart.c ****   }
 215              		.loc 1 110 5 is_stmt 1 view .LVU67
 216 0026 FFF7FEFF 		bl	Error_Handler
 217              	.LVL5:
 218              		.loc 1 116 1 is_stmt 0 view .LVU68
 219 002a FBE7     		b	.L13
 220              	.L18:
 221              		.align	2
 222              	.L17:
 223 002c 00000000 		.word	.LANCHOR2
 224 0030 00380140 		.word	1073821696
 225              		.cfi_endproc
 226              	.LFE67:
 228              		.section	.text.MX_USART2_UART_Init,"ax",%progbits
 229              		.align	1
ARM GAS  C:\Users\Admin\AppData\Local\Temp\ccT3ViES.s 			page 7


 230              		.global	MX_USART2_UART_Init
 231              		.syntax unified
 232              		.thumb
 233              		.thumb_func
 235              	MX_USART2_UART_Init:
 236              	.LFB68:
 117:Core/Src/usart.c **** /* USART2 init function */
 118:Core/Src/usart.c **** 
 119:Core/Src/usart.c **** void MX_USART2_UART_Init(void)
 120:Core/Src/usart.c **** {
 237              		.loc 1 120 1 is_stmt 1 view -0
 238              		.cfi_startproc
 239              		@ args = 0, pretend = 0, frame = 0
 240              		@ frame_needed = 0, uses_anonymous_args = 0
 241 0000 08B5     		push	{r3, lr}
 242              	.LCFI3:
 243              		.cfi_def_cfa_offset 8
 244              		.cfi_offset 3, -8
 245              		.cfi_offset 14, -4
 121:Core/Src/usart.c **** 
 122:Core/Src/usart.c ****   /* USER CODE BEGIN USART2_Init 0 */
 123:Core/Src/usart.c **** 
 124:Core/Src/usart.c ****   /* USER CODE END USART2_Init 0 */
 125:Core/Src/usart.c **** 
 126:Core/Src/usart.c ****   /* USER CODE BEGIN USART2_Init 1 */
 127:Core/Src/usart.c **** 
 128:Core/Src/usart.c ****   /* USER CODE END USART2_Init 1 */
 129:Core/Src/usart.c ****   huart2.Instance = USART2;
 246              		.loc 1 129 3 view .LVU70
 247              		.loc 1 129 19 is_stmt 0 view .LVU71
 248 0002 0A48     		ldr	r0, .L23
 249 0004 0A4B     		ldr	r3, .L23+4
 250 0006 0360     		str	r3, [r0]
 130:Core/Src/usart.c ****   huart2.Init.BaudRate = 9600;
 251              		.loc 1 130 3 is_stmt 1 view .LVU72
 252              		.loc 1 130 24 is_stmt 0 view .LVU73
 253 0008 4FF41653 		mov	r3, #9600
 254 000c 4360     		str	r3, [r0, #4]
 131:Core/Src/usart.c ****   huart2.Init.WordLength = UART_WORDLENGTH_8B;
 255              		.loc 1 131 3 is_stmt 1 view .LVU74
 256              		.loc 1 131 26 is_stmt 0 view .LVU75
 257 000e 0023     		movs	r3, #0
 258 0010 8360     		str	r3, [r0, #8]
 132:Core/Src/usart.c ****   huart2.Init.StopBits = UART_STOPBITS_1;
 259              		.loc 1 132 3 is_stmt 1 view .LVU76
 260              		.loc 1 132 24 is_stmt 0 view .LVU77
 261 0012 C360     		str	r3, [r0, #12]
 133:Core/Src/usart.c ****   huart2.Init.Parity = UART_PARITY_NONE;
 262              		.loc 1 133 3 is_stmt 1 view .LVU78
 263              		.loc 1 133 22 is_stmt 0 view .LVU79
 264 0014 0361     		str	r3, [r0, #16]
 134:Core/Src/usart.c ****   huart2.Init.Mode = UART_MODE_TX_RX;
 265              		.loc 1 134 3 is_stmt 1 view .LVU80
 266              		.loc 1 134 20 is_stmt 0 view .LVU81
 267 0016 0C22     		movs	r2, #12
 268 0018 4261     		str	r2, [r0, #20]
 135:Core/Src/usart.c ****   huart2.Init.HwFlowCtl = UART_HWCONTROL_NONE;
ARM GAS  C:\Users\Admin\AppData\Local\Temp\ccT3ViES.s 			page 8


 269              		.loc 1 135 3 is_stmt 1 view .LVU82
 270              		.loc 1 135 25 is_stmt 0 view .LVU83
 271 001a 8361     		str	r3, [r0, #24]
 136:Core/Src/usart.c ****   huart2.Init.OverSampling = UART_OVERSAMPLING_16;
 272              		.loc 1 136 3 is_stmt 1 view .LVU84
 273              		.loc 1 136 28 is_stmt 0 view .LVU85
 274 001c C361     		str	r3, [r0, #28]
 137:Core/Src/usart.c ****   if (HAL_UART_Init(&huart2) != HAL_OK)
 275              		.loc 1 137 3 is_stmt 1 view .LVU86
 276              		.loc 1 137 7 is_stmt 0 view .LVU87
 277 001e FFF7FEFF 		bl	HAL_UART_Init
 278              	.LVL6:
 279              		.loc 1 137 6 view .LVU88
 280 0022 00B9     		cbnz	r0, .L22
 281              	.L19:
 138:Core/Src/usart.c ****   {
 139:Core/Src/usart.c ****     Error_Handler();
 140:Core/Src/usart.c ****   }
 141:Core/Src/usart.c ****   /* USER CODE BEGIN USART2_Init 2 */
 142:Core/Src/usart.c **** 
 143:Core/Src/usart.c ****   /* USER CODE END USART2_Init 2 */
 144:Core/Src/usart.c **** 
 145:Core/Src/usart.c **** }
 282              		.loc 1 145 1 view .LVU89
 283 0024 08BD     		pop	{r3, pc}
 284              	.L22:
 139:Core/Src/usart.c ****   }
 285              		.loc 1 139 5 is_stmt 1 view .LVU90
 286 0026 FFF7FEFF 		bl	Error_Handler
 287              	.LVL7:
 288              		.loc 1 145 1 is_stmt 0 view .LVU91
 289 002a FBE7     		b	.L19
 290              	.L24:
 291              		.align	2
 292              	.L23:
 293 002c 00000000 		.word	.LANCHOR3
 294 0030 00440040 		.word	1073759232
 295              		.cfi_endproc
 296              	.LFE68:
 298              		.section	.text.HAL_UART_MspInit,"ax",%progbits
 299              		.align	1
 300              		.global	HAL_UART_MspInit
 301              		.syntax unified
 302              		.thumb
 303              		.thumb_func
 305              	HAL_UART_MspInit:
 306              	.LVL8:
 307              	.LFB69:
 146:Core/Src/usart.c **** 
 147:Core/Src/usart.c **** void HAL_UART_MspInit(UART_HandleTypeDef* uartHandle)
 148:Core/Src/usart.c **** {
 308              		.loc 1 148 1 is_stmt 1 view -0
 309              		.cfi_startproc
 310              		@ args = 0, pretend = 0, frame = 56
 311              		@ frame_needed = 0, uses_anonymous_args = 0
 312              		.loc 1 148 1 is_stmt 0 view .LVU93
 313 0000 70B5     		push	{r4, r5, r6, lr}
ARM GAS  C:\Users\Admin\AppData\Local\Temp\ccT3ViES.s 			page 9


 314              	.LCFI4:
 315              		.cfi_def_cfa_offset 16
 316              		.cfi_offset 4, -16
 317              		.cfi_offset 5, -12
 318              		.cfi_offset 6, -8
 319              		.cfi_offset 14, -4
 320 0002 8EB0     		sub	sp, sp, #56
 321              	.LCFI5:
 322              		.cfi_def_cfa_offset 72
 149:Core/Src/usart.c **** 
 150:Core/Src/usart.c ****   GPIO_InitTypeDef GPIO_InitStruct = {0};
 323              		.loc 1 150 3 is_stmt 1 view .LVU94
 324              		.loc 1 150 20 is_stmt 0 view .LVU95
 325 0004 0023     		movs	r3, #0
 326 0006 0A93     		str	r3, [sp, #40]
 327 0008 0B93     		str	r3, [sp, #44]
 328 000a 0C93     		str	r3, [sp, #48]
 329 000c 0D93     		str	r3, [sp, #52]
 151:Core/Src/usart.c ****   if(uartHandle->Instance==UART4)
 330              		.loc 1 151 3 is_stmt 1 view .LVU96
 331              		.loc 1 151 16 is_stmt 0 view .LVU97
 332 000e 0368     		ldr	r3, [r0]
 333              		.loc 1 151 5 view .LVU98
 334 0010 694A     		ldr	r2, .L35
 335 0012 9342     		cmp	r3, r2
 336 0014 0BD0     		beq	.L31
 152:Core/Src/usart.c ****   {
 153:Core/Src/usart.c ****   /* USER CODE BEGIN UART4_MspInit 0 */
 154:Core/Src/usart.c **** 
 155:Core/Src/usart.c ****   /* USER CODE END UART4_MspInit 0 */
 156:Core/Src/usart.c ****     /* UART4 clock enable */
 157:Core/Src/usart.c ****     __HAL_RCC_UART4_CLK_ENABLE();
 158:Core/Src/usart.c **** 
 159:Core/Src/usart.c ****     __HAL_RCC_GPIOC_CLK_ENABLE();
 160:Core/Src/usart.c ****     /**UART4 GPIO Configuration
 161:Core/Src/usart.c ****     PC10     ------> UART4_TX
 162:Core/Src/usart.c ****     PC11     ------> UART4_RX
 163:Core/Src/usart.c ****     */
 164:Core/Src/usart.c ****     GPIO_InitStruct.Pin = GNSS_TX_Pin;
 165:Core/Src/usart.c ****     GPIO_InitStruct.Mode = GPIO_MODE_AF_PP;
 166:Core/Src/usart.c ****     GPIO_InitStruct.Speed = GPIO_SPEED_FREQ_HIGH;
 167:Core/Src/usart.c ****     HAL_GPIO_Init(GNSS_TX_GPIO_Port, &GPIO_InitStruct);
 168:Core/Src/usart.c **** 
 169:Core/Src/usart.c ****     GPIO_InitStruct.Pin = GNSS_RX_Pin;
 170:Core/Src/usart.c ****     GPIO_InitStruct.Mode = GPIO_MODE_INPUT;
 171:Core/Src/usart.c ****     GPIO_InitStruct.Pull = GPIO_NOPULL;
 172:Core/Src/usart.c ****     HAL_GPIO_Init(GNSS_RX_GPIO_Port, &GPIO_InitStruct);
 173:Core/Src/usart.c **** 
 174:Core/Src/usart.c ****     /* UART4 interrupt Init */
 175:Core/Src/usart.c ****     HAL_NVIC_SetPriority(UART4_IRQn, 3, 0);
 176:Core/Src/usart.c ****     HAL_NVIC_EnableIRQ(UART4_IRQn);
 177:Core/Src/usart.c ****   /* USER CODE BEGIN UART4_MspInit 1 */
 178:Core/Src/usart.c **** 
 179:Core/Src/usart.c ****   /* USER CODE END UART4_MspInit 1 */
 180:Core/Src/usart.c ****   }
 181:Core/Src/usart.c ****   else if(uartHandle->Instance==UART5)
 337              		.loc 1 181 8 is_stmt 1 view .LVU99
ARM GAS  C:\Users\Admin\AppData\Local\Temp\ccT3ViES.s 			page 10


 338              		.loc 1 181 10 is_stmt 0 view .LVU100
 339 0016 694A     		ldr	r2, .L35+4
 340 0018 9342     		cmp	r3, r2
 341 001a 3AD0     		beq	.L32
 182:Core/Src/usart.c ****   {
 183:Core/Src/usart.c ****   /* USER CODE BEGIN UART5_MspInit 0 */
 184:Core/Src/usart.c **** 
 185:Core/Src/usart.c ****   /* USER CODE END UART5_MspInit 0 */
 186:Core/Src/usart.c ****     /* UART5 clock enable */
 187:Core/Src/usart.c ****     __HAL_RCC_UART5_CLK_ENABLE();
 188:Core/Src/usart.c **** 
 189:Core/Src/usart.c ****     __HAL_RCC_GPIOC_CLK_ENABLE();
 190:Core/Src/usart.c ****     __HAL_RCC_GPIOD_CLK_ENABLE();
 191:Core/Src/usart.c ****     /**UART5 GPIO Configuration
 192:Core/Src/usart.c ****     PC12     ------> UART5_TX
 193:Core/Src/usart.c ****     PD2     ------> UART5_RX
 194:Core/Src/usart.c ****     */
 195:Core/Src/usart.c ****     GPIO_InitStruct.Pin = DEBUG_TX_Pin;
 196:Core/Src/usart.c ****     GPIO_InitStruct.Mode = GPIO_MODE_AF_PP;
 197:Core/Src/usart.c ****     GPIO_InitStruct.Speed = GPIO_SPEED_FREQ_HIGH;
 198:Core/Src/usart.c ****     HAL_GPIO_Init(DEBUG_TX_GPIO_Port, &GPIO_InitStruct);
 199:Core/Src/usart.c **** 
 200:Core/Src/usart.c ****     GPIO_InitStruct.Pin = DEBUG_RX_Pin;
 201:Core/Src/usart.c ****     GPIO_InitStruct.Mode = GPIO_MODE_INPUT;
 202:Core/Src/usart.c ****     GPIO_InitStruct.Pull = GPIO_NOPULL;
 203:Core/Src/usart.c ****     HAL_GPIO_Init(DEBUG_RX_GPIO_Port, &GPIO_InitStruct);
 204:Core/Src/usart.c **** 
 205:Core/Src/usart.c ****   /* USER CODE BEGIN UART5_MspInit 1 */
 206:Core/Src/usart.c **** 
 207:Core/Src/usart.c ****   /* USER CODE END UART5_MspInit 1 */
 208:Core/Src/usart.c ****   }
 209:Core/Src/usart.c ****   else if(uartHandle->Instance==USART1)
 342              		.loc 1 209 8 is_stmt 1 view .LVU101
 343              		.loc 1 209 10 is_stmt 0 view .LVU102
 344 001c 684A     		ldr	r2, .L35+8
 345 001e 9342     		cmp	r3, r2
 346 0020 68D0     		beq	.L33
 210:Core/Src/usart.c ****   {
 211:Core/Src/usart.c ****   /* USER CODE BEGIN USART1_MspInit 0 */
 212:Core/Src/usart.c **** 
 213:Core/Src/usart.c ****   /* USER CODE END USART1_MspInit 0 */
 214:Core/Src/usart.c ****     /* USART1 clock enable */
 215:Core/Src/usart.c ****     __HAL_RCC_USART1_CLK_ENABLE();
 216:Core/Src/usart.c **** 
 217:Core/Src/usart.c ****     __HAL_RCC_GPIOA_CLK_ENABLE();
 218:Core/Src/usart.c ****     /**USART1 GPIO Configuration
 219:Core/Src/usart.c ****     PA9     ------> USART1_TX
 220:Core/Src/usart.c ****     PA10     ------> USART1_RX
 221:Core/Src/usart.c ****     */
 222:Core/Src/usart.c ****     GPIO_InitStruct.Pin = SIM_TX_Pin;
 223:Core/Src/usart.c ****     GPIO_InitStruct.Mode = GPIO_MODE_AF_PP;
 224:Core/Src/usart.c ****     GPIO_InitStruct.Speed = GPIO_SPEED_FREQ_HIGH;
 225:Core/Src/usart.c ****     HAL_GPIO_Init(SIM_TX_GPIO_Port, &GPIO_InitStruct);
 226:Core/Src/usart.c **** 
 227:Core/Src/usart.c ****     GPIO_InitStruct.Pin = SIM_RX_Pin;
 228:Core/Src/usart.c ****     GPIO_InitStruct.Mode = GPIO_MODE_INPUT;
 229:Core/Src/usart.c ****     GPIO_InitStruct.Pull = GPIO_NOPULL;
ARM GAS  C:\Users\Admin\AppData\Local\Temp\ccT3ViES.s 			page 11


 230:Core/Src/usart.c ****     HAL_GPIO_Init(SIM_RX_GPIO_Port, &GPIO_InitStruct);
 231:Core/Src/usart.c **** 
 232:Core/Src/usart.c ****     /* USART1 interrupt Init */
 233:Core/Src/usart.c ****     HAL_NVIC_SetPriority(USART1_IRQn, 2, 0);
 234:Core/Src/usart.c ****     HAL_NVIC_EnableIRQ(USART1_IRQn);
 235:Core/Src/usart.c ****   /* USER CODE BEGIN USART1_MspInit 1 */
 236:Core/Src/usart.c **** 
 237:Core/Src/usart.c ****   /* USER CODE END USART1_MspInit 1 */
 238:Core/Src/usart.c ****   }
 239:Core/Src/usart.c ****   else if(uartHandle->Instance==USART2)
 347              		.loc 1 239 8 is_stmt 1 view .LVU103
 348              		.loc 1 239 10 is_stmt 0 view .LVU104
 349 0022 684A     		ldr	r2, .L35+12
 350 0024 9342     		cmp	r3, r2
 351 0026 00F09780 		beq	.L34
 352              	.LVL9:
 353              	.L25:
 240:Core/Src/usart.c ****   {
 241:Core/Src/usart.c ****   /* USER CODE BEGIN USART2_MspInit 0 */
 242:Core/Src/usart.c **** 
 243:Core/Src/usart.c ****   /* USER CODE END USART2_MspInit 0 */
 244:Core/Src/usart.c ****     /* USART2 clock enable */
 245:Core/Src/usart.c ****     __HAL_RCC_USART2_CLK_ENABLE();
 246:Core/Src/usart.c **** 
 247:Core/Src/usart.c ****     __HAL_RCC_GPIOA_CLK_ENABLE();
 248:Core/Src/usart.c ****     /**USART2 GPIO Configuration
 249:Core/Src/usart.c ****     PA2     ------> USART2_TX
 250:Core/Src/usart.c ****     PA3     ------> USART2_RX
 251:Core/Src/usart.c ****     */
 252:Core/Src/usart.c ****     GPIO_InitStruct.Pin = RS232_TX_Pin;
 253:Core/Src/usart.c ****     GPIO_InitStruct.Mode = GPIO_MODE_AF_PP;
 254:Core/Src/usart.c ****     GPIO_InitStruct.Speed = GPIO_SPEED_FREQ_HIGH;
 255:Core/Src/usart.c ****     HAL_GPIO_Init(RS232_TX_GPIO_Port, &GPIO_InitStruct);
 256:Core/Src/usart.c **** 
 257:Core/Src/usart.c ****     GPIO_InitStruct.Pin = RS232_RX_Pin;
 258:Core/Src/usart.c ****     GPIO_InitStruct.Mode = GPIO_MODE_INPUT;
 259:Core/Src/usart.c ****     GPIO_InitStruct.Pull = GPIO_NOPULL;
 260:Core/Src/usart.c ****     HAL_GPIO_Init(RS232_RX_GPIO_Port, &GPIO_InitStruct);
 261:Core/Src/usart.c **** 
 262:Core/Src/usart.c ****     /* USART2 interrupt Init */
 263:Core/Src/usart.c ****     HAL_NVIC_SetPriority(USART2_IRQn, 0, 0);
 264:Core/Src/usart.c ****     HAL_NVIC_EnableIRQ(USART2_IRQn);
 265:Core/Src/usart.c ****   /* USER CODE BEGIN USART2_MspInit 1 */
 266:Core/Src/usart.c **** 
 267:Core/Src/usart.c ****   /* USER CODE END USART2_MspInit 1 */
 268:Core/Src/usart.c ****   }
 269:Core/Src/usart.c **** }
 354              		.loc 1 269 1 view .LVU105
 355 002a 0EB0     		add	sp, sp, #56
 356              	.LCFI6:
 357              		.cfi_remember_state
 358              		.cfi_def_cfa_offset 16
 359              		@ sp needed
 360 002c 70BD     		pop	{r4, r5, r6, pc}
 361              	.LVL10:
 362              	.L31:
 363              	.LCFI7:
ARM GAS  C:\Users\Admin\AppData\Local\Temp\ccT3ViES.s 			page 12


 364              		.cfi_restore_state
 157:Core/Src/usart.c **** 
 365              		.loc 1 157 5 is_stmt 1 view .LVU106
 366              	.LBB2:
 157:Core/Src/usart.c **** 
 367              		.loc 1 157 5 view .LVU107
 157:Core/Src/usart.c **** 
 368              		.loc 1 157 5 view .LVU108
 369 002e 664B     		ldr	r3, .L35+16
 370 0030 DA69     		ldr	r2, [r3, #28]
 371 0032 42F40022 		orr	r2, r2, #524288
 372 0036 DA61     		str	r2, [r3, #28]
 157:Core/Src/usart.c **** 
 373              		.loc 1 157 5 view .LVU109
 374 0038 DA69     		ldr	r2, [r3, #28]
 375 003a 02F40022 		and	r2, r2, #524288
 376 003e 0192     		str	r2, [sp, #4]
 157:Core/Src/usart.c **** 
 377              		.loc 1 157 5 view .LVU110
 378 0040 019A     		ldr	r2, [sp, #4]
 379              	.LBE2:
 157:Core/Src/usart.c **** 
 380              		.loc 1 157 5 view .LVU111
 159:Core/Src/usart.c ****     /**UART4 GPIO Configuration
 381              		.loc 1 159 5 view .LVU112
 382              	.LBB3:
 159:Core/Src/usart.c ****     /**UART4 GPIO Configuration
 383              		.loc 1 159 5 view .LVU113
 159:Core/Src/usart.c ****     /**UART4 GPIO Configuration
 384              		.loc 1 159 5 view .LVU114
 385 0042 9A69     		ldr	r2, [r3, #24]
 386 0044 42F01002 		orr	r2, r2, #16
 387 0048 9A61     		str	r2, [r3, #24]
 159:Core/Src/usart.c ****     /**UART4 GPIO Configuration
 388              		.loc 1 159 5 view .LVU115
 389 004a 9B69     		ldr	r3, [r3, #24]
 390 004c 03F01003 		and	r3, r3, #16
 391 0050 0293     		str	r3, [sp, #8]
 159:Core/Src/usart.c ****     /**UART4 GPIO Configuration
 392              		.loc 1 159 5 view .LVU116
 393 0052 029B     		ldr	r3, [sp, #8]
 394              	.LBE3:
 159:Core/Src/usart.c ****     /**UART4 GPIO Configuration
 395              		.loc 1 159 5 view .LVU117
 164:Core/Src/usart.c ****     GPIO_InitStruct.Mode = GPIO_MODE_AF_PP;
 396              		.loc 1 164 5 view .LVU118
 164:Core/Src/usart.c ****     GPIO_InitStruct.Mode = GPIO_MODE_AF_PP;
 397              		.loc 1 164 25 is_stmt 0 view .LVU119
 398 0054 4FF48063 		mov	r3, #1024
 399 0058 0A93     		str	r3, [sp, #40]
 165:Core/Src/usart.c ****     GPIO_InitStruct.Speed = GPIO_SPEED_FREQ_HIGH;
 400              		.loc 1 165 5 is_stmt 1 view .LVU120
 165:Core/Src/usart.c ****     GPIO_InitStruct.Speed = GPIO_SPEED_FREQ_HIGH;
 401              		.loc 1 165 26 is_stmt 0 view .LVU121
 402 005a 0223     		movs	r3, #2
 403 005c 0B93     		str	r3, [sp, #44]
 166:Core/Src/usart.c ****     HAL_GPIO_Init(GNSS_TX_GPIO_Port, &GPIO_InitStruct);
ARM GAS  C:\Users\Admin\AppData\Local\Temp\ccT3ViES.s 			page 13


 404              		.loc 1 166 5 is_stmt 1 view .LVU122
 166:Core/Src/usart.c ****     HAL_GPIO_Init(GNSS_TX_GPIO_Port, &GPIO_InitStruct);
 405              		.loc 1 166 27 is_stmt 0 view .LVU123
 406 005e 0325     		movs	r5, #3
 407 0060 0D95     		str	r5, [sp, #52]
 167:Core/Src/usart.c **** 
 408              		.loc 1 167 5 is_stmt 1 view .LVU124
 409 0062 5A4E     		ldr	r6, .L35+20
 410 0064 0AA9     		add	r1, sp, #40
 411 0066 3046     		mov	r0, r6
 412              	.LVL11:
 167:Core/Src/usart.c **** 
 413              		.loc 1 167 5 is_stmt 0 view .LVU125
 414 0068 FFF7FEFF 		bl	HAL_GPIO_Init
 415              	.LVL12:
 169:Core/Src/usart.c ****     GPIO_InitStruct.Mode = GPIO_MODE_INPUT;
 416              		.loc 1 169 5 is_stmt 1 view .LVU126
 169:Core/Src/usart.c ****     GPIO_InitStruct.Mode = GPIO_MODE_INPUT;
 417              		.loc 1 169 25 is_stmt 0 view .LVU127
 418 006c 4FF40063 		mov	r3, #2048
 419 0070 0A93     		str	r3, [sp, #40]
 170:Core/Src/usart.c ****     GPIO_InitStruct.Pull = GPIO_NOPULL;
 420              		.loc 1 170 5 is_stmt 1 view .LVU128
 170:Core/Src/usart.c ****     GPIO_InitStruct.Pull = GPIO_NOPULL;
 421              		.loc 1 170 26 is_stmt 0 view .LVU129
 422 0072 0024     		movs	r4, #0
 423 0074 0B94     		str	r4, [sp, #44]
 171:Core/Src/usart.c ****     HAL_GPIO_Init(GNSS_RX_GPIO_Port, &GPIO_InitStruct);
 424              		.loc 1 171 5 is_stmt 1 view .LVU130
 171:Core/Src/usart.c ****     HAL_GPIO_Init(GNSS_RX_GPIO_Port, &GPIO_InitStruct);
 425              		.loc 1 171 26 is_stmt 0 view .LVU131
 426 0076 0C94     		str	r4, [sp, #48]
 172:Core/Src/usart.c **** 
 427              		.loc 1 172 5 is_stmt 1 view .LVU132
 428 0078 0AA9     		add	r1, sp, #40
 429 007a 3046     		mov	r0, r6
 430 007c FFF7FEFF 		bl	HAL_GPIO_Init
 431              	.LVL13:
 175:Core/Src/usart.c ****     HAL_NVIC_EnableIRQ(UART4_IRQn);
 432              		.loc 1 175 5 view .LVU133
 433 0080 2246     		mov	r2, r4
 434 0082 2946     		mov	r1, r5
 435 0084 3420     		movs	r0, #52
 436 0086 FFF7FEFF 		bl	HAL_NVIC_SetPriority
 437              	.LVL14:
 176:Core/Src/usart.c ****   /* USER CODE BEGIN UART4_MspInit 1 */
 438              		.loc 1 176 5 view .LVU134
 439 008a 3420     		movs	r0, #52
 440 008c FFF7FEFF 		bl	HAL_NVIC_EnableIRQ
 441              	.LVL15:
 442 0090 CBE7     		b	.L25
 443              	.LVL16:
 444              	.L32:
 187:Core/Src/usart.c **** 
 445              		.loc 1 187 5 view .LVU135
 446              	.LBB4:
 187:Core/Src/usart.c **** 
ARM GAS  C:\Users\Admin\AppData\Local\Temp\ccT3ViES.s 			page 14


 447              		.loc 1 187 5 view .LVU136
 187:Core/Src/usart.c **** 
 448              		.loc 1 187 5 view .LVU137
 449 0092 4D4B     		ldr	r3, .L35+16
 450 0094 DA69     		ldr	r2, [r3, #28]
 451 0096 42F48012 		orr	r2, r2, #1048576
 452 009a DA61     		str	r2, [r3, #28]
 187:Core/Src/usart.c **** 
 453              		.loc 1 187 5 view .LVU138
 454 009c DA69     		ldr	r2, [r3, #28]
 455 009e 02F48012 		and	r2, r2, #1048576
 456 00a2 0392     		str	r2, [sp, #12]
 187:Core/Src/usart.c **** 
 457              		.loc 1 187 5 view .LVU139
 458 00a4 039A     		ldr	r2, [sp, #12]
 459              	.LBE4:
 187:Core/Src/usart.c **** 
 460              		.loc 1 187 5 view .LVU140
 189:Core/Src/usart.c ****     __HAL_RCC_GPIOD_CLK_ENABLE();
 461              		.loc 1 189 5 view .LVU141
 462              	.LBB5:
 189:Core/Src/usart.c ****     __HAL_RCC_GPIOD_CLK_ENABLE();
 463              		.loc 1 189 5 view .LVU142
 189:Core/Src/usart.c ****     __HAL_RCC_GPIOD_CLK_ENABLE();
 464              		.loc 1 189 5 view .LVU143
 465 00a6 9A69     		ldr	r2, [r3, #24]
 466 00a8 42F01002 		orr	r2, r2, #16
 467 00ac 9A61     		str	r2, [r3, #24]
 189:Core/Src/usart.c ****     __HAL_RCC_GPIOD_CLK_ENABLE();
 468              		.loc 1 189 5 view .LVU144
 469 00ae 9A69     		ldr	r2, [r3, #24]
 470 00b0 02F01002 		and	r2, r2, #16
 471 00b4 0492     		str	r2, [sp, #16]
 189:Core/Src/usart.c ****     __HAL_RCC_GPIOD_CLK_ENABLE();
 472              		.loc 1 189 5 view .LVU145
 473 00b6 049A     		ldr	r2, [sp, #16]
 474              	.LBE5:
 189:Core/Src/usart.c ****     __HAL_RCC_GPIOD_CLK_ENABLE();
 475              		.loc 1 189 5 view .LVU146
 190:Core/Src/usart.c ****     /**UART5 GPIO Configuration
 476              		.loc 1 190 5 view .LVU147
 477              	.LBB6:
 190:Core/Src/usart.c ****     /**UART5 GPIO Configuration
 478              		.loc 1 190 5 view .LVU148
 190:Core/Src/usart.c ****     /**UART5 GPIO Configuration
 479              		.loc 1 190 5 view .LVU149
 480 00b8 9A69     		ldr	r2, [r3, #24]
 481 00ba 42F02002 		orr	r2, r2, #32
 482 00be 9A61     		str	r2, [r3, #24]
 190:Core/Src/usart.c ****     /**UART5 GPIO Configuration
 483              		.loc 1 190 5 view .LVU150
 484 00c0 9B69     		ldr	r3, [r3, #24]
 485 00c2 03F02003 		and	r3, r3, #32
 486 00c6 0593     		str	r3, [sp, #20]
 190:Core/Src/usart.c ****     /**UART5 GPIO Configuration
 487              		.loc 1 190 5 view .LVU151
 488 00c8 059B     		ldr	r3, [sp, #20]
ARM GAS  C:\Users\Admin\AppData\Local\Temp\ccT3ViES.s 			page 15


 489              	.LBE6:
 190:Core/Src/usart.c ****     /**UART5 GPIO Configuration
 490              		.loc 1 190 5 view .LVU152
 195:Core/Src/usart.c ****     GPIO_InitStruct.Mode = GPIO_MODE_AF_PP;
 491              		.loc 1 195 5 view .LVU153
 195:Core/Src/usart.c ****     GPIO_InitStruct.Mode = GPIO_MODE_AF_PP;
 492              		.loc 1 195 25 is_stmt 0 view .LVU154
 493 00ca 4FF48053 		mov	r3, #4096
 494 00ce 0A93     		str	r3, [sp, #40]
 196:Core/Src/usart.c ****     GPIO_InitStruct.Speed = GPIO_SPEED_FREQ_HIGH;
 495              		.loc 1 196 5 is_stmt 1 view .LVU155
 196:Core/Src/usart.c ****     GPIO_InitStruct.Speed = GPIO_SPEED_FREQ_HIGH;
 496              		.loc 1 196 26 is_stmt 0 view .LVU156
 497 00d0 0223     		movs	r3, #2
 498 00d2 0B93     		str	r3, [sp, #44]
 197:Core/Src/usart.c ****     HAL_GPIO_Init(DEBUG_TX_GPIO_Port, &GPIO_InitStruct);
 499              		.loc 1 197 5 is_stmt 1 view .LVU157
 197:Core/Src/usart.c ****     HAL_GPIO_Init(DEBUG_TX_GPIO_Port, &GPIO_InitStruct);
 500              		.loc 1 197 27 is_stmt 0 view .LVU158
 501 00d4 0323     		movs	r3, #3
 502 00d6 0D93     		str	r3, [sp, #52]
 198:Core/Src/usart.c **** 
 503              		.loc 1 198 5 is_stmt 1 view .LVU159
 504 00d8 0AA9     		add	r1, sp, #40
 505 00da 3C48     		ldr	r0, .L35+20
 506              	.LVL17:
 198:Core/Src/usart.c **** 
 507              		.loc 1 198 5 is_stmt 0 view .LVU160
 508 00dc FFF7FEFF 		bl	HAL_GPIO_Init
 509              	.LVL18:
 200:Core/Src/usart.c ****     GPIO_InitStruct.Mode = GPIO_MODE_INPUT;
 510              		.loc 1 200 5 is_stmt 1 view .LVU161
 200:Core/Src/usart.c ****     GPIO_InitStruct.Mode = GPIO_MODE_INPUT;
 511              		.loc 1 200 25 is_stmt 0 view .LVU162
 512 00e0 0423     		movs	r3, #4
 513 00e2 0A93     		str	r3, [sp, #40]
 201:Core/Src/usart.c ****     GPIO_InitStruct.Pull = GPIO_NOPULL;
 514              		.loc 1 201 5 is_stmt 1 view .LVU163
 201:Core/Src/usart.c ****     GPIO_InitStruct.Pull = GPIO_NOPULL;
 515              		.loc 1 201 26 is_stmt 0 view .LVU164
 516 00e4 0023     		movs	r3, #0
 517 00e6 0B93     		str	r3, [sp, #44]
 202:Core/Src/usart.c ****     HAL_GPIO_Init(DEBUG_RX_GPIO_Port, &GPIO_InitStruct);
 518              		.loc 1 202 5 is_stmt 1 view .LVU165
 202:Core/Src/usart.c ****     HAL_GPIO_Init(DEBUG_RX_GPIO_Port, &GPIO_InitStruct);
 519              		.loc 1 202 26 is_stmt 0 view .LVU166
 520 00e8 0C93     		str	r3, [sp, #48]
 203:Core/Src/usart.c **** 
 521              		.loc 1 203 5 is_stmt 1 view .LVU167
 522 00ea 0AA9     		add	r1, sp, #40
 523 00ec 3848     		ldr	r0, .L35+24
 524 00ee FFF7FEFF 		bl	HAL_GPIO_Init
 525              	.LVL19:
 526 00f2 9AE7     		b	.L25
 527              	.LVL20:
 528              	.L33:
 215:Core/Src/usart.c **** 
ARM GAS  C:\Users\Admin\AppData\Local\Temp\ccT3ViES.s 			page 16


 529              		.loc 1 215 5 view .LVU168
 530              	.LBB7:
 215:Core/Src/usart.c **** 
 531              		.loc 1 215 5 view .LVU169
 215:Core/Src/usart.c **** 
 532              		.loc 1 215 5 view .LVU170
 533 00f4 344B     		ldr	r3, .L35+16
 534 00f6 9A69     		ldr	r2, [r3, #24]
 535 00f8 42F48042 		orr	r2, r2, #16384
 536 00fc 9A61     		str	r2, [r3, #24]
 215:Core/Src/usart.c **** 
 537              		.loc 1 215 5 view .LVU171
 538 00fe 9A69     		ldr	r2, [r3, #24]
 539 0100 02F48042 		and	r2, r2, #16384
 540 0104 0692     		str	r2, [sp, #24]
 215:Core/Src/usart.c **** 
 541              		.loc 1 215 5 view .LVU172
 542 0106 069A     		ldr	r2, [sp, #24]
 543              	.LBE7:
 215:Core/Src/usart.c **** 
 544              		.loc 1 215 5 view .LVU173
 217:Core/Src/usart.c ****     /**USART1 GPIO Configuration
 545              		.loc 1 217 5 view .LVU174
 546              	.LBB8:
 217:Core/Src/usart.c ****     /**USART1 GPIO Configuration
 547              		.loc 1 217 5 view .LVU175
 217:Core/Src/usart.c ****     /**USART1 GPIO Configuration
 548              		.loc 1 217 5 view .LVU176
 549 0108 9A69     		ldr	r2, [r3, #24]
 550 010a 42F00402 		orr	r2, r2, #4
 551 010e 9A61     		str	r2, [r3, #24]
 217:Core/Src/usart.c ****     /**USART1 GPIO Configuration
 552              		.loc 1 217 5 view .LVU177
 553 0110 9B69     		ldr	r3, [r3, #24]
 554 0112 03F00403 		and	r3, r3, #4
 555 0116 0793     		str	r3, [sp, #28]
 217:Core/Src/usart.c ****     /**USART1 GPIO Configuration
 556              		.loc 1 217 5 view .LVU178
 557 0118 079B     		ldr	r3, [sp, #28]
 558              	.LBE8:
 217:Core/Src/usart.c ****     /**USART1 GPIO Configuration
 559              		.loc 1 217 5 view .LVU179
 222:Core/Src/usart.c ****     GPIO_InitStruct.Mode = GPIO_MODE_AF_PP;
 560              		.loc 1 222 5 view .LVU180
 222:Core/Src/usart.c ****     GPIO_InitStruct.Mode = GPIO_MODE_AF_PP;
 561              		.loc 1 222 25 is_stmt 0 view .LVU181
 562 011a 4FF40073 		mov	r3, #512
 563 011e 0A93     		str	r3, [sp, #40]
 223:Core/Src/usart.c ****     GPIO_InitStruct.Speed = GPIO_SPEED_FREQ_HIGH;
 564              		.loc 1 223 5 is_stmt 1 view .LVU182
 223:Core/Src/usart.c ****     GPIO_InitStruct.Speed = GPIO_SPEED_FREQ_HIGH;
 565              		.loc 1 223 26 is_stmt 0 view .LVU183
 566 0120 0225     		movs	r5, #2
 567 0122 0B95     		str	r5, [sp, #44]
 224:Core/Src/usart.c ****     HAL_GPIO_Init(SIM_TX_GPIO_Port, &GPIO_InitStruct);
 568              		.loc 1 224 5 is_stmt 1 view .LVU184
 224:Core/Src/usart.c ****     HAL_GPIO_Init(SIM_TX_GPIO_Port, &GPIO_InitStruct);
ARM GAS  C:\Users\Admin\AppData\Local\Temp\ccT3ViES.s 			page 17


 569              		.loc 1 224 27 is_stmt 0 view .LVU185
 570 0124 0323     		movs	r3, #3
 571 0126 0D93     		str	r3, [sp, #52]
 225:Core/Src/usart.c **** 
 572              		.loc 1 225 5 is_stmt 1 view .LVU186
 573 0128 2A4E     		ldr	r6, .L35+28
 574 012a 0AA9     		add	r1, sp, #40
 575 012c 3046     		mov	r0, r6
 576              	.LVL21:
 225:Core/Src/usart.c **** 
 577              		.loc 1 225 5 is_stmt 0 view .LVU187
 578 012e FFF7FEFF 		bl	HAL_GPIO_Init
 579              	.LVL22:
 227:Core/Src/usart.c ****     GPIO_InitStruct.Mode = GPIO_MODE_INPUT;
 580              		.loc 1 227 5 is_stmt 1 view .LVU188
 227:Core/Src/usart.c ****     GPIO_InitStruct.Mode = GPIO_MODE_INPUT;
 581              		.loc 1 227 25 is_stmt 0 view .LVU189
 582 0132 4FF48063 		mov	r3, #1024
 583 0136 0A93     		str	r3, [sp, #40]
 228:Core/Src/usart.c ****     GPIO_InitStruct.Pull = GPIO_NOPULL;
 584              		.loc 1 228 5 is_stmt 1 view .LVU190
 228:Core/Src/usart.c ****     GPIO_InitStruct.Pull = GPIO_NOPULL;
 585              		.loc 1 228 26 is_stmt 0 view .LVU191
 586 0138 0024     		movs	r4, #0
 587 013a 0B94     		str	r4, [sp, #44]
 229:Core/Src/usart.c ****     HAL_GPIO_Init(SIM_RX_GPIO_Port, &GPIO_InitStruct);
 588              		.loc 1 229 5 is_stmt 1 view .LVU192
 229:Core/Src/usart.c ****     HAL_GPIO_Init(SIM_RX_GPIO_Port, &GPIO_InitStruct);
 589              		.loc 1 229 26 is_stmt 0 view .LVU193
 590 013c 0C94     		str	r4, [sp, #48]
 230:Core/Src/usart.c **** 
 591              		.loc 1 230 5 is_stmt 1 view .LVU194
 592 013e 0AA9     		add	r1, sp, #40
 593 0140 3046     		mov	r0, r6
 594 0142 FFF7FEFF 		bl	HAL_GPIO_Init
 595              	.LVL23:
 233:Core/Src/usart.c ****     HAL_NVIC_EnableIRQ(USART1_IRQn);
 596              		.loc 1 233 5 view .LVU195
 597 0146 2246     		mov	r2, r4
 598 0148 2946     		mov	r1, r5
 599 014a 2520     		movs	r0, #37
 600 014c FFF7FEFF 		bl	HAL_NVIC_SetPriority
 601              	.LVL24:
 234:Core/Src/usart.c ****   /* USER CODE BEGIN USART1_MspInit 1 */
 602              		.loc 1 234 5 view .LVU196
 603 0150 2520     		movs	r0, #37
 604 0152 FFF7FEFF 		bl	HAL_NVIC_EnableIRQ
 605              	.LVL25:
 606 0156 68E7     		b	.L25
 607              	.LVL26:
 608              	.L34:
 245:Core/Src/usart.c **** 
 609              		.loc 1 245 5 view .LVU197
 610              	.LBB9:
 245:Core/Src/usart.c **** 
 611              		.loc 1 245 5 view .LVU198
 245:Core/Src/usart.c **** 
ARM GAS  C:\Users\Admin\AppData\Local\Temp\ccT3ViES.s 			page 18


 612              		.loc 1 245 5 view .LVU199
 613 0158 1B4B     		ldr	r3, .L35+16
 614 015a DA69     		ldr	r2, [r3, #28]
 615 015c 42F40032 		orr	r2, r2, #131072
 616 0160 DA61     		str	r2, [r3, #28]
 245:Core/Src/usart.c **** 
 617              		.loc 1 245 5 view .LVU200
 618 0162 DA69     		ldr	r2, [r3, #28]
 619 0164 02F40032 		and	r2, r2, #131072
 620 0168 0892     		str	r2, [sp, #32]
 245:Core/Src/usart.c **** 
 621              		.loc 1 245 5 view .LVU201
 622 016a 089A     		ldr	r2, [sp, #32]
 623              	.LBE9:
 245:Core/Src/usart.c **** 
 624              		.loc 1 245 5 view .LVU202
 247:Core/Src/usart.c ****     /**USART2 GPIO Configuration
 625              		.loc 1 247 5 view .LVU203
 626              	.LBB10:
 247:Core/Src/usart.c ****     /**USART2 GPIO Configuration
 627              		.loc 1 247 5 view .LVU204
 247:Core/Src/usart.c ****     /**USART2 GPIO Configuration
 628              		.loc 1 247 5 view .LVU205
 629 016c 9A69     		ldr	r2, [r3, #24]
 630 016e 42F00402 		orr	r2, r2, #4
 631 0172 9A61     		str	r2, [r3, #24]
 247:Core/Src/usart.c ****     /**USART2 GPIO Configuration
 632              		.loc 1 247 5 view .LVU206
 633 0174 9B69     		ldr	r3, [r3, #24]
 634 0176 03F00403 		and	r3, r3, #4
 635 017a 0993     		str	r3, [sp, #36]
 247:Core/Src/usart.c ****     /**USART2 GPIO Configuration
 636              		.loc 1 247 5 view .LVU207
 637 017c 099B     		ldr	r3, [sp, #36]
 638              	.LBE10:
 247:Core/Src/usart.c ****     /**USART2 GPIO Configuration
 639              		.loc 1 247 5 view .LVU208
 252:Core/Src/usart.c ****     GPIO_InitStruct.Mode = GPIO_MODE_AF_PP;
 640              		.loc 1 252 5 view .LVU209
 252:Core/Src/usart.c ****     GPIO_InitStruct.Mode = GPIO_MODE_AF_PP;
 641              		.loc 1 252 25 is_stmt 0 view .LVU210
 642 017e 0423     		movs	r3, #4
 643 0180 0A93     		str	r3, [sp, #40]
 253:Core/Src/usart.c ****     GPIO_InitStruct.Speed = GPIO_SPEED_FREQ_HIGH;
 644              		.loc 1 253 5 is_stmt 1 view .LVU211
 253:Core/Src/usart.c ****     GPIO_InitStruct.Speed = GPIO_SPEED_FREQ_HIGH;
 645              		.loc 1 253 26 is_stmt 0 view .LVU212
 646 0182 0223     		movs	r3, #2
 647 0184 0B93     		str	r3, [sp, #44]
 254:Core/Src/usart.c ****     HAL_GPIO_Init(RS232_TX_GPIO_Port, &GPIO_InitStruct);
 648              		.loc 1 254 5 is_stmt 1 view .LVU213
 254:Core/Src/usart.c ****     HAL_GPIO_Init(RS232_TX_GPIO_Port, &GPIO_InitStruct);
 649              		.loc 1 254 27 is_stmt 0 view .LVU214
 650 0186 0323     		movs	r3, #3
 651 0188 0D93     		str	r3, [sp, #52]
 255:Core/Src/usart.c **** 
 652              		.loc 1 255 5 is_stmt 1 view .LVU215
ARM GAS  C:\Users\Admin\AppData\Local\Temp\ccT3ViES.s 			page 19


 653 018a 124D     		ldr	r5, .L35+28
 654 018c 0AA9     		add	r1, sp, #40
 655 018e 2846     		mov	r0, r5
 656              	.LVL27:
 255:Core/Src/usart.c **** 
 657              		.loc 1 255 5 is_stmt 0 view .LVU216
 658 0190 FFF7FEFF 		bl	HAL_GPIO_Init
 659              	.LVL28:
 257:Core/Src/usart.c ****     GPIO_InitStruct.Mode = GPIO_MODE_INPUT;
 660              		.loc 1 257 5 is_stmt 1 view .LVU217
 257:Core/Src/usart.c ****     GPIO_InitStruct.Mode = GPIO_MODE_INPUT;
 661              		.loc 1 257 25 is_stmt 0 view .LVU218
 662 0194 0823     		movs	r3, #8
 663 0196 0A93     		str	r3, [sp, #40]
 258:Core/Src/usart.c ****     GPIO_InitStruct.Pull = GPIO_NOPULL;
 664              		.loc 1 258 5 is_stmt 1 view .LVU219
 258:Core/Src/usart.c ****     GPIO_InitStruct.Pull = GPIO_NOPULL;
 665              		.loc 1 258 26 is_stmt 0 view .LVU220
 666 0198 0024     		movs	r4, #0
 667 019a 0B94     		str	r4, [sp, #44]
 259:Core/Src/usart.c ****     HAL_GPIO_Init(RS232_RX_GPIO_Port, &GPIO_InitStruct);
 668              		.loc 1 259 5 is_stmt 1 view .LVU221
 259:Core/Src/usart.c ****     HAL_GPIO_Init(RS232_RX_GPIO_Port, &GPIO_InitStruct);
 669              		.loc 1 259 26 is_stmt 0 view .LVU222
 670 019c 0C94     		str	r4, [sp, #48]
 260:Core/Src/usart.c **** 
 671              		.loc 1 260 5 is_stmt 1 view .LVU223
 672 019e 0AA9     		add	r1, sp, #40
 673 01a0 2846     		mov	r0, r5
 674 01a2 FFF7FEFF 		bl	HAL_GPIO_Init
 675              	.LVL29:
 263:Core/Src/usart.c ****     HAL_NVIC_EnableIRQ(USART2_IRQn);
 676              		.loc 1 263 5 view .LVU224
 677 01a6 2246     		mov	r2, r4
 678 01a8 2146     		mov	r1, r4
 679 01aa 2620     		movs	r0, #38
 680 01ac FFF7FEFF 		bl	HAL_NVIC_SetPriority
 681              	.LVL30:
 264:Core/Src/usart.c ****   /* USER CODE BEGIN USART2_MspInit 1 */
 682              		.loc 1 264 5 view .LVU225
 683 01b0 2620     		movs	r0, #38
 684 01b2 FFF7FEFF 		bl	HAL_NVIC_EnableIRQ
 685              	.LVL31:
 686              		.loc 1 269 1 is_stmt 0 view .LVU226
 687 01b6 38E7     		b	.L25
 688              	.L36:
 689              		.align	2
 690              	.L35:
 691 01b8 004C0040 		.word	1073761280
 692 01bc 00500040 		.word	1073762304
 693 01c0 00380140 		.word	1073821696
 694 01c4 00440040 		.word	1073759232
 695 01c8 00100240 		.word	1073876992
 696 01cc 00100140 		.word	1073811456
 697 01d0 00140140 		.word	1073812480
 698 01d4 00080140 		.word	1073809408
 699              		.cfi_endproc
ARM GAS  C:\Users\Admin\AppData\Local\Temp\ccT3ViES.s 			page 20


 700              	.LFE69:
 702              		.section	.text.HAL_UART_MspDeInit,"ax",%progbits
 703              		.align	1
 704              		.global	HAL_UART_MspDeInit
 705              		.syntax unified
 706              		.thumb
 707              		.thumb_func
 709              	HAL_UART_MspDeInit:
 710              	.LVL32:
 711              	.LFB70:
 270:Core/Src/usart.c **** 
 271:Core/Src/usart.c **** void HAL_UART_MspDeInit(UART_HandleTypeDef* uartHandle)
 272:Core/Src/usart.c **** {
 712              		.loc 1 272 1 is_stmt 1 view -0
 713              		.cfi_startproc
 714              		@ args = 0, pretend = 0, frame = 0
 715              		@ frame_needed = 0, uses_anonymous_args = 0
 716              		.loc 1 272 1 is_stmt 0 view .LVU228
 717 0000 08B5     		push	{r3, lr}
 718              	.LCFI8:
 719              		.cfi_def_cfa_offset 8
 720              		.cfi_offset 3, -8
 721              		.cfi_offset 14, -4
 273:Core/Src/usart.c **** 
 274:Core/Src/usart.c ****   if(uartHandle->Instance==UART4)
 722              		.loc 1 274 3 is_stmt 1 view .LVU229
 723              		.loc 1 274 16 is_stmt 0 view .LVU230
 724 0002 0368     		ldr	r3, [r0]
 725              		.loc 1 274 5 view .LVU231
 726 0004 244A     		ldr	r2, .L47
 727 0006 9342     		cmp	r3, r2
 728 0008 09D0     		beq	.L43
 275:Core/Src/usart.c ****   {
 276:Core/Src/usart.c ****   /* USER CODE BEGIN UART4_MspDeInit 0 */
 277:Core/Src/usart.c **** 
 278:Core/Src/usart.c ****   /* USER CODE END UART4_MspDeInit 0 */
 279:Core/Src/usart.c ****     /* Peripheral clock disable */
 280:Core/Src/usart.c ****     __HAL_RCC_UART4_CLK_DISABLE();
 281:Core/Src/usart.c **** 
 282:Core/Src/usart.c ****     /**UART4 GPIO Configuration
 283:Core/Src/usart.c ****     PC10     ------> UART4_TX
 284:Core/Src/usart.c ****     PC11     ------> UART4_RX
 285:Core/Src/usart.c ****     */
 286:Core/Src/usart.c ****     HAL_GPIO_DeInit(GPIOC, GNSS_TX_Pin|GNSS_RX_Pin);
 287:Core/Src/usart.c **** 
 288:Core/Src/usart.c ****     /* UART4 interrupt Deinit */
 289:Core/Src/usart.c ****     HAL_NVIC_DisableIRQ(UART4_IRQn);
 290:Core/Src/usart.c ****   /* USER CODE BEGIN UART4_MspDeInit 1 */
 291:Core/Src/usart.c **** 
 292:Core/Src/usart.c ****   /* USER CODE END UART4_MspDeInit 1 */
 293:Core/Src/usart.c ****   }
 294:Core/Src/usart.c ****   else if(uartHandle->Instance==UART5)
 729              		.loc 1 294 8 is_stmt 1 view .LVU232
 730              		.loc 1 294 10 is_stmt 0 view .LVU233
 731 000a 244A     		ldr	r2, .L47+4
 732 000c 9342     		cmp	r3, r2
 733 000e 15D0     		beq	.L44
ARM GAS  C:\Users\Admin\AppData\Local\Temp\ccT3ViES.s 			page 21


 295:Core/Src/usart.c ****   {
 296:Core/Src/usart.c ****   /* USER CODE BEGIN UART5_MspDeInit 0 */
 297:Core/Src/usart.c **** 
 298:Core/Src/usart.c ****   /* USER CODE END UART5_MspDeInit 0 */
 299:Core/Src/usart.c ****     /* Peripheral clock disable */
 300:Core/Src/usart.c ****     __HAL_RCC_UART5_CLK_DISABLE();
 301:Core/Src/usart.c **** 
 302:Core/Src/usart.c ****     /**UART5 GPIO Configuration
 303:Core/Src/usart.c ****     PC12     ------> UART5_TX
 304:Core/Src/usart.c ****     PD2     ------> UART5_RX
 305:Core/Src/usart.c ****     */
 306:Core/Src/usart.c ****     HAL_GPIO_DeInit(DEBUG_TX_GPIO_Port, DEBUG_TX_Pin);
 307:Core/Src/usart.c **** 
 308:Core/Src/usart.c ****     HAL_GPIO_DeInit(DEBUG_RX_GPIO_Port, DEBUG_RX_Pin);
 309:Core/Src/usart.c **** 
 310:Core/Src/usart.c ****   /* USER CODE BEGIN UART5_MspDeInit 1 */
 311:Core/Src/usart.c **** 
 312:Core/Src/usart.c ****   /* USER CODE END UART5_MspDeInit 1 */
 313:Core/Src/usart.c ****   }
 314:Core/Src/usart.c ****   else if(uartHandle->Instance==USART1)
 734              		.loc 1 314 8 is_stmt 1 view .LVU234
 735              		.loc 1 314 10 is_stmt 0 view .LVU235
 736 0010 234A     		ldr	r2, .L47+8
 737 0012 9342     		cmp	r3, r2
 738 0014 22D0     		beq	.L45
 315:Core/Src/usart.c ****   {
 316:Core/Src/usart.c ****   /* USER CODE BEGIN USART1_MspDeInit 0 */
 317:Core/Src/usart.c **** 
 318:Core/Src/usart.c ****   /* USER CODE END USART1_MspDeInit 0 */
 319:Core/Src/usart.c ****     /* Peripheral clock disable */
 320:Core/Src/usart.c ****     __HAL_RCC_USART1_CLK_DISABLE();
 321:Core/Src/usart.c **** 
 322:Core/Src/usart.c ****     /**USART1 GPIO Configuration
 323:Core/Src/usart.c ****     PA9     ------> USART1_TX
 324:Core/Src/usart.c ****     PA10     ------> USART1_RX
 325:Core/Src/usart.c ****     */
 326:Core/Src/usart.c ****     HAL_GPIO_DeInit(GPIOA, SIM_TX_Pin|SIM_RX_Pin);
 327:Core/Src/usart.c **** 
 328:Core/Src/usart.c ****     /* USART1 interrupt Deinit */
 329:Core/Src/usart.c ****     HAL_NVIC_DisableIRQ(USART1_IRQn);
 330:Core/Src/usart.c ****   /* USER CODE BEGIN USART1_MspDeInit 1 */
 331:Core/Src/usart.c **** 
 332:Core/Src/usart.c ****   /* USER CODE END USART1_MspDeInit 1 */
 333:Core/Src/usart.c ****   }
 334:Core/Src/usart.c ****   else if(uartHandle->Instance==USART2)
 739              		.loc 1 334 8 is_stmt 1 view .LVU236
 740              		.loc 1 334 10 is_stmt 0 view .LVU237
 741 0016 234A     		ldr	r2, .L47+12
 742 0018 9342     		cmp	r3, r2
 743 001a 2ED0     		beq	.L46
 744              	.LVL33:
 745              	.L37:
 335:Core/Src/usart.c ****   {
 336:Core/Src/usart.c ****   /* USER CODE BEGIN USART2_MspDeInit 0 */
 337:Core/Src/usart.c **** 
 338:Core/Src/usart.c ****   /* USER CODE END USART2_MspDeInit 0 */
 339:Core/Src/usart.c ****     /* Peripheral clock disable */
ARM GAS  C:\Users\Admin\AppData\Local\Temp\ccT3ViES.s 			page 22


 340:Core/Src/usart.c ****     __HAL_RCC_USART2_CLK_DISABLE();
 341:Core/Src/usart.c **** 
 342:Core/Src/usart.c ****     /**USART2 GPIO Configuration
 343:Core/Src/usart.c ****     PA2     ------> USART2_TX
 344:Core/Src/usart.c ****     PA3     ------> USART2_RX
 345:Core/Src/usart.c ****     */
 346:Core/Src/usart.c ****     HAL_GPIO_DeInit(GPIOA, RS232_TX_Pin|RS232_RX_Pin);
 347:Core/Src/usart.c **** 
 348:Core/Src/usart.c ****     /* USART2 interrupt Deinit */
 349:Core/Src/usart.c ****     HAL_NVIC_DisableIRQ(USART2_IRQn);
 350:Core/Src/usart.c ****   /* USER CODE BEGIN USART2_MspDeInit 1 */
 351:Core/Src/usart.c **** 
 352:Core/Src/usart.c ****   /* USER CODE END USART2_MspDeInit 1 */
 353:Core/Src/usart.c ****   }
 354:Core/Src/usart.c **** }
 746              		.loc 1 354 1 view .LVU238
 747 001c 08BD     		pop	{r3, pc}
 748              	.LVL34:
 749              	.L43:
 280:Core/Src/usart.c **** 
 750              		.loc 1 280 5 is_stmt 1 view .LVU239
 751 001e 02F5E232 		add	r2, r2, #115712
 752 0022 D369     		ldr	r3, [r2, #28]
 753 0024 23F40023 		bic	r3, r3, #524288
 754 0028 D361     		str	r3, [r2, #28]
 286:Core/Src/usart.c **** 
 755              		.loc 1 286 5 view .LVU240
 756 002a 4FF44061 		mov	r1, #3072
 757 002e 1E48     		ldr	r0, .L47+16
 758              	.LVL35:
 286:Core/Src/usart.c **** 
 759              		.loc 1 286 5 is_stmt 0 view .LVU241
 760 0030 FFF7FEFF 		bl	HAL_GPIO_DeInit
 761              	.LVL36:
 289:Core/Src/usart.c ****   /* USER CODE BEGIN UART4_MspDeInit 1 */
 762              		.loc 1 289 5 is_stmt 1 view .LVU242
 763 0034 3420     		movs	r0, #52
 764 0036 FFF7FEFF 		bl	HAL_NVIC_DisableIRQ
 765              	.LVL37:
 766 003a EFE7     		b	.L37
 767              	.LVL38:
 768              	.L44:
 300:Core/Src/usart.c **** 
 769              		.loc 1 300 5 view .LVU243
 770 003c 02F5E032 		add	r2, r2, #114688
 771 0040 D369     		ldr	r3, [r2, #28]
 772 0042 23F48013 		bic	r3, r3, #1048576
 773 0046 D361     		str	r3, [r2, #28]
 306:Core/Src/usart.c **** 
 774              		.loc 1 306 5 view .LVU244
 775 0048 4FF48051 		mov	r1, #4096
 776 004c 1648     		ldr	r0, .L47+16
 777              	.LVL39:
 306:Core/Src/usart.c **** 
 778              		.loc 1 306 5 is_stmt 0 view .LVU245
 779 004e FFF7FEFF 		bl	HAL_GPIO_DeInit
 780              	.LVL40:
ARM GAS  C:\Users\Admin\AppData\Local\Temp\ccT3ViES.s 			page 23


 308:Core/Src/usart.c **** 
 781              		.loc 1 308 5 is_stmt 1 view .LVU246
 782 0052 0421     		movs	r1, #4
 783 0054 1548     		ldr	r0, .L47+20
 784 0056 FFF7FEFF 		bl	HAL_GPIO_DeInit
 785              	.LVL41:
 786 005a DFE7     		b	.L37
 787              	.LVL42:
 788              	.L45:
 320:Core/Src/usart.c **** 
 789              		.loc 1 320 5 view .LVU247
 790 005c 02F55842 		add	r2, r2, #55296
 791 0060 9369     		ldr	r3, [r2, #24]
 792 0062 23F48043 		bic	r3, r3, #16384
 793 0066 9361     		str	r3, [r2, #24]
 326:Core/Src/usart.c **** 
 794              		.loc 1 326 5 view .LVU248
 795 0068 4FF4C061 		mov	r1, #1536
 796 006c 1048     		ldr	r0, .L47+24
 797              	.LVL43:
 326:Core/Src/usart.c **** 
 798              		.loc 1 326 5 is_stmt 0 view .LVU249
 799 006e FFF7FEFF 		bl	HAL_GPIO_DeInit
 800              	.LVL44:
 329:Core/Src/usart.c ****   /* USER CODE BEGIN USART1_MspDeInit 1 */
 801              		.loc 1 329 5 is_stmt 1 view .LVU250
 802 0072 2520     		movs	r0, #37
 803 0074 FFF7FEFF 		bl	HAL_NVIC_DisableIRQ
 804              	.LVL45:
 805 0078 D0E7     		b	.L37
 806              	.LVL46:
 807              	.L46:
 340:Core/Src/usart.c **** 
 808              		.loc 1 340 5 view .LVU251
 809 007a 02F5E632 		add	r2, r2, #117760
 810 007e D369     		ldr	r3, [r2, #28]
 811 0080 23F40033 		bic	r3, r3, #131072
 812 0084 D361     		str	r3, [r2, #28]
 346:Core/Src/usart.c **** 
 813              		.loc 1 346 5 view .LVU252
 814 0086 0C21     		movs	r1, #12
 815 0088 0948     		ldr	r0, .L47+24
 816              	.LVL47:
 346:Core/Src/usart.c **** 
 817              		.loc 1 346 5 is_stmt 0 view .LVU253
 818 008a FFF7FEFF 		bl	HAL_GPIO_DeInit
 819              	.LVL48:
 349:Core/Src/usart.c ****   /* USER CODE BEGIN USART2_MspDeInit 1 */
 820              		.loc 1 349 5 is_stmt 1 view .LVU254
 821 008e 2620     		movs	r0, #38
 822 0090 FFF7FEFF 		bl	HAL_NVIC_DisableIRQ
 823              	.LVL49:
 824              		.loc 1 354 1 is_stmt 0 view .LVU255
 825 0094 C2E7     		b	.L37
 826              	.L48:
 827 0096 00BF     		.align	2
 828              	.L47:
ARM GAS  C:\Users\Admin\AppData\Local\Temp\ccT3ViES.s 			page 24


 829 0098 004C0040 		.word	1073761280
 830 009c 00500040 		.word	1073762304
 831 00a0 00380140 		.word	1073821696
 832 00a4 00440040 		.word	1073759232
 833 00a8 00100140 		.word	1073811456
 834 00ac 00140140 		.word	1073812480
 835 00b0 00080140 		.word	1073809408
 836              		.cfi_endproc
 837              	.LFE70:
 839              		.global	huart2
 840              		.global	huart1
 841              		.global	huart5
 842              		.global	huart4
 843              		.section	.bss.huart1,"aw",%nobits
 844              		.align	2
 845              		.set	.LANCHOR2,. + 0
 848              	huart1:
 849 0000 00000000 		.space	72
 849      00000000 
 849      00000000 
 849      00000000 
 849      00000000 
 850              		.section	.bss.huart2,"aw",%nobits
 851              		.align	2
 852              		.set	.LANCHOR3,. + 0
 855              	huart2:
 856 0000 00000000 		.space	72
 856      00000000 
 856      00000000 
 856      00000000 
 856      00000000 
 857              		.section	.bss.huart4,"aw",%nobits
 858              		.align	2
 859              		.set	.LANCHOR0,. + 0
 862              	huart4:
 863 0000 00000000 		.space	72
 863      00000000 
 863      00000000 
 863      00000000 
 863      00000000 
 864              		.section	.bss.huart5,"aw",%nobits
 865              		.align	2
 866              		.set	.LANCHOR1,. + 0
 869              	huart5:
 870 0000 00000000 		.space	72
 870      00000000 
 870      00000000 
 870      00000000 
 870      00000000 
 871              		.text
 872              	.Letext0:
 873              		.file 2 "d:\\10 2021.10\\arm-none-eabi\\include\\machine\\_default_types.h"
 874              		.file 3 "d:\\10 2021.10\\arm-none-eabi\\include\\sys\\_stdint.h"
 875              		.file 4 "Drivers/CMSIS/Device/ST/STM32F1xx/Include/stm32f103xe.h"
 876              		.file 5 "Drivers/STM32F1xx_HAL_Driver/Inc/stm32f1xx_hal_def.h"
 877              		.file 6 "Drivers/STM32F1xx_HAL_Driver/Inc/stm32f1xx_hal_gpio.h"
 878              		.file 7 "Drivers/STM32F1xx_HAL_Driver/Inc/stm32f1xx_hal_dma.h"
ARM GAS  C:\Users\Admin\AppData\Local\Temp\ccT3ViES.s 			page 25


 879              		.file 8 "Drivers/STM32F1xx_HAL_Driver/Inc/stm32f1xx_hal_uart.h"
 880              		.file 9 "Core/Inc/usart.h"
 881              		.file 10 "Drivers/STM32F1xx_HAL_Driver/Inc/stm32f1xx_hal_cortex.h"
 882              		.file 11 "Core/Inc/main.h"
ARM GAS  C:\Users\Admin\AppData\Local\Temp\ccT3ViES.s 			page 26

